
testing2.elf:     file format elf32-littleriscv
testing2.elf
architecture: riscv:rv32, flags 0x00000112:
EXEC_P, HAS_SYMS, D_PAGED
start address 0x80000100

Program Header:
0x70000003 off    0x00026e15 vaddr 0x00000000 paddr 0x00000000 align 2**0
         filesz 0x0000003a memsz 0x00000000 flags r--
    LOAD off    0x00001000 vaddr 0x80000000 paddr 0x80000000 align 2**12
         filesz 0x00005d18 memsz 0x00005d18 flags r-x
    LOAD off    0x00007000 vaddr 0x90000000 paddr 0x90000000 align 2**12
         filesz 0x000008c0 memsz 0x00001290 flags rw-
    LOAD off    0x00000800 vaddr 0x9000f800 paddr 0x90001290 align 2**12
         filesz 0x00000000 memsz 0x00000800 flags rw-
   STACK off    0x00000000 vaddr 0x00000000 paddr 0x00000000 align 2**4
         filesz 0x00000000 memsz 0x00000000 flags rw-

Sections:
Idx Name              Size      VMA       LMA       File off  Algn  Flags
  0 .init             00000288  80000000  80000000  00001000  2**6  CONTENTS, ALLOC, LOAD, READONLY, CODE
  1 .text             00005a58  800002c0  800002c0  000012c0  2**6  CONTENTS, ALLOC, LOAD, READONLY, CODE
  2 .data             000008c0  90000000  90000000  00007000  2**3  CONTENTS, ALLOC, LOAD, DATA
  3 .tbss_space       00000000  900008c0  900008c0  000078c0  2**3  CONTENTS
  4 .bss              000001d0  900008c0  900008c0  000078c0  2**3  ALLOC
  5 .heap             00000800  90000a90  90000a90  000078c0  2**4  ALLOC
  6 .stack            00000800  9000f800  90001290  00008800  2**0  ALLOC
  7 .debug_info       00003509  00000000  00000000  000078c0  2**0  CONTENTS, READONLY, DEBUGGING, OCTETS
  8 .debug_abbrev     000012f7  00000000  00000000  0000adc9  2**0  CONTENTS, READONLY, DEBUGGING, OCTETS
  9 .debug_loclists   00000a17  00000000  00000000  0000c0c0  2**0  CONTENTS, READONLY, DEBUGGING, OCTETS
 10 .debug_aranges    00000360  00000000  00000000  0000cad8  2**3  CONTENTS, READONLY, DEBUGGING, OCTETS
 11 .debug_rnglists   00000617  00000000  00000000  0000ce38  2**0  CONTENTS, READONLY, DEBUGGING, OCTETS
 12 .debug_macro      00002b3d  00000000  00000000  0000d44f  2**0  CONTENTS, READONLY, DEBUGGING, OCTETS
 13 .debug_line       0000357c  00000000  00000000  0000ff8c  2**0  CONTENTS, READONLY, DEBUGGING, OCTETS
 14 .debug_str        00012ed0  00000000  00000000  00013508  2**0  CONTENTS, READONLY, DEBUGGING, OCTETS
 15 .debug_line_str   00000a1b  00000000  00000000  000263d8  2**0  CONTENTS, READONLY, DEBUGGING, OCTETS
 16 .comment          00000022  00000000  00000000  00026df3  2**0  CONTENTS, READONLY
 17 .riscv.attributes 0000003a  00000000  00000000  00026e15  2**0  CONTENTS, READONLY
 18 .debug_frame      00000530  00000000  00000000  00026e50  2**2  CONTENTS, READONLY, DEBUGGING, OCTETS
SYMBOL TABLE:
80000000 l    d  .init	00000000 .init
800002c0 l    d  .text	00000000 .text
90000000 l    d  .data	00000000 .data
900008c0 l    d  .tbss_space	00000000 .tbss_space
900008c0 l    d  .bss	00000000 .bss
90000a90 l    d  .heap	00000000 .heap
9000f800 l    d  .stack	00000000 .stack
00000000 l    d  .debug_info	00000000 .debug_info
00000000 l    d  .debug_abbrev	00000000 .debug_abbrev
00000000 l    d  .debug_loclists	00000000 .debug_loclists
00000000 l    d  .debug_aranges	00000000 .debug_aranges
00000000 l    d  .debug_rnglists	00000000 .debug_rnglists
00000000 l    d  .debug_macro	00000000 .debug_macro
00000000 l    d  .debug_line	00000000 .debug_line
00000000 l    d  .debug_str	00000000 .debug_str
00000000 l    d  .debug_line_str	00000000 .debug_line_str
00000000 l    d  .comment	00000000 .comment
00000000 l    d  .riscv.attributes	00000000 .riscv.attributes
00000000 l    d  .debug_frame	00000000 .debug_frame
00000000 l    df *ABS*	00000000 startup_evalsoc.o
80000212 l       .init	00000000 __amp_wait
8000016a l       .init	00000000 __init_common
800001e4 l       .init	00000000 __skip_init
00000000 l    df *ABS*	00000000 system_evalsoc.c
800008bc l     F .text	0000004a system_default_exception_handler
900008ec l     O .bss	0000006c SystemExceptionHandlers
00000000 l    df *ABS*	00000000 core_main.c
00000000 l    df *ABS*	00000000 close.c
00000000 l    df *ABS*	00000000 exit.c
00000000 l    df *ABS*	00000000 fstat.c
00000000 l    df *ABS*	00000000 getpid.c
00000000 l    df *ABS*	00000000 isatty.c
00000000 l    df *ABS*	00000000 kill.c
00000000 l    df *ABS*	00000000 lseek.c
00000000 l    df *ABS*	00000000 read.c
00000000 l    df *ABS*	00000000 sbrk.c
900001c8 l     O .data	00000004 curbrk.0
00000000 l    df *ABS*	00000000 write.c
00000000 l    df *ABS*	00000000 intexc_evalsoc.o
8000069a l       .text	00000000 Undef_Handler
00000000 l    df *ABS*	00000000 evalsoc_uart.c
00000000 l    df *ABS*	00000000 evalsoc_common.c
00000000 l    df *ABS*	00000000 fifo.c
80000a94 l     F .text	00000046 dtof_ram_io_read.constprop.0
80000adc l     F .text	00000002 dtof_fifo_io_read.constprop.0
00000000 l    df *ABS*	00000000 libc_a-nano-vfprintf_float.o
00000000 l    df *ABS*	00000000 libc_a-nano-vfprintf_i.o
00000000 l    df *ABS*	00000000 libc_a-printf.o
00000000 l    df *ABS*	00000000 libc_a-memchr.o
00000000 l    df *ABS*	00000000 libc_a-localeconv.o
00000000 l    df *ABS*	00000000 libc_a-init.o
00000000 l    df *ABS*	00000000 libc_a-sysisatty.o
00000000 l    df *ABS*	00000000 libc_a-strlen.o
00000000 l    df *ABS*	00000000 libc_a-dtoa.o
8000181a l     F .text	00000136 quorem
00000000 l    df *ABS*	00000000 libc_a-malloc.o
00000000 l    df *ABS*	00000000 libc_a-mallocr.o
80002616 l     F .text	00000052 sbrk_aligned
00000000 l    df *ABS*	00000000 libc_a-mlock.o
00000000 l    df *ABS*	00000000 libc_a-mprec.o
90000518 l     O .data	0000000c p05.0
00000000 l    df *ABS*	00000000 libc_a-nano-vfprintf.o
80002fd4 l     F .text	00000028 __sfputc_r
00000000 l    df *ABS*	00000000 libc_a-findfp.o
800032ea l     F .text	0000008c std
80003376 l     F .text	0000001a stdio_exit_handler
80003390 l     F .text	00000044 cleanup_stdio
800033d4 l     F .text	00000032 global_stdio_init.part.0
00000000 l    df *ABS*	00000000 libc_a-fwalk.o
00000000 l    df *ABS*	00000000 libc_a-stdio.o
00000000 l    df *ABS*	00000000 libc_a-wbuf.o
00000000 l    df *ABS*	00000000 libc_a-wsetup.o
00000000 l    df *ABS*	00000000 libc_a-closer.o
00000000 l    df *ABS*	00000000 libc_a-lseekr.o
00000000 l    df *ABS*	00000000 libc_a-readr.o
00000000 l    df *ABS*	00000000 libc_a-sbrkr.o
00000000 l    df *ABS*	00000000 libc_a-writer.o
00000000 l    df *ABS*	00000000 libc_a-lock.o
00000000 l    df *ABS*	00000000 libc_a-memset.o
00000000 l    df *ABS*	00000000 libc_a-memcpy.o
00000000 l    df *ABS*	00000000 libc_a-assert.o
00000000 l    df *ABS*	00000000 libc_a-callocr.o
00000000 l    df *ABS*	00000000 libc_a-freer.o
00000000 l    df *ABS*	00000000 libc_a-mbtowc_r.o
00000000 l    df *ABS*	00000000 libc_a-wctomb_r.o
00000000 l    df *ABS*	00000000 libc_a-fflush.o
00000000 l    df *ABS*	00000000 libc_a-fprintf.o
00000000 l    df *ABS*	00000000 libc_a-makebuf.o
00000000 l    df *ABS*	00000000 libc_a-fstatr.o
00000000 l    df *ABS*	00000000 libc_a-isattyr.o
00000000 l    df *ABS*	00000000 libc_a-abort.o
00000000 l    df *ABS*	00000000 libc_a-signal.o
00000000 l    df *ABS*	00000000 libc_a-signalr.o
00000000 l    df *ABS*	00000000 _udivdi3.o
00000000 l    df *ABS*	00000000 adddf3.o
00000000 l    df *ABS*	00000000 divdf3.o
00000000 l    df *ABS*	00000000 eqdf2.o
00000000 l    df *ABS*	00000000 gedf2.o
00000000 l    df *ABS*	00000000 ledf2.o
00000000 l    df *ABS*	00000000 muldf3.o
00000000 l    df *ABS*	00000000 subdf3.o
00000000 l    df *ABS*	00000000 unorddf2.o
00000000 l    df *ABS*	00000000 fixdfsi.o
00000000 l    df *ABS*	00000000 floatsidf.o
00000000 l    df *ABS*	00000000 floatunsidf.o
00000000 l    df *ABS*	00000000 trunctfdf2.o
00000000 l    df *ABS*	00000000 save-restore.o
00000000 l    df *ABS*	00000000 _clzsi2.o
00000000 l    df *ABS*	00000000 errno.c
80005d18 l       .text	00000000 __init_array_end
80005d18 l       .text	00000000 __preinit_array_end
80005d18 l       .text	00000000 __init_array_start
80005d18 l       .text	00000000 __preinit_array_start
80000d38 g     F .text	000000fe __cvt
80003d90 g     F .text	00000028 _isatty_r
80000344  w    F .text	00000004 _getpid
800036c8 g     F .text	0000002c _lseek_r
80004cf0 g     F .text	0000007a .hidden __eqdf2
00000800 g       *ABS*	00000000 __HEAP_SIZE
80003e30 g     F .text	0000002a _kill_r
80001744 g     F .text	0000002a printf
900009c8 g       .data	00000000 __global_pointer$
80003508 g     F .text	00000036 __sseek
80003412 g     F .text	0000002a __sinit
80003544 g     F .text	00000094 __swbuf_r
900008c0 g       .data	00000000 __tls_base
8000278a g     F .text	00000008 __malloc_unlock
80002792 g     F .text	000000a6 _Balloc
80004d6a g     F .text	000000a8 .hidden __gtdf2
900008cc g     O .bss	00000004 __stdio_exit_handler
80003d66 g     F .text	0000002a _fstat_r
900008c0 g     O .bss	00000004 errno
80005d18 g       .text	00000000 _etext
800006d0 g     F .text	0000003e uart_write
900008c0 g       .data	00000000 __rt_init_start
80005cd0 g     F .text	0000000a .hidden __riscv_restore_2
900008c0 g       .data	00000000 __fsymtab_end
80003822 g     F .text	00000130 memcpy
800059b6 g     F .text	00000066 .hidden __floatsidf
80004e12 g     F .text	000000a8 .hidden __ltdf2
900008c0 g       .data	00000000 __rt_init_end
800002c0 g       *ABS*	00000000 _text_lma
900001cc g     O .data	00000004 SystemCoreClock
8000260a g     F .text	0000000c malloc
80001804 g     F .text	00000004 isatty
80003dc6 g     F .text	0000005e _raise_r
80000328  w    F .text	0000001a _fstat
80003952 g     F .text	0000003c __assert_func
80000810 g     F .text	00000012 get_cpu_freq
90000550 g     O .data	000000c8 __mprec_tens
80000000 g     O .init	00000000 vector_base
80003e5a g     F .text	00000004 _getpid_r
800005c0  w      .text	00000000 exc_entry
8000063c  w      .text	00000000 irq_entry
80001788 g     F .text	0000000a _localeconv_r
800029fa g     F .text	00000036 __i2b
80003720 g     F .text	00000028 _sbrk_r
80000240 g     F .init	00000000 early_exc_entry
80005cc6 g     F .text	0000000a .hidden __riscv_save_1
80005cd0 g     F .text	0000000a .hidden __riscv_restore_0
8000069a  w      .text	00000000 default_intexc_handler
800036f4 g     F .text	0000002c _read_r
800041b2 g     F .text	000005ca .hidden __adddf3
8000034c  w    F .text	00000004 _isatty
80001792 g     F .text	00000072 __libc_init_array
80003e5e g     F .text	00000354 .hidden __udivdi3
90000528 g     O .data	00000028 __mprec_bigtens
80003db8 g     F .text	0000000e abort
80005a1c g     F .text	0000004c .hidden __floatunsidf
80000534  w    F .text	0000002e _sbrk
80002d68 g     F .text	00000036 __mcmp
80000a8c g     F .text	00000002 _init
8000294a g     F .text	00000046 __hi0bits
80005950 g     F .text	00000066 .hidden __fixdfsi
900008d0 g     O .bss	00000001 __lock___malloc_recursive_mutex
90000958 g     O .bss	00000138 __sf
80000284 g     F .init	00000002 __sync_harts
80000958 g     F .text	00000130 _premain_init
80003c50 g     F .text	00000026 fprintf
80004e12 g     F .text	000000a8 .hidden __ledf2
80002bae g     F .text	000000c2 __pow5mult
80000ae0 g     F .text	00000010 MergeIntegerDecimals
80003778 g     F .text	00000002 __retarget_lock_release_recursive
80005cda g     F .text	00000038 .hidden __clzsi2
80002ffc g     F .text	00000036 __sfputs_r
800006a0 g     F .text	0000002c uart_init
80003406 g     F .text	00000006 __sfp_lock_acquire
8000176e g     F .text	0000001a memchr
80000ed2  w    F .text	00000500 _printf_float
00000800 g       *ABS*	00000000 __STACK_SIZE
800039c4 g     F .text	000000a2 _free_r
90010000 g       .stack	00000000 _sp
80000908 g     F .text	0000004e core_exception_handler
80000100 g     F .init	00000000 _start
80000360  w    F .text	00000004 _lseek
80002c70 g     F .text	000000f8 __lshift
00000001 g       *ABS*	00000000 __SMP_CPU_CNT
80002a30 g     F .text	0000017e __multiply
80002f00 g     F .text	000000d4 __d2b
900008d8 g     O .bss	00000014 SystemIRegionInfo
800036a0 g     F .text	00000028 _close_r
800035d8 g     F .text	000000c8 __swsetup_r
8000477c g     F .text	00000574 .hidden __divdf3
80004eba g     F .text	0000048a .hidden __muldf3
80003492 g     F .text	00000030 __sread
800002c0 g       .text	00000000 _text
80002782 g     F .text	00000008 __malloc_lock
800001dc g     F .init	00000000 _start_premain
80003bf0 g     F .text	00000060 _fflush_r
8000398e g     F .text	00000036 _calloc_r
80003776 g     F .text	00000002 __retarget_lock_acquire_recursive
900008c0 g       .data	00000000 __bss_start
8000377a g     F .text	000000a8 memset
800002c0 g     F .text	00000016 main
80003774 g     F .text	00000002 __retarget_lock_init_recursive
80000af0 g     F .text	00000246 jingan_fifo_decode
8000353e g     F .text	00000006 __sclose
80001950 g     F .text	00000cba _dtoa_r
80002668 g     F .text	0000011a _malloc_r
80003a9e g     F .text	00000020 __ascii_wctomb
900008c0 g       .data	00000000 __vsymtab_start
9000f800 g       .stack	00000000 __heap_end
80000850 g     F .text	00000012 SystemInit
80004cf0 g     F .text	0000007a .hidden __nedf2
80000a90 g     F .text	00000002 _fini
80001744 g     F .text	0000002a iprintf
00000800 g       *ABS*	00000000 __TOT_STACK_SIZE
900007bc g     O .data	00000100 .hidden __clz_tab
80000e36 g     F .text	0000009c __exponent
80000824 g     F .text	0000002a simulation_exit
80003748 g     F .text	0000002c _write_r
800013d2 g     F .text	0000010a _printf_common
900001d0 g     O .data	00000004 _impure_ptr
80003abe g     F .text	00000132 __sflush_r
8000343c g     F .text	00000056 _fwalk_sglue
80003a66 g     F .text	00000038 __ascii_mbtowc
90000000 g       .data	00000000 _data
900008c0 g       .data	00000000 __vsymtab_end
90000a90 g       .heap	00000000 __heap_start
8000074e g     F .text	000000c2 measure_cpu_freq
80005cc6 g     F .text	0000000a .hidden __riscv_save_2
80000864 g     F .text	00000056 Exception_DumpFrame
80003c76 g     F .text	00000060 __swhatbuf_r
9000004c g     O .data	0000000c __sglue
80000564  w    F .text	00000056 _write
900008c0 g       .data	00000000 _edata
80000a88 g     F .text	00000002 _postmain_fini
90000a90 g       .bss	00000000 _end
90000000 g       *ABS*	00000000 _data_lma
80000710 g     F .text	0000003e uart_read
800034c2 g     F .text	00000046 __swrite
80003c50 g     F .text	00000026 fiprintf
80003032 g     F .text	000002b8 _vfiprintf_r
80002d9e g     F .text	00000162 __mdiff
80000354  w    F .text	0000000a _kill
90000000 g     O .data	0000004c _impure_data
8000340c g     F .text	00000006 __sfp_lock_release
9000067c g     O .data	00000101 _ctype_
80000368  w    F .text	000001ca _read
8000591c g     F .text	00000034 .hidden __unorddf2
80005cc6 g     F .text	0000000a .hidden __riscv_save_0
800002e4  w    F .text	00000042 _exit
80003cd6 g     F .text	00000090 __smakebuf_r
80001808 g     F .text	00000012 strlen
800014dc g     F .text	00000268 _printf_i
80004d6a g     F .text	000000a8 .hidden __gedf2
900008c4 g     O .bss	00000004 __malloc_sbrk_start
900008c8 g     O .bss	00000004 __malloc_free_list
900008c0 g       .data	00000000 __fsymtab_start
80005cd0 g     F .text	0000000a .hidden __riscv_restore_1
80005344 g     F .text	000005d8 .hidden __subdf3
80003032 g     F .text	000002b8 _vfprintf_r
80002990 g     F .text	0000006a __lo0bits
90000058 g     O .data	0000016c __global_locale
80005a68 g     F .text	0000025e .hidden __trunctfdf2
900008d4 g     O .bss	00000001 __lock___sfp_recursive_mutex
80003e24 g     F .text	0000000c raise
800002d8  w    F .text	0000000a _close
80002896 g     F .text	000000b4 __multadd
80002838 g     F .text	0000005e _Bfree



Disassembly of section .init:

80000000 <vector_base>:
D:\codes\opensource\nuclei_testing\testing2\Debug/../nuclei_sdk/SoC/evalsoc/Common/Source/GCC/startup_evalsoc.S:54
    .type vector_base, @object
    .option push
    .option norelax
vector_base:
#ifndef VECTOR_TABLE_REMAPPED
    j _start                                                /* 0: Reserved, Jump to _start when reset for vector table not remapped cases.*/
80000000:	6f 00 00 10 9a 06 00 80 9a 06 00 80 00 00 00 00     o...............
80000010:	9a 06 00 80 9a 06 00 80 9a 06 00 80 00 00 00 00     ................
80000020:	9a 06 00 80 9a 06 00 80 9a 06 00 80 9a 06 00 80     ................
80000030:	9a 06 00 80 9a 06 00 80 9a 06 00 80 9a 06 00 80     ................
80000040:	00 00 00 00 9a 06 00 80 9a 06 00 80 9a 06 00 80     ................
80000050:	9a 06 00 80 9a 06 00 80 9a 06 00 80 9a 06 00 80     ................
80000060:	9a 06 00 80 9a 06 00 80 9a 06 00 80 9a 06 00 80     ................
80000070:	9a 06 00 80 9a 06 00 80 9a 06 00 80 9a 06 00 80     ................
80000080:	9a 06 00 80 9a 06 00 80 9a 06 00 80 9a 06 00 80     ................
80000090:	9a 06 00 80 9a 06 00 80 9a 06 00 80 9a 06 00 80     ................
800000a0:	9a 06 00 80 9a 06 00 80 9a 06 00 80 9a 06 00 80     ................
800000b0:	9a 06 00 80 9a 06 00 80 9a 06 00 80 9a 06 00 80     ................
800000c0:	9a 06 00 80 9a 06 00 80 9a 06 00 80 00 00 00 00     ................
800000d0:	9a 06 00 80 9a 06 00 80 9a 06 00 80 9a 06 00 80     ................
800000e0:	9a 06 00 80 9a 06 00 80 9a 06 00 80 9a 06 00 80     ................
800000f0:	9a 06 00 80 9a 06 00 80 9a 06 00 80 9a 06 00 80     ................

80000100 <_start>:
_start():
D:\codes\opensource\nuclei_testing\testing2\Debug/../nuclei_sdk/SoC/evalsoc/Common/Source/GCC/startup_evalsoc.S:151
 * Reset Handler called on controller reset
 */
_start:
    /* ===== Startup Stage 1 ===== */
    /* Disable Global Interrupt */
    csrc CSR_MSTATUS, MSTATUS_MIE
80000100:	30047073          	csrc	mstatus,8
D:\codes\opensource\nuclei_testing\testing2\Debug/../nuclei_sdk/SoC/evalsoc/Common/Source/GCC/startup_evalsoc.S:160
     * the core hartid is defined via BOOT_HARTID.
     * other harts if run to here, just do wfi in __amp_wait
     */
#ifndef SMP_CPU_CNT
    /* take bit 0-7 for hart id in a local cluster */
    csrr a0, CSR_MHARTID
80000104:	f1402573          	csrr	a0,mhartid
D:\codes\opensource\nuclei_testing\testing2\Debug/../nuclei_sdk/SoC/evalsoc/Common/Source/GCC/startup_evalsoc.S:161
    andi a0, a0, 0xFF
80000108:	0ff57513          	zext.b	a0,a0
D:\codes\opensource\nuclei_testing\testing2\Debug/../nuclei_sdk/SoC/evalsoc/Common/Source/GCC/startup_evalsoc.S:163
    /* BOOT_HARTID is configurable in Makefile via BOOT_HARTID variable */
    li a1, BOOT_HARTID
8000010c:	4581                	li	a1,0
D:\codes\opensource\nuclei_testing\testing2\Debug/../nuclei_sdk/SoC/evalsoc/Common/Source/GCC/startup_evalsoc.S:164
    bne a0, a1, __amp_wait
8000010e:	10b51263          	bne	a0,a1,80000212 <__amp_wait>
D:\codes\opensource\nuclei_testing\testing2\Debug/../nuclei_sdk/SoC/evalsoc/Common/Source/GCC/startup_evalsoc.S:170
#endif

    /* Initialize GP and TP and jump table base when zcmt enabled */
    .option push
    .option norelax
    la gp, __global_pointer$
80000112:	10001197          	auipc	gp,0x10001
80000116:	8b618193          	add	gp,gp,-1866 # 900009c8 <__global_pointer$>
D:\codes\opensource\nuclei_testing\testing2\Debug/../nuclei_sdk/SoC/evalsoc/Common/Source/GCC/startup_evalsoc.S:171
    la tp, __tls_base
8000011a:	10000217          	auipc	tp,0x10000
8000011e:	7a620213          	add	tp,tp,1958 # 900008c0 <errno>
D:\codes\opensource\nuclei_testing\testing2\Debug/../nuclei_sdk/SoC/evalsoc/Common/Source/GCC/startup_evalsoc.S:196
    addi a1, a1, 1
    j 1b
2:
#else
    /* Set correct sp for current cpu */
    la sp, _sp
80000122:	10010117          	auipc	sp,0x10010
80000126:	ede10113          	add	sp,sp,-290 # 90010000 <_sp>
D:\codes\opensource\nuclei_testing\testing2\Debug/../nuclei_sdk/SoC/evalsoc/Common/Source/GCC/startup_evalsoc.S:204
    /*
     * Set the the NMI base mnvec to share
     * with mtvec by setting CSR_MMISC_CTL
     * bit 9 NMI_CAUSE_FFF to 1
     */
    li t0, MMISC_CTL_NMI_CAUSE_FFF
8000012a:	20000293          	li	t0,512
D:\codes\opensource\nuclei_testing\testing2\Debug/../nuclei_sdk/SoC/evalsoc/Common/Source/GCC/startup_evalsoc.S:205
    csrs CSR_MMISC_CTL, t0
8000012e:	7d02a073          	csrs	mmisc_ctl,t0
D:\codes\opensource\nuclei_testing\testing2\Debug/../nuclei_sdk/SoC/evalsoc/Common/Source/GCC/startup_evalsoc.S:219

    /*
     * Intialize ECLIC vector interrupt
     * base address mtvt to vector_base
     */
    la t0, vector_base
80000132:	00000297          	auipc	t0,0x0
80000136:	ece28293          	add	t0,t0,-306 # 80000000 <vector_base>
D:\codes\opensource\nuclei_testing\testing2\Debug/../nuclei_sdk/SoC/evalsoc/Common/Source/GCC/startup_evalsoc.S:220
    csrw CSR_MTVT, t0
8000013a:	30729073          	csrw	mtvt,t0
D:\codes\opensource\nuclei_testing\testing2\Debug/../nuclei_sdk/SoC/evalsoc/Common/Source/GCC/startup_evalsoc.S:228
     * Set ECLIC non-vector entry to be controlled
     * by mtvt2 CSR register.
     * Intialize ECLIC non-vector interrupt
     * base address mtvt2 to irq_entry.
     */
    la t0, irq_entry
8000013e:	00000297          	auipc	t0,0x0
80000142:	4fe28293          	add	t0,t0,1278 # 8000063c <irq_entry>
D:\codes\opensource\nuclei_testing\testing2\Debug/../nuclei_sdk/SoC/evalsoc/Common/Source/GCC/startup_evalsoc.S:229
    csrw CSR_MTVT2, t0
80000146:	7ec29073          	csrw	mtvt2,t0
D:\codes\opensource\nuclei_testing\testing2\Debug/../nuclei_sdk/SoC/evalsoc/Common/Source/GCC/startup_evalsoc.S:230
    csrs CSR_MTVT2, 0x1
8000014a:	7ec0e073          	csrs	mtvt2,1
D:\codes\opensource\nuclei_testing\testing2\Debug/../nuclei_sdk/SoC/evalsoc/Common/Source/GCC/startup_evalsoc.S:239
     * Due to settings above, Exception and NMI
     * will share common entry.
     * This early_exc_entry is only used during early
     * boot stage before main
     */
    la t0, early_exc_entry
8000014e:	00000297          	auipc	t0,0x0
80000152:	0f228293          	add	t0,t0,242 # 80000240 <early_exc_entry>
D:\codes\opensource\nuclei_testing\testing2\Debug/../nuclei_sdk/SoC/evalsoc/Common/Source/GCC/startup_evalsoc.S:240
    csrw CSR_MTVEC, t0
80000156:	30529073          	csrw	mtvec,t0
D:\codes\opensource\nuclei_testing\testing2\Debug/../nuclei_sdk/SoC/evalsoc/Common/Source/GCC/startup_evalsoc.S:243

    /* Set the interrupt processing mode to ECLIC mode */
    li t0, 0x3f
8000015a:	03f00293          	li	t0,63
D:\codes\opensource\nuclei_testing\testing2\Debug/../nuclei_sdk/SoC/evalsoc/Common/Source/GCC/startup_evalsoc.S:244
    csrc CSR_MTVEC, t0
8000015e:	3052b073          	csrc	mtvec,t0
D:\codes\opensource\nuclei_testing\testing2\Debug/../nuclei_sdk/SoC/evalsoc/Common/Source/GCC/startup_evalsoc.S:245
    csrs CSR_MTVEC, 0x3
80000162:	3051e073          	csrs	mtvec,3
D:\codes\opensource\nuclei_testing\testing2\Debug/../nuclei_sdk/SoC/evalsoc/Common/Source/GCC/startup_evalsoc.S:267
    li t0, MSTATUS_VS_INITIAL
    csrs mstatus, t0
#endif

    /* Enable mcycle and minstret counter */
    csrci CSR_MCOUNTINHIBIT, 0x5
80000166:	3202f073          	csrc	mcountinhibit,5

8000016a <__init_common>:
__init_common():
D:\codes\opensource\nuclei_testing\testing2\Debug/../nuclei_sdk/SoC/evalsoc/Common/Source/GCC/startup_evalsoc.S:281
    /* ===== Startup Stage 3 ===== */
    /*
     * Load text section from CODE ROM to CODE RAM
     * when text LMA is different with VMA
     */
    la a0, _text_lma
8000016a:	00000517          	auipc	a0,0x0
8000016e:	15650513          	add	a0,a0,342 # 800002c0 <main>
D:\codes\opensource\nuclei_testing\testing2\Debug/../nuclei_sdk/SoC/evalsoc/Common/Source/GCC/startup_evalsoc.S:282
    la a1, _text
80000172:	00000597          	auipc	a1,0x0
80000176:	14e58593          	add	a1,a1,334 # 800002c0 <main>
D:\codes\opensource\nuclei_testing\testing2\Debug/../nuclei_sdk/SoC/evalsoc/Common/Source/GCC/startup_evalsoc.S:285
    /* If text LMA and VMA are equal
     * then no need to copy text section */
    beq a0, a1, 2f
8000017a:	02b50063          	beq	a0,a1,8000019a <__init_common+0x30>
D:\codes\opensource\nuclei_testing\testing2\Debug/../nuclei_sdk/SoC/evalsoc/Common/Source/GCC/startup_evalsoc.S:286
    la a2, _etext
8000017e:	00006617          	auipc	a2,0x6
80000182:	b9a60613          	add	a2,a2,-1126 # 80005d18 <_etext>
D:\codes\opensource\nuclei_testing\testing2\Debug/../nuclei_sdk/SoC/evalsoc/Common/Source/GCC/startup_evalsoc.S:287
    bgeu a1, a2, 2f
80000186:	00c5fa63          	bgeu	a1,a2,8000019a <__init_common+0x30>
D:\codes\opensource\nuclei_testing\testing2\Debug/../nuclei_sdk/SoC/evalsoc/Common/Source/GCC/startup_evalsoc.S:291

1:
    /* Load code section if necessary */
    lw t0, (a0)
8000018a:	00052283          	lw	t0,0(a0)
D:\codes\opensource\nuclei_testing\testing2\Debug/../nuclei_sdk/SoC/evalsoc/Common/Source/GCC/startup_evalsoc.S:292
    sw t0, (a1)
8000018e:	0055a023          	sw	t0,0(a1)
D:\codes\opensource\nuclei_testing\testing2\Debug/../nuclei_sdk/SoC/evalsoc/Common/Source/GCC/startup_evalsoc.S:293
    addi a0, a0, 4
80000192:	0511                	add	a0,a0,4
D:\codes\opensource\nuclei_testing\testing2\Debug/../nuclei_sdk/SoC/evalsoc/Common/Source/GCC/startup_evalsoc.S:294
    addi a1, a1, 4
80000194:	0591                	add	a1,a1,4
D:\codes\opensource\nuclei_testing\testing2\Debug/../nuclei_sdk/SoC/evalsoc/Common/Source/GCC/startup_evalsoc.S:295
    bltu a1, a2, 1b
80000196:	fec5eae3          	bltu	a1,a2,8000018a <__init_common+0x20>
D:\codes\opensource\nuclei_testing\testing2\Debug/../nuclei_sdk/SoC/evalsoc/Common/Source/GCC/startup_evalsoc.S:298
2:
    /* Load data section */
    la a0, _data_lma
8000019a:	10000517          	auipc	a0,0x10000
8000019e:	e6650513          	add	a0,a0,-410 # 90000000 <_impure_data>
D:\codes\opensource\nuclei_testing\testing2\Debug/../nuclei_sdk/SoC/evalsoc/Common/Source/GCC/startup_evalsoc.S:299
    la a1, _data
800001a2:	10000597          	auipc	a1,0x10000
800001a6:	e5e58593          	add	a1,a1,-418 # 90000000 <_impure_data>
D:\codes\opensource\nuclei_testing\testing2\Debug/../nuclei_sdk/SoC/evalsoc/Common/Source/GCC/startup_evalsoc.S:301
    /* If data vma=lma, no need to copy */
    beq a0, a1, 2f
800001aa:	00b50e63          	beq	a0,a1,800001c6 <__init_common+0x5c>
D:\codes\opensource\nuclei_testing\testing2\Debug/../nuclei_sdk/SoC/evalsoc/Common/Source/GCC/startup_evalsoc.S:302
    la a2, _edata
800001ae:	ef818613          	add	a2,gp,-264 # 900008c0 <errno>
D:\codes\opensource\nuclei_testing\testing2\Debug/../nuclei_sdk/SoC/evalsoc/Common/Source/GCC/startup_evalsoc.S:303
    bgeu a1, a2, 2f
800001b2:	00c5fa63          	bgeu	a1,a2,800001c6 <__init_common+0x5c>
D:\codes\opensource\nuclei_testing\testing2\Debug/../nuclei_sdk/SoC/evalsoc/Common/Source/GCC/startup_evalsoc.S:305
1:
    lw t0, (a0)
800001b6:	00052283          	lw	t0,0(a0)
D:\codes\opensource\nuclei_testing\testing2\Debug/../nuclei_sdk/SoC/evalsoc/Common/Source/GCC/startup_evalsoc.S:306
    sw t0, (a1)
800001ba:	0055a023          	sw	t0,0(a1)
D:\codes\opensource\nuclei_testing\testing2\Debug/../nuclei_sdk/SoC/evalsoc/Common/Source/GCC/startup_evalsoc.S:307
    addi a0, a0, 4
800001be:	0511                	add	a0,a0,4
D:\codes\opensource\nuclei_testing\testing2\Debug/../nuclei_sdk/SoC/evalsoc/Common/Source/GCC/startup_evalsoc.S:308
    addi a1, a1, 4
800001c0:	0591                	add	a1,a1,4
D:\codes\opensource\nuclei_testing\testing2\Debug/../nuclei_sdk/SoC/evalsoc/Common/Source/GCC/startup_evalsoc.S:309
    bltu a1, a2, 1b
800001c2:	fec5eae3          	bltu	a1,a2,800001b6 <__init_common+0x4c>
D:\codes\opensource\nuclei_testing\testing2\Debug/../nuclei_sdk/SoC/evalsoc/Common/Source/GCC/startup_evalsoc.S:312
2:
    /* Clear bss section */
    la a0, __bss_start
800001c6:	ef818513          	add	a0,gp,-264 # 900008c0 <errno>
D:\codes\opensource\nuclei_testing\testing2\Debug/../nuclei_sdk/SoC/evalsoc/Common/Source/GCC/startup_evalsoc.S:313
    la a1, _end
800001ca:	0c818593          	add	a1,gp,200 # 90000a90 <__heap_start>
D:\codes\opensource\nuclei_testing\testing2\Debug/../nuclei_sdk/SoC/evalsoc/Common/Source/GCC/startup_evalsoc.S:314
    bgeu a0, a1, 2f
800001ce:	00b57763          	bgeu	a0,a1,800001dc <_start_premain>
D:\codes\opensource\nuclei_testing\testing2\Debug/../nuclei_sdk/SoC/evalsoc/Common/Source/GCC/startup_evalsoc.S:316
1:
    sw zero, (a0)
800001d2:	00052023          	sw	zero,0(a0)
D:\codes\opensource\nuclei_testing\testing2\Debug/../nuclei_sdk/SoC/evalsoc/Common/Source/GCC/startup_evalsoc.S:317
    addi a0, a0, 4
800001d6:	0511                	add	a0,a0,4
D:\codes\opensource\nuclei_testing\testing2\Debug/../nuclei_sdk/SoC/evalsoc/Common/Source/GCC/startup_evalsoc.S:318
    bltu a0, a1, 1b
800001d8:	feb56de3          	bltu	a0,a1,800001d2 <__init_common+0x68>

800001dc <_start_premain>:
_start_premain():
D:\codes\opensource\nuclei_testing\testing2\Debug/../nuclei_sdk/SoC/evalsoc/Common/Source/GCC/startup_evalsoc.S:329
    /*
     * Call vendor defined SystemInit to
     * initialize the micro-controller system
     * SystemInit will just be called by boot cpu
     */
    call SystemInit
800001dc:	674000ef          	jal	80000850 <SystemInit>
D:\codes\opensource\nuclei_testing\testing2\Debug/../nuclei_sdk/SoC/evalsoc/Common/Source/GCC/startup_evalsoc.S:338
     * __libc_fini is defined in linker script,
     * so register_fini function will be called
     * and will run atexit (__libc_fini_array)
     * to do previous call atexit function
     */
    call __libc_init_array
800001e0:	5b2010ef          	jal	80001792 <__libc_init_array>

800001e4 <__skip_init>:
__skip_init():
D:\codes\opensource\nuclei_testing\testing2\Debug/../nuclei_sdk/SoC/evalsoc/Common/Source/GCC/startup_evalsoc.S:342

__skip_init:
    /* Sync all harts at this function */
    call __sync_harts
800001e4:	2045                	jal	80000284 <__sync_harts>
D:\codes\opensource\nuclei_testing\testing2\Debug/../nuclei_sdk/SoC/evalsoc/Common/Source/GCC/startup_evalsoc.S:349
    /* do pre-init steps before main */
    /* _premain_init will be called by each cpu
     * please make sure the implementation of __premain_int
     * considered this
     */
    call _premain_init
800001e6:	772000ef          	jal	80000958 <_premain_init>
D:\codes\opensource\nuclei_testing\testing2\Debug/../nuclei_sdk/SoC/evalsoc/Common/Source/GCC/startup_evalsoc.S:358
     * set exception entry to correct exception
     * entry and jump to main.
     * And set the interrupt processing mode to
     * ECLIC mode
     */
    la t0, exc_entry
800001ea:	00000297          	auipc	t0,0x0
800001ee:	3d628293          	add	t0,t0,982 # 800005c0 <exc_entry>
D:\codes\opensource\nuclei_testing\testing2\Debug/../nuclei_sdk/SoC/evalsoc/Common/Source/GCC/startup_evalsoc.S:359
    csrw CSR_MTVEC, t0
800001f2:	30529073          	csrw	mtvec,t0
D:\codes\opensource\nuclei_testing\testing2\Debug/../nuclei_sdk/SoC/evalsoc/Common/Source/GCC/startup_evalsoc.S:360
    li t0, 0x3f
800001f6:	03f00293          	li	t0,63
D:\codes\opensource\nuclei_testing\testing2\Debug/../nuclei_sdk/SoC/evalsoc/Common/Source/GCC/startup_evalsoc.S:361
    csrc CSR_MTVEC, t0
800001fa:	3052b073          	csrc	mtvec,t0
D:\codes\opensource\nuclei_testing\testing2\Debug/../nuclei_sdk/SoC/evalsoc/Common/Source/GCC/startup_evalsoc.S:362
    csrs CSR_MTVEC, 0x3
800001fe:	3051e073          	csrs	mtvec,3
D:\codes\opensource\nuclei_testing\testing2\Debug/../nuclei_sdk/SoC/evalsoc/Common/Source/GCC/startup_evalsoc.S:365

    /* BPU cold bringup need time, so enable BPU before enter to main */
    li t0, MMISC_CTL_BPU
80000202:	42a1                	li	t0,8
D:\codes\opensource\nuclei_testing\testing2\Debug/../nuclei_sdk/SoC/evalsoc/Common/Source/GCC/startup_evalsoc.S:366
    csrs CSR_MMISC_CTL, t0
80000204:	7d02a073          	csrs	mmisc_ctl,t0
D:\codes\opensource\nuclei_testing\testing2\Debug/../nuclei_sdk/SoC/evalsoc/Common/Source/GCC/startup_evalsoc.S:370

    /* ===== Call SMP Main Function  ===== */
    /* argc = argv = 0 */
    li a0, 0
80000208:	4501                	li	a0,0
D:\codes\opensource\nuclei_testing\testing2\Debug/../nuclei_sdk/SoC/evalsoc/Common/Source/GCC/startup_evalsoc.S:371
    li a1, 0
8000020a:	4581                	li	a1,0
D:\codes\opensource\nuclei_testing\testing2\Debug/../nuclei_sdk/SoC/evalsoc/Common/Source/GCC/startup_evalsoc.S:380
#else
#ifdef RTOS_RTTHREAD
    // Call entry function when using RT-Thread
    call entry
#else
    call main
8000020c:	2855                	jal	800002c0 <main>
D:\codes\opensource\nuclei_testing\testing2\Debug/../nuclei_sdk/SoC/evalsoc/Common/Source/GCC/startup_evalsoc.S:385
#endif
#endif
    /* do post-main steps after main
     * this function will be called by each cpu */
    call _postmain_fini
8000020e:	07b000ef          	jal	80000a88 <_postmain_fini>

80000212 <__amp_wait>:
__amp_wait():
D:\codes\opensource\nuclei_testing\testing2\Debug/../nuclei_sdk/SoC/evalsoc/Common/Source/GCC/startup_evalsoc.S:389

__amp_wait:
1:
    wfi
80000212:	10500073          	wfi
D:\codes\opensource\nuclei_testing\testing2\Debug/../nuclei_sdk/SoC/evalsoc/Common/Source/GCC/startup_evalsoc.S:390
    j 1b
80000216:	bff5                	j	80000212 <__amp_wait>
80000218:	00000013          	nop
8000021c:	00000013          	nop
80000220:	00000013          	nop
80000224:	00000013          	nop
80000228:	00000013          	nop
8000022c:	00000013          	nop
80000230:	00000013          	nop
80000234:	00000013          	nop
80000238:	00000013          	nop
8000023c:	00000013          	nop

80000240 <early_exc_entry>:
early_exc_entry():
D:\codes\opensource\nuclei_testing\testing2\Debug/../nuclei_sdk/SoC/evalsoc/Common/Source/GCC/startup_evalsoc.S:426
/* Early boot exception entry before main */
.align 6
.global early_exc_entry
.type early_exc_entry, @function
early_exc_entry:
    wfi
80000240:	10500073          	wfi
D:\codes\opensource\nuclei_testing\testing2\Debug/../nuclei_sdk/SoC/evalsoc/Common/Source/GCC/startup_evalsoc.S:427
    j early_exc_entry
80000244:	bff5                	j	80000240 <early_exc_entry>
	...

80000284 <__sync_harts>:
__sync_harts():
D:\codes\opensource\nuclei_testing\testing2\Debug/../nuclei_sdk/SoC/evalsoc/Common/Source/system_evalsoc.c:736
        __SMP_RWMB();
        // wait for pending bit cleared by boot hart
        while (CLINT_MSIP(clint_base, tmr_hartid) == 1);
    }
#endif
}
80000284:	8082                	ret
	...

Disassembly of section .text:

800002c0 <main>:
main():
D:\codes\opensource\nuclei_testing\testing2\Debug/../application/core_main.c:31
{
    int argc = 0;
    char* argv[1];
#else
MAIN_RETURN_TYPE main(int argc, char* argv[])
{
800002c0:	207052ef          	jal	t0,80005cc6 <__riscv_save_0>
800002c4:	7119                	add	sp,sp,-128
D:\codes\opensource\nuclei_testing\testing2\Debug/../application/core_main.c:34
#endif
	dsh_output_fifo_t fifo_info;
	jingan_fifo_decode(&fifo_info);
800002c6:	850a                	mv	a0,sp
800002c8:	029000ef          	jal	80000af0 <jingan_fifo_decode>
D:\codes\opensource\nuclei_testing\testing2\Debug/../application/core_main.c:37

    return fifo_info.frameid;
}
800002cc:	00015503          	lhu	a0,0(sp)
800002d0:	6109                	add	sp,sp,128
800002d2:	1ff0506f          	j	80005cd0 <__riscv_restore_0>
	...

800002d8 <_close>:
_close():
D:\codes\opensource\nuclei_testing\testing2\Debug/../nuclei_sdk/SoC/evalsoc/Common/Source/Stubs/newlib/close.c:10
#undef errno
extern int errno;

__WEAK int _close(int fd)
{
    errno = EBADF;
800002d8:	4725                	li	a4,9
800002da:	eee1ac23          	sw	a4,-264(gp) # 900008c0 <errno>
D:\codes\opensource\nuclei_testing\testing2\Debug/../nuclei_sdk/SoC/evalsoc/Common/Source/Stubs/newlib/close.c:12
    return -1;
}
800002de:	557d                	li	a0,-1
800002e0:	8082                	ret
	...

800002e4 <_exit>:
__WFI():
D:\codes\opensource\nuclei_testing\testing2\nuclei_sdk\NMSIS\Core\Include/core_feature_base.h:838
 * 1. mstatus.MIE == 1(interrupt enabled), Core will enter ISR code
 * 2. mstatus.MIE == 0(interrupt disabled), Core will resume previous execution
 */
__STATIC_FORCEINLINE void __WFI(void)
{
    __RV_CSR_CLEAR(CSR_WFE, WFE_WFE);
800002e4:	8100f073          	csrc	wfe,1
D:\codes\opensource\nuclei_testing\testing2\nuclei_sdk\NMSIS\Core\Include/core_feature_base.h:839
    __ASM volatile("wfi");
800002e8:	10500073          	wfi
D:\codes\opensource\nuclei_testing\testing2\nuclei_sdk\NMSIS\Core\Include/core_feature_base.h:838
    __RV_CSR_CLEAR(CSR_WFE, WFE_WFE);
800002ec:	8100f073          	csrc	wfe,1
D:\codes\opensource\nuclei_testing\testing2\nuclei_sdk\NMSIS\Core\Include/core_feature_base.h:839
    __ASM volatile("wfi");
800002f0:	10500073          	wfi
D:\codes\opensource\nuclei_testing\testing2\nuclei_sdk\NMSIS\Core\Include/core_feature_base.h:838
    __RV_CSR_CLEAR(CSR_WFE, WFE_WFE);
800002f4:	8100f073          	csrc	wfe,1
D:\codes\opensource\nuclei_testing\testing2\nuclei_sdk\NMSIS\Core\Include/core_feature_base.h:839
    __ASM volatile("wfi");
800002f8:	10500073          	wfi
D:\codes\opensource\nuclei_testing\testing2\nuclei_sdk\NMSIS\Core\Include/core_feature_base.h:838
    __RV_CSR_CLEAR(CSR_WFE, WFE_WFE);
800002fc:	8100f073          	csrc	wfe,1
D:\codes\opensource\nuclei_testing\testing2\nuclei_sdk\NMSIS\Core\Include/core_feature_base.h:839
    __ASM volatile("wfi");
80000300:	10500073          	wfi
D:\codes\opensource\nuclei_testing\testing2\nuclei_sdk\NMSIS\Core\Include/core_feature_base.h:838
    __RV_CSR_CLEAR(CSR_WFE, WFE_WFE);
80000304:	8100f073          	csrc	wfe,1
D:\codes\opensource\nuclei_testing\testing2\nuclei_sdk\NMSIS\Core\Include/core_feature_base.h:839
    __ASM volatile("wfi");
80000308:	10500073          	wfi
D:\codes\opensource\nuclei_testing\testing2\nuclei_sdk\NMSIS\Core\Include/core_feature_base.h:838
    __RV_CSR_CLEAR(CSR_WFE, WFE_WFE);
8000030c:	8100f073          	csrc	wfe,1
D:\codes\opensource\nuclei_testing\testing2\nuclei_sdk\NMSIS\Core\Include/core_feature_base.h:839
    __ASM volatile("wfi");
80000310:	10500073          	wfi
D:\codes\opensource\nuclei_testing\testing2\nuclei_sdk\NMSIS\Core\Include/core_feature_base.h:838
    __RV_CSR_CLEAR(CSR_WFE, WFE_WFE);
80000314:	8100f073          	csrc	wfe,1
D:\codes\opensource\nuclei_testing\testing2\nuclei_sdk\NMSIS\Core\Include/core_feature_base.h:839
    __ASM volatile("wfi");
80000318:	10500073          	wfi
D:\codes\opensource\nuclei_testing\testing2\nuclei_sdk\NMSIS\Core\Include/core_feature_base.h:838
    __RV_CSR_CLEAR(CSR_WFE, WFE_WFE);
8000031c:	8100f073          	csrc	wfe,1
D:\codes\opensource\nuclei_testing\testing2\nuclei_sdk\NMSIS\Core\Include/core_feature_base.h:839
    __ASM volatile("wfi");
80000320:	10500073          	wfi
80000324:	b7c1                	j	800002e4 <_exit>
	...

80000328 <_fstat>:
_fstat():
D:\codes\opensource\nuclei_testing\testing2\Debug/../nuclei_sdk/SoC/evalsoc/Common/Source/Stubs/newlib/fstat.c:12
#undef errno
extern int errno;

__WEAK int _fstat(int file, struct stat* st)
{
    if ((STDOUT_FILENO == file) || (STDERR_FILENO == file)) {
80000328:	157d                	add	a0,a0,-1
8000032a:	4785                	li	a5,1
8000032c:	00a7e663          	bltu	a5,a0,80000338 <_fstat+0x10>
D:\codes\opensource\nuclei_testing\testing2\Debug/../nuclei_sdk/SoC/evalsoc/Common/Source/Stubs/newlib/fstat.c:13
        st->st_mode = S_IFCHR;
80000330:	6789                	lui	a5,0x2
D:\codes\opensource\nuclei_testing\testing2\Debug/../nuclei_sdk/SoC/evalsoc/Common/Source/Stubs/newlib/fstat.c:14
        return 0;
80000332:	4501                	li	a0,0
D:\codes\opensource\nuclei_testing\testing2\Debug/../nuclei_sdk/SoC/evalsoc/Common/Source/Stubs/newlib/fstat.c:13
        st->st_mode = S_IFCHR;
80000334:	c1dc                	sw	a5,4(a1)
D:\codes\opensource\nuclei_testing\testing2\Debug/../nuclei_sdk/SoC/evalsoc/Common/Source/Stubs/newlib/fstat.c:14
        return 0;
80000336:	8082                	ret
D:\codes\opensource\nuclei_testing\testing2\Debug/../nuclei_sdk/SoC/evalsoc/Common/Source/Stubs/newlib/fstat.c:16
    } else {
        errno = EBADF;
80000338:	4725                	li	a4,9
D:\codes\opensource\nuclei_testing\testing2\Debug/../nuclei_sdk/SoC/evalsoc/Common/Source/Stubs/newlib/fstat.c:17
        return -1;
8000033a:	557d                	li	a0,-1
D:\codes\opensource\nuclei_testing\testing2\Debug/../nuclei_sdk/SoC/evalsoc/Common/Source/Stubs/newlib/fstat.c:16
        errno = EBADF;
8000033c:	eee1ac23          	sw	a4,-264(gp) # 900008c0 <errno>
D:\codes\opensource\nuclei_testing\testing2\Debug/../nuclei_sdk/SoC/evalsoc/Common/Source/Stubs/newlib/fstat.c:19
    }
}
80000340:	8082                	ret
	...

80000344 <_getpid>:
_getpid():
D:\codes\opensource\nuclei_testing\testing2\Debug/../nuclei_sdk/SoC/evalsoc/Common/Source/Stubs/newlib/getpid.c:8
#include <errno.h>

__WEAK int _getpid(void)
{
    return 1;
}
80000344:	4505                	li	a0,1
80000346:	8082                	ret
80000348:	0000                	unimp
	...

8000034c <_isatty>:
_isatty():
D:\codes\opensource\nuclei_testing\testing2\Debug/../nuclei_sdk/SoC/evalsoc/Common/Source/Stubs/newlib/isatty.c:8
#include <unistd.h>

__WEAK int _isatty(int fd)
{
    return 1;
}
8000034c:	4505                	li	a0,1
8000034e:	8082                	ret
80000350:	0000                	unimp
	...

80000354 <_kill>:
_kill():
D:\codes\opensource\nuclei_testing\testing2\Debug/../nuclei_sdk/SoC/evalsoc/Common/Source/Stubs/newlib/kill.c:9
#undef errno
extern int errno;

__WEAK int _kill(int pid, int sig)
{
    errno = EINVAL;
80000354:	4759                	li	a4,22
80000356:	eee1ac23          	sw	a4,-264(gp) # 900008c0 <errno>
D:\codes\opensource\nuclei_testing\testing2\Debug/../nuclei_sdk/SoC/evalsoc/Common/Source/Stubs/newlib/kill.c:11
    return -1;
}
8000035a:	557d                	li	a0,-1
8000035c:	8082                	ret
	...

80000360 <_lseek>:
_lseek():
D:\codes\opensource\nuclei_testing\testing2\Debug/../nuclei_sdk/SoC/evalsoc/Common/Source/Stubs/newlib/lseek.c:11
extern int errno;

__WEAK int _lseek(int file, int offset, int whence)
{
    return 0;
}
80000360:	4501                	li	a0,0
80000362:	8082                	ret
80000364:	0000                	unimp
	...

80000368 <_read>:
_read():
D:\codes\opensource\nuclei_testing\testing2\Debug/../nuclei_sdk/SoC/evalsoc/Common/Source/Stubs/newlib/read.c:24
#endif
    return dat;
}

__WEAK ssize_t _read(int fd, void* ptr, size_t len)
{
80000368:	15f052ef          	jal	t0,80005cc6 <__riscv_save_0>
8000036c:	1161                	add	sp,sp,-8
8000036e:	c232                	sw	a2,4(sp)
D:\codes\opensource\nuclei_testing\testing2\Debug/../nuclei_sdk/SoC/evalsoc/Common/Source/Stubs/newlib/read.c:25
    if (fd != STDIN_FILENO) {
80000370:	1a051f63          	bnez	a0,8000052e <_read+0x1c6>
D:\codes\opensource\nuclei_testing\testing2\Debug/../nuclei_sdk/SoC/evalsoc/Common/Source/Stubs/newlib/read.c:30 (discriminator 1)
        return -1;
    }
    ssize_t cnt = 0;
    uint8_t* readbuf = (uint8_t*)ptr;
    for (cnt = 0; cnt < len; cnt ++) {
80000374:	1a060b63          	beqz	a2,8000052a <_read+0x1c2>
80000378:	00767713          	and	a4,a2,7
8000037c:	842e                	mv	s0,a1
D:\codes\opensource\nuclei_testing\testing2\Debug/../nuclei_sdk/SoC/evalsoc/Common/Source/Stubs/newlib/read.c:30
8000037e:	4481                	li	s1,0
80000380:	cb45                	beqz	a4,80000430 <_read+0xc8>
80000382:	4685                	li	a3,1
80000384:	08d70863          	beq	a4,a3,80000414 <_read+0xac>
80000388:	4689                	li	a3,2
8000038a:	06d70a63          	beq	a4,a3,800003fe <_read+0x96>
8000038e:	468d                	li	a3,3
80000390:	04d70c63          	beq	a4,a3,800003e8 <_read+0x80>
80000394:	4691                	li	a3,4
80000396:	02d70e63          	beq	a4,a3,800003d2 <_read+0x6a>
8000039a:	4695                	li	a3,5
8000039c:	02d70063          	beq	a4,a3,800003bc <_read+0x54>
800003a0:	4699                	li	a3,6
800003a2:	16d71a63          	bne	a4,a3,80000516 <_read+0x1ae>
getchar():
D:\codes\opensource\nuclei_testing\testing2\Debug/../nuclei_sdk/SoC/evalsoc/Common/Source/Stubs/newlib/read.c:16
    dat = (int)uart_read(SOC_DEBUG_UART);
800003a6:	10013537          	lui	a0,0x10013
800003aa:	269d                	jal	80000710 <uart_read>
_read():
D:\codes\opensource\nuclei_testing\testing2\Debug/../nuclei_sdk/SoC/evalsoc/Common/Source/Stubs/newlib/read.c:31 (discriminator 1)
        readbuf[cnt] = getchar();
800003ac:	00940733          	add	a4,s0,s1
800003b0:	00a70023          	sb	a0,0(a4)
D:\codes\opensource\nuclei_testing\testing2\Debug/../nuclei_sdk/SoC/evalsoc/Common/Source/Stubs/newlib/read.c:33
        /* Return partial buffer if we get EOL */
        if (readbuf[cnt] == '\n') {
800003b4:	4729                	li	a4,10
800003b6:	14e50c63          	beq	a0,a4,8000050e <_read+0x1a6>
D:\codes\opensource\nuclei_testing\testing2\Debug/../nuclei_sdk/SoC/evalsoc/Common/Source/Stubs/newlib/read.c:30 (discriminator 2)
    for (cnt = 0; cnt < len; cnt ++) {
800003ba:	0485                	add	s1,s1,1
getchar():
D:\codes\opensource\nuclei_testing\testing2\Debug/../nuclei_sdk/SoC/evalsoc/Common/Source/Stubs/newlib/read.c:16
    dat = (int)uart_read(SOC_DEBUG_UART);
800003bc:	10013537          	lui	a0,0x10013
800003c0:	2e81                	jal	80000710 <uart_read>
_read():
D:\codes\opensource\nuclei_testing\testing2\Debug/../nuclei_sdk/SoC/evalsoc/Common/Source/Stubs/newlib/read.c:31 (discriminator 1)
        readbuf[cnt] = getchar();
800003c2:	00940733          	add	a4,s0,s1
800003c6:	00a70023          	sb	a0,0(a4)
D:\codes\opensource\nuclei_testing\testing2\Debug/../nuclei_sdk/SoC/evalsoc/Common/Source/Stubs/newlib/read.c:33
        if (readbuf[cnt] == '\n') {
800003ca:	4729                	li	a4,10
800003cc:	14e50163          	beq	a0,a4,8000050e <_read+0x1a6>
D:\codes\opensource\nuclei_testing\testing2\Debug/../nuclei_sdk/SoC/evalsoc/Common/Source/Stubs/newlib/read.c:30 (discriminator 2)
    for (cnt = 0; cnt < len; cnt ++) {
800003d0:	0485                	add	s1,s1,1
getchar():
D:\codes\opensource\nuclei_testing\testing2\Debug/../nuclei_sdk/SoC/evalsoc/Common/Source/Stubs/newlib/read.c:16
    dat = (int)uart_read(SOC_DEBUG_UART);
800003d2:	10013537          	lui	a0,0x10013
800003d6:	2e2d                	jal	80000710 <uart_read>
_read():
D:\codes\opensource\nuclei_testing\testing2\Debug/../nuclei_sdk/SoC/evalsoc/Common/Source/Stubs/newlib/read.c:31 (discriminator 1)
        readbuf[cnt] = getchar();
800003d8:	00940733          	add	a4,s0,s1
800003dc:	00a70023          	sb	a0,0(a4)
D:\codes\opensource\nuclei_testing\testing2\Debug/../nuclei_sdk/SoC/evalsoc/Common/Source/Stubs/newlib/read.c:33
        if (readbuf[cnt] == '\n') {
800003e0:	4729                	li	a4,10
800003e2:	12e50663          	beq	a0,a4,8000050e <_read+0x1a6>
D:\codes\opensource\nuclei_testing\testing2\Debug/../nuclei_sdk/SoC/evalsoc/Common/Source/Stubs/newlib/read.c:30 (discriminator 2)
    for (cnt = 0; cnt < len; cnt ++) {
800003e6:	0485                	add	s1,s1,1
getchar():
D:\codes\opensource\nuclei_testing\testing2\Debug/../nuclei_sdk/SoC/evalsoc/Common/Source/Stubs/newlib/read.c:16
    dat = (int)uart_read(SOC_DEBUG_UART);
800003e8:	10013537          	lui	a0,0x10013
800003ec:	2615                	jal	80000710 <uart_read>
_read():
D:\codes\opensource\nuclei_testing\testing2\Debug/../nuclei_sdk/SoC/evalsoc/Common/Source/Stubs/newlib/read.c:31 (discriminator 1)
        readbuf[cnt] = getchar();
800003ee:	00940733          	add	a4,s0,s1
800003f2:	00a70023          	sb	a0,0(a4)
D:\codes\opensource\nuclei_testing\testing2\Debug/../nuclei_sdk/SoC/evalsoc/Common/Source/Stubs/newlib/read.c:33
        if (readbuf[cnt] == '\n') {
800003f6:	4729                	li	a4,10
800003f8:	10e50b63          	beq	a0,a4,8000050e <_read+0x1a6>
D:\codes\opensource\nuclei_testing\testing2\Debug/../nuclei_sdk/SoC/evalsoc/Common/Source/Stubs/newlib/read.c:30 (discriminator 2)
    for (cnt = 0; cnt < len; cnt ++) {
800003fc:	0485                	add	s1,s1,1
getchar():
D:\codes\opensource\nuclei_testing\testing2\Debug/../nuclei_sdk/SoC/evalsoc/Common/Source/Stubs/newlib/read.c:16
    dat = (int)uart_read(SOC_DEBUG_UART);
800003fe:	10013537          	lui	a0,0x10013
80000402:	2639                	jal	80000710 <uart_read>
_read():
D:\codes\opensource\nuclei_testing\testing2\Debug/../nuclei_sdk/SoC/evalsoc/Common/Source/Stubs/newlib/read.c:31 (discriminator 1)
        readbuf[cnt] = getchar();
80000404:	00940733          	add	a4,s0,s1
80000408:	00a70023          	sb	a0,0(a4)
D:\codes\opensource\nuclei_testing\testing2\Debug/../nuclei_sdk/SoC/evalsoc/Common/Source/Stubs/newlib/read.c:33
        if (readbuf[cnt] == '\n') {
8000040c:	4729                	li	a4,10
8000040e:	10e50063          	beq	a0,a4,8000050e <_read+0x1a6>
D:\codes\opensource\nuclei_testing\testing2\Debug/../nuclei_sdk/SoC/evalsoc/Common/Source/Stubs/newlib/read.c:30 (discriminator 2)
    for (cnt = 0; cnt < len; cnt ++) {
80000412:	0485                	add	s1,s1,1
getchar():
D:\codes\opensource\nuclei_testing\testing2\Debug/../nuclei_sdk/SoC/evalsoc/Common/Source/Stubs/newlib/read.c:16
    dat = (int)uart_read(SOC_DEBUG_UART);
80000414:	10013537          	lui	a0,0x10013
80000418:	2ce5                	jal	80000710 <uart_read>
_read():
D:\codes\opensource\nuclei_testing\testing2\Debug/../nuclei_sdk/SoC/evalsoc/Common/Source/Stubs/newlib/read.c:31 (discriminator 1)
        readbuf[cnt] = getchar();
8000041a:	00940733          	add	a4,s0,s1
8000041e:	00a70023          	sb	a0,0(a4)
D:\codes\opensource\nuclei_testing\testing2\Debug/../nuclei_sdk/SoC/evalsoc/Common/Source/Stubs/newlib/read.c:33
        if (readbuf[cnt] == '\n') {
80000422:	4729                	li	a4,10
80000424:	0ee50563          	beq	a0,a4,8000050e <_read+0x1a6>
D:\codes\opensource\nuclei_testing\testing2\Debug/../nuclei_sdk/SoC/evalsoc/Common/Source/Stubs/newlib/read.c:30 (discriminator 2)
    for (cnt = 0; cnt < len; cnt ++) {
80000428:	0485                	add	s1,s1,1
D:\codes\opensource\nuclei_testing\testing2\Debug/../nuclei_sdk/SoC/evalsoc/Common/Source/Stubs/newlib/read.c:30 (discriminator 1)
8000042a:	4792                	lw	a5,4(sp)
8000042c:	0ef48163          	beq	s1,a5,8000050e <_read+0x1a6>
getchar():
D:\codes\opensource\nuclei_testing\testing2\Debug/../nuclei_sdk/SoC/evalsoc/Common/Source/Stubs/newlib/read.c:16
    dat = (int)uart_read(SOC_DEBUG_UART);
80000430:	10013537          	lui	a0,0x10013
80000434:	2cf1                	jal	80000710 <uart_read>
80000436:	872a                	mv	a4,a0
_read():
D:\codes\opensource\nuclei_testing\testing2\Debug/../nuclei_sdk/SoC/evalsoc/Common/Source/Stubs/newlib/read.c:31 (discriminator 1)
        readbuf[cnt] = getchar();
80000438:	009406b3          	add	a3,s0,s1
8000043c:	00e68023          	sb	a4,0(a3)
D:\codes\opensource\nuclei_testing\testing2\Debug/../nuclei_sdk/SoC/evalsoc/Common/Source/Stubs/newlib/read.c:33
        if (readbuf[cnt] == '\n') {
80000440:	47a9                	li	a5,10
getchar():
D:\codes\opensource\nuclei_testing\testing2\Debug/../nuclei_sdk/SoC/evalsoc/Common/Source/Stubs/newlib/read.c:16
    dat = (int)uart_read(SOC_DEBUG_UART);
80000442:	10013537          	lui	a0,0x10013
_read():
D:\codes\opensource\nuclei_testing\testing2\Debug/../nuclei_sdk/SoC/evalsoc/Common/Source/Stubs/newlib/read.c:33
        if (readbuf[cnt] == '\n') {
80000446:	0cf70463          	beq	a4,a5,8000050e <_read+0x1a6>
D:\codes\opensource\nuclei_testing\testing2\Debug/../nuclei_sdk/SoC/evalsoc/Common/Source/Stubs/newlib/read.c:30 (discriminator 2)
    for (cnt = 0; cnt < len; cnt ++) {
8000044a:	0485                	add	s1,s1,1
8000044c:	c026                	sw	s1,0(sp)
getchar():
D:\codes\opensource\nuclei_testing\testing2\Debug/../nuclei_sdk/SoC/evalsoc/Common/Source/Stubs/newlib/read.c:16
    dat = (int)uart_read(SOC_DEBUG_UART);
8000044e:	24c9                	jal	80000710 <uart_read>
80000450:	872a                	mv	a4,a0
_read():
D:\codes\opensource\nuclei_testing\testing2\Debug/../nuclei_sdk/SoC/evalsoc/Common/Source/Stubs/newlib/read.c:31 (discriminator 1)
        readbuf[cnt] = getchar();
80000452:	009406b3          	add	a3,s0,s1
80000456:	00e68023          	sb	a4,0(a3)
D:\codes\opensource\nuclei_testing\testing2\Debug/../nuclei_sdk/SoC/evalsoc/Common/Source/Stubs/newlib/read.c:33
        if (readbuf[cnt] == '\n') {
8000045a:	47a9                	li	a5,10
getchar():
D:\codes\opensource\nuclei_testing\testing2\Debug/../nuclei_sdk/SoC/evalsoc/Common/Source/Stubs/newlib/read.c:16
    dat = (int)uart_read(SOC_DEBUG_UART);
8000045c:	10013537          	lui	a0,0x10013
_read():
D:\codes\opensource\nuclei_testing\testing2\Debug/../nuclei_sdk/SoC/evalsoc/Common/Source/Stubs/newlib/read.c:33
        if (readbuf[cnt] == '\n') {
80000460:	0af70763          	beq	a4,a5,8000050e <_read+0x1a6>
getchar():
D:\codes\opensource\nuclei_testing\testing2\Debug/../nuclei_sdk/SoC/evalsoc/Common/Source/Stubs/newlib/read.c:16
    dat = (int)uart_read(SOC_DEBUG_UART);
80000464:	2475                	jal	80000710 <uart_read>
_read():
D:\codes\opensource\nuclei_testing\testing2\Debug/../nuclei_sdk/SoC/evalsoc/Common/Source/Stubs/newlib/read.c:30 (discriminator 2)
    for (cnt = 0; cnt < len; cnt ++) {
80000466:	0485                	add	s1,s1,1
getchar():
D:\codes\opensource\nuclei_testing\testing2\Debug/../nuclei_sdk/SoC/evalsoc/Common/Source/Stubs/newlib/read.c:16
    dat = (int)uart_read(SOC_DEBUG_UART);
80000468:	872a                	mv	a4,a0
_read():
D:\codes\opensource\nuclei_testing\testing2\Debug/../nuclei_sdk/SoC/evalsoc/Common/Source/Stubs/newlib/read.c:31 (discriminator 1)
        readbuf[cnt] = getchar();
8000046a:	009406b3          	add	a3,s0,s1
8000046e:	00e68023          	sb	a4,0(a3)
D:\codes\opensource\nuclei_testing\testing2\Debug/../nuclei_sdk/SoC/evalsoc/Common/Source/Stubs/newlib/read.c:33
        if (readbuf[cnt] == '\n') {
80000472:	47a9                	li	a5,10
getchar():
D:\codes\opensource\nuclei_testing\testing2\Debug/../nuclei_sdk/SoC/evalsoc/Common/Source/Stubs/newlib/read.c:16
    dat = (int)uart_read(SOC_DEBUG_UART);
80000474:	10013537          	lui	a0,0x10013
_read():
D:\codes\opensource\nuclei_testing\testing2\Debug/../nuclei_sdk/SoC/evalsoc/Common/Source/Stubs/newlib/read.c:33
        if (readbuf[cnt] == '\n') {
80000478:	08f70b63          	beq	a4,a5,8000050e <_read+0x1a6>
D:\codes\opensource\nuclei_testing\testing2\Debug/../nuclei_sdk/SoC/evalsoc/Common/Source/Stubs/newlib/read.c:30 (discriminator 2)
    for (cnt = 0; cnt < len; cnt ++) {
8000047c:	4702                	lw	a4,0(sp)
8000047e:	00270493          	add	s1,a4,2
getchar():
D:\codes\opensource\nuclei_testing\testing2\Debug/../nuclei_sdk/SoC/evalsoc/Common/Source/Stubs/newlib/read.c:16
    dat = (int)uart_read(SOC_DEBUG_UART);
80000482:	2479                	jal	80000710 <uart_read>
80000484:	872a                	mv	a4,a0
_read():
D:\codes\opensource\nuclei_testing\testing2\Debug/../nuclei_sdk/SoC/evalsoc/Common/Source/Stubs/newlib/read.c:31 (discriminator 1)
        readbuf[cnt] = getchar();
80000486:	009406b3          	add	a3,s0,s1
8000048a:	00e68023          	sb	a4,0(a3)
D:\codes\opensource\nuclei_testing\testing2\Debug/../nuclei_sdk/SoC/evalsoc/Common/Source/Stubs/newlib/read.c:33
        if (readbuf[cnt] == '\n') {
8000048e:	47a9                	li	a5,10
getchar():
D:\codes\opensource\nuclei_testing\testing2\Debug/../nuclei_sdk/SoC/evalsoc/Common/Source/Stubs/newlib/read.c:16
    dat = (int)uart_read(SOC_DEBUG_UART);
80000490:	10013537          	lui	a0,0x10013
_read():
D:\codes\opensource\nuclei_testing\testing2\Debug/../nuclei_sdk/SoC/evalsoc/Common/Source/Stubs/newlib/read.c:33
        if (readbuf[cnt] == '\n') {
80000494:	06f70d63          	beq	a4,a5,8000050e <_read+0x1a6>
D:\codes\opensource\nuclei_testing\testing2\Debug/../nuclei_sdk/SoC/evalsoc/Common/Source/Stubs/newlib/read.c:30 (discriminator 2)
    for (cnt = 0; cnt < len; cnt ++) {
80000498:	4702                	lw	a4,0(sp)
8000049a:	00370493          	add	s1,a4,3
getchar():
D:\codes\opensource\nuclei_testing\testing2\Debug/../nuclei_sdk/SoC/evalsoc/Common/Source/Stubs/newlib/read.c:16
    dat = (int)uart_read(SOC_DEBUG_UART);
8000049e:	2c8d                	jal	80000710 <uart_read>
800004a0:	872a                	mv	a4,a0
_read():
D:\codes\opensource\nuclei_testing\testing2\Debug/../nuclei_sdk/SoC/evalsoc/Common/Source/Stubs/newlib/read.c:31 (discriminator 1)
        readbuf[cnt] = getchar();
800004a2:	009406b3          	add	a3,s0,s1
800004a6:	00e68023          	sb	a4,0(a3)
D:\codes\opensource\nuclei_testing\testing2\Debug/../nuclei_sdk/SoC/evalsoc/Common/Source/Stubs/newlib/read.c:33
        if (readbuf[cnt] == '\n') {
800004aa:	47a9                	li	a5,10
getchar():
D:\codes\opensource\nuclei_testing\testing2\Debug/../nuclei_sdk/SoC/evalsoc/Common/Source/Stubs/newlib/read.c:16
    dat = (int)uart_read(SOC_DEBUG_UART);
800004ac:	10013537          	lui	a0,0x10013
_read():
D:\codes\opensource\nuclei_testing\testing2\Debug/../nuclei_sdk/SoC/evalsoc/Common/Source/Stubs/newlib/read.c:33
        if (readbuf[cnt] == '\n') {
800004b0:	04f70f63          	beq	a4,a5,8000050e <_read+0x1a6>
D:\codes\opensource\nuclei_testing\testing2\Debug/../nuclei_sdk/SoC/evalsoc/Common/Source/Stubs/newlib/read.c:30 (discriminator 2)
    for (cnt = 0; cnt < len; cnt ++) {
800004b4:	4702                	lw	a4,0(sp)
800004b6:	00470493          	add	s1,a4,4
getchar():
D:\codes\opensource\nuclei_testing\testing2\Debug/../nuclei_sdk/SoC/evalsoc/Common/Source/Stubs/newlib/read.c:16
    dat = (int)uart_read(SOC_DEBUG_UART);
800004ba:	2c99                	jal	80000710 <uart_read>
800004bc:	872a                	mv	a4,a0
_read():
D:\codes\opensource\nuclei_testing\testing2\Debug/../nuclei_sdk/SoC/evalsoc/Common/Source/Stubs/newlib/read.c:31 (discriminator 1)
        readbuf[cnt] = getchar();
800004be:	009406b3          	add	a3,s0,s1
800004c2:	00e68023          	sb	a4,0(a3)
D:\codes\opensource\nuclei_testing\testing2\Debug/../nuclei_sdk/SoC/evalsoc/Common/Source/Stubs/newlib/read.c:33
        if (readbuf[cnt] == '\n') {
800004c6:	47a9                	li	a5,10
getchar():
D:\codes\opensource\nuclei_testing\testing2\Debug/../nuclei_sdk/SoC/evalsoc/Common/Source/Stubs/newlib/read.c:16
    dat = (int)uart_read(SOC_DEBUG_UART);
800004c8:	10013537          	lui	a0,0x10013
_read():
D:\codes\opensource\nuclei_testing\testing2\Debug/../nuclei_sdk/SoC/evalsoc/Common/Source/Stubs/newlib/read.c:33
        if (readbuf[cnt] == '\n') {
800004cc:	04f70163          	beq	a4,a5,8000050e <_read+0x1a6>
D:\codes\opensource\nuclei_testing\testing2\Debug/../nuclei_sdk/SoC/evalsoc/Common/Source/Stubs/newlib/read.c:30 (discriminator 2)
    for (cnt = 0; cnt < len; cnt ++) {
800004d0:	4702                	lw	a4,0(sp)
800004d2:	00570493          	add	s1,a4,5
getchar():
D:\codes\opensource\nuclei_testing\testing2\Debug/../nuclei_sdk/SoC/evalsoc/Common/Source/Stubs/newlib/read.c:16
    dat = (int)uart_read(SOC_DEBUG_UART);
800004d6:	2c2d                	jal	80000710 <uart_read>
800004d8:	872a                	mv	a4,a0
_read():
D:\codes\opensource\nuclei_testing\testing2\Debug/../nuclei_sdk/SoC/evalsoc/Common/Source/Stubs/newlib/read.c:31 (discriminator 1)
        readbuf[cnt] = getchar();
800004da:	009406b3          	add	a3,s0,s1
800004de:	00e68023          	sb	a4,0(a3)
D:\codes\opensource\nuclei_testing\testing2\Debug/../nuclei_sdk/SoC/evalsoc/Common/Source/Stubs/newlib/read.c:33
        if (readbuf[cnt] == '\n') {
800004e2:	47a9                	li	a5,10
getchar():
D:\codes\opensource\nuclei_testing\testing2\Debug/../nuclei_sdk/SoC/evalsoc/Common/Source/Stubs/newlib/read.c:16
    dat = (int)uart_read(SOC_DEBUG_UART);
800004e4:	10013537          	lui	a0,0x10013
_read():
D:\codes\opensource\nuclei_testing\testing2\Debug/../nuclei_sdk/SoC/evalsoc/Common/Source/Stubs/newlib/read.c:33
        if (readbuf[cnt] == '\n') {
800004e8:	02f70363          	beq	a4,a5,8000050e <_read+0x1a6>
D:\codes\opensource\nuclei_testing\testing2\Debug/../nuclei_sdk/SoC/evalsoc/Common/Source/Stubs/newlib/read.c:30 (discriminator 2)
    for (cnt = 0; cnt < len; cnt ++) {
800004ec:	4702                	lw	a4,0(sp)
800004ee:	00670493          	add	s1,a4,6
getchar():
D:\codes\opensource\nuclei_testing\testing2\Debug/../nuclei_sdk/SoC/evalsoc/Common/Source/Stubs/newlib/read.c:16
    dat = (int)uart_read(SOC_DEBUG_UART);
800004f2:	2c39                	jal	80000710 <uart_read>
_read():
D:\codes\opensource\nuclei_testing\testing2\Debug/../nuclei_sdk/SoC/evalsoc/Common/Source/Stubs/newlib/read.c:31 (discriminator 1)
        readbuf[cnt] = getchar();
800004f4:	00940733          	add	a4,s0,s1
800004f8:	00a70023          	sb	a0,0(a4)
D:\codes\opensource\nuclei_testing\testing2\Debug/../nuclei_sdk/SoC/evalsoc/Common/Source/Stubs/newlib/read.c:33
        if (readbuf[cnt] == '\n') {
800004fc:	47a9                	li	a5,10
800004fe:	00f50863          	beq	a0,a5,8000050e <_read+0x1a6>
D:\codes\opensource\nuclei_testing\testing2\Debug/../nuclei_sdk/SoC/evalsoc/Common/Source/Stubs/newlib/read.c:30 (discriminator 2)
    for (cnt = 0; cnt < len; cnt ++) {
80000502:	4702                	lw	a4,0(sp)
80000504:	00770493          	add	s1,a4,7
D:\codes\opensource\nuclei_testing\testing2\Debug/../nuclei_sdk/SoC/evalsoc/Common/Source/Stubs/newlib/read.c:30 (discriminator 1)
80000508:	4792                	lw	a5,4(sp)
8000050a:	f2f493e3          	bne	s1,a5,80000430 <_read+0xc8>
D:\codes\opensource\nuclei_testing\testing2\Debug/../nuclei_sdk/SoC/evalsoc/Common/Source/Stubs/newlib/read.c:39
            return cnt;
        }
    }

    return cnt;
}
8000050e:	8526                	mv	a0,s1
80000510:	0121                	add	sp,sp,8
80000512:	7be0506f          	j	80005cd0 <__riscv_restore_0>
getchar():
D:\codes\opensource\nuclei_testing\testing2\Debug/../nuclei_sdk/SoC/evalsoc/Common/Source/Stubs/newlib/read.c:16
    dat = (int)uart_read(SOC_DEBUG_UART);
80000516:	10013537          	lui	a0,0x10013
8000051a:	2add                	jal	80000710 <uart_read>
_read():
D:\codes\opensource\nuclei_testing\testing2\Debug/../nuclei_sdk/SoC/evalsoc/Common/Source/Stubs/newlib/read.c:31 (discriminator 1)
        readbuf[cnt] = getchar();
8000051c:	00a40023          	sb	a0,0(s0)
D:\codes\opensource\nuclei_testing\testing2\Debug/../nuclei_sdk/SoC/evalsoc/Common/Source/Stubs/newlib/read.c:33
        if (readbuf[cnt] == '\n') {
80000520:	4729                	li	a4,10
80000522:	fee506e3          	beq	a0,a4,8000050e <_read+0x1a6>
D:\codes\opensource\nuclei_testing\testing2\Debug/../nuclei_sdk/SoC/evalsoc/Common/Source/Stubs/newlib/read.c:30 (discriminator 2)
    for (cnt = 0; cnt < len; cnt ++) {
80000526:	4485                	li	s1,1
80000528:	bdbd                	j	800003a6 <_read+0x3e>
D:\codes\opensource\nuclei_testing\testing2\Debug/../nuclei_sdk/SoC/evalsoc/Common/Source/Stubs/newlib/read.c:38
    return cnt;
8000052a:	4481                	li	s1,0
8000052c:	b7cd                	j	8000050e <_read+0x1a6>
D:\codes\opensource\nuclei_testing\testing2\Debug/../nuclei_sdk/SoC/evalsoc/Common/Source/Stubs/newlib/read.c:26
        return -1;
8000052e:	54fd                	li	s1,-1
80000530:	bff9                	j	8000050e <_read+0x1a6>
	...

80000534 <_sbrk>:
_sbrk():
D:\codes\opensource\nuclei_testing\testing2\Debug/../nuclei_sdk/SoC/evalsoc/Common/Source/Stubs/newlib/sbrk.c:13
{
    extern char __heap_start[];
    extern char __heap_end[];
    static char* curbrk = __heap_start;

    if ((curbrk + incr < __heap_start) || (curbrk + incr > __heap_end)) {
80000534:	900006b7          	lui	a3,0x90000
80000538:	1c86a703          	lw	a4,456(a3) # 900001c8 <curbrk.0>
8000053c:	953a                	add	a0,a0,a4
8000053e:	0c818793          	add	a5,gp,200 # 90000a90 <__heap_start>
80000542:	00f56d63          	bltu	a0,a5,8000055c <_sbrk+0x28>
D:\codes\opensource\nuclei_testing\testing2\Debug/../nuclei_sdk/SoC/evalsoc/Common/Source/Stubs/newlib/sbrk.c:13 (discriminator 1)
80000546:	900107b7          	lui	a5,0x90010
8000054a:	80078793          	add	a5,a5,-2048 # 9000f800 <__heap_end>
8000054e:	00a7e763          	bltu	a5,a0,8000055c <_sbrk+0x28>
D:\codes\opensource\nuclei_testing\testing2\Debug/../nuclei_sdk/SoC/evalsoc/Common/Source/Stubs/newlib/sbrk.c:17
        return (void*)(-1);
    }

    curbrk += incr;
80000552:	1ca6a423          	sw	a0,456(a3)
D:\codes\opensource\nuclei_testing\testing2\Debug/../nuclei_sdk/SoC/evalsoc/Common/Source/Stubs/newlib/sbrk.c:19
    return (void*)(curbrk - incr);
}
80000556:	853a                	mv	a0,a4
80000558:	8082                	ret
8000055a:	0001                	nop
D:\codes\opensource\nuclei_testing\testing2\Debug/../nuclei_sdk/SoC/evalsoc/Common/Source/Stubs/newlib/sbrk.c:14
        return (void*)(-1);
8000055c:	577d                	li	a4,-1
D:\codes\opensource\nuclei_testing\testing2\Debug/../nuclei_sdk/SoC/evalsoc/Common/Source/Stubs/newlib/sbrk.c:19
}
8000055e:	853a                	mv	a0,a4
80000560:	8082                	ret
	...

80000564 <_write>:
_write():
D:\codes\opensource\nuclei_testing\testing2\Debug/../nuclei_sdk/SoC/evalsoc/Common/Source/Stubs/newlib/write.c:20
    uart_write(SOC_DEBUG_UART, dat);
    return dat;
}

__WEAK ssize_t _write(int fd, const void* ptr, size_t len)
{
80000564:	762052ef          	jal	t0,80005cc6 <__riscv_save_0>
80000568:	1161                	add	sp,sp,-8
8000056a:	84ae                	mv	s1,a1
8000056c:	8432                	mv	s0,a2
8000056e:	c232                	sw	a2,4(sp)
D:\codes\opensource\nuclei_testing\testing2\Debug/../nuclei_sdk/SoC/evalsoc/Common/Source/Stubs/newlib/write.c:21
    if (!isatty(fd)) {
80000570:	294010ef          	jal	80001804 <isatty>
D:\codes\opensource\nuclei_testing\testing2\Debug/../nuclei_sdk/SoC/evalsoc/Common/Source/Stubs/newlib/write.c:21 (discriminator 1)
80000574:	c129                	beqz	a0,800005b6 <_write+0x52>
D:\codes\opensource\nuclei_testing\testing2\Debug/../nuclei_sdk/SoC/evalsoc/Common/Source/Stubs/newlib/write.c:26 (discriminator 1)
        return -1;
    }

    const uint8_t* writebuf = (const uint8_t*)ptr;
    for (size_t i = 0; i < len; i++) {
80000576:	c005                	beqz	s0,80000596 <_write+0x32>
80000578:	008487b3          	add	a5,s1,s0
8000057c:	c03e                	sw	a5,0(sp)
putchar():
D:\codes\opensource\nuclei_testing\testing2\Debug/../nuclei_sdk/SoC/evalsoc/Common/Source/Stubs/newlib/write.c:12
    if (dat == '\n') {
8000057e:	4429                	li	s0,10
_write():
D:\codes\opensource\nuclei_testing\testing2\Debug/../nuclei_sdk/SoC/evalsoc/Common/Source/Stubs/newlib/write.c:27
        putchar((int)writebuf[i]);
80000580:	0004c583          	lbu	a1,0(s1)
putchar():
D:\codes\opensource\nuclei_testing\testing2\Debug/../nuclei_sdk/SoC/evalsoc/Common/Source/Stubs/newlib/write.c:15
    uart_write(SOC_DEBUG_UART, dat);
80000584:	10013537          	lui	a0,0x10013
D:\codes\opensource\nuclei_testing\testing2\Debug/../nuclei_sdk/SoC/evalsoc/Common/Source/Stubs/newlib/write.c:12
    if (dat == '\n') {
80000588:	00858c63          	beq	a1,s0,800005a0 <_write+0x3c>
D:\codes\opensource\nuclei_testing\testing2\Debug/../nuclei_sdk/SoC/evalsoc/Common/Source/Stubs/newlib/write.c:15
    uart_write(SOC_DEBUG_UART, dat);
8000058c:	2291                	jal	800006d0 <uart_write>
_write():
D:\codes\opensource\nuclei_testing\testing2\Debug/../nuclei_sdk/SoC/evalsoc/Common/Source/Stubs/newlib/write.c:26 (discriminator 1)
    for (size_t i = 0; i < len; i++) {
8000058e:	0485                	add	s1,s1,1
80000590:	4782                	lw	a5,0(sp)
80000592:	fef497e3          	bne	s1,a5,80000580 <_write+0x1c>
D:\codes\opensource\nuclei_testing\testing2\Debug/../nuclei_sdk/SoC/evalsoc/Common/Source/Stubs/newlib/write.c:29
    }
    return len;
80000596:	4512                	lw	a0,4(sp)
D:\codes\opensource\nuclei_testing\testing2\Debug/../nuclei_sdk/SoC/evalsoc/Common/Source/Stubs/newlib/write.c:30
}
80000598:	0121                	add	sp,sp,8
8000059a:	7360506f          	j	80005cd0 <__riscv_restore_0>
8000059e:	0001                	nop
putchar():
D:\codes\opensource\nuclei_testing\testing2\Debug/../nuclei_sdk/SoC/evalsoc/Common/Source/Stubs/newlib/write.c:13
        uart_write(SOC_DEBUG_UART, '\r');
800005a0:	45b5                	li	a1,13
800005a2:	223d                	jal	800006d0 <uart_write>
D:\codes\opensource\nuclei_testing\testing2\Debug/../nuclei_sdk/SoC/evalsoc/Common/Source/Stubs/newlib/write.c:15
    uart_write(SOC_DEBUG_UART, dat);
800005a4:	85a2                	mv	a1,s0
800005a6:	10013537          	lui	a0,0x10013
800005aa:	221d                	jal	800006d0 <uart_write>
_write():
D:\codes\opensource\nuclei_testing\testing2\Debug/../nuclei_sdk/SoC/evalsoc/Common/Source/Stubs/newlib/write.c:26 (discriminator 1)
    for (size_t i = 0; i < len; i++) {
800005ac:	0485                	add	s1,s1,1
800005ae:	4782                	lw	a5,0(sp)
800005b0:	fcf498e3          	bne	s1,a5,80000580 <_write+0x1c>
800005b4:	b7cd                	j	80000596 <_write+0x32>
D:\codes\opensource\nuclei_testing\testing2\Debug/../nuclei_sdk/SoC/evalsoc/Common/Source/Stubs/newlib/write.c:22
        return -1;
800005b6:	557d                	li	a0,-1
800005b8:	b7c5                	j	80000598 <_write+0x34>
800005ba:	0000                	unimp
800005bc:	0000                	unimp
	...

800005c0 <exc_entry>:
exc_entry():
D:\codes\opensource\nuclei_testing\testing2\Debug/../nuclei_sdk/SoC/evalsoc/Common/Source/GCC/intexc_evalsoc.S:161
# gnu let .weak override .globl, but llvm will show warning
# see https://reviews.llvm.org/D90108
.weak exc_entry
exc_entry:
    /* Save the caller saving registers (context) */
    SAVE_CONTEXT
800005c0:	fc810113          	add	sp,sp,-56
800005c4:	c006                	sw	ra,0(sp)
800005c6:	c212                	sw	tp,4(sp)
800005c8:	c416                	sw	t0,8(sp)
800005ca:	c61a                	sw	t1,12(sp)
800005cc:	c81e                	sw	t2,16(sp)
800005ce:	ca2a                	sw	a0,20(sp)
800005d0:	cc2e                	sw	a1,24(sp)
800005d2:	ce32                	sw	a2,28(sp)
800005d4:	d036                	sw	a3,32(sp)
800005d6:	d23a                	sw	a4,36(sp)
800005d8:	d43e                	sw	a5,40(sp)
D:\codes\opensource\nuclei_testing\testing2\Debug/../nuclei_sdk/SoC/evalsoc/Common/Source/GCC/intexc_evalsoc.S:163
    /* Save the necessary CSR registers */
    SAVE_CSR_CONTEXT
800005da:	7ee5d073          	csrw	pushmcause,11
800005de:	7ef65073          	csrw	pushmepc,12
800005e2:	7eb6d073          	csrw	pushmsubm,13
D:\codes\opensource\nuclei_testing\testing2\Debug/../nuclei_sdk/SoC/evalsoc/Common/Source/GCC/intexc_evalsoc.S:170
    /*
     * Set the exception handler function arguments
     * argument 1: mcause value
     * argument 2: current stack point(SP) value
     */
    csrr a0, mcause
800005e6:	34202573          	csrr	a0,mcause
D:\codes\opensource\nuclei_testing\testing2\Debug/../nuclei_sdk/SoC/evalsoc/Common/Source/GCC/intexc_evalsoc.S:171
    mv a1, sp
800005ea:	858a                	mv	a1,sp
D:\codes\opensource\nuclei_testing\testing2\Debug/../nuclei_sdk/SoC/evalsoc/Common/Source/GCC/intexc_evalsoc.S:177
    /*
     * TODO: Call the exception handler function
     * By default, the function template is provided in
     * system_Device.c, you can adjust it as you want
     */
    call core_exception_handler
800005ec:	2e31                	jal	80000908 <core_exception_handler>
D:\codes\opensource\nuclei_testing\testing2\Debug/../nuclei_sdk/SoC/evalsoc/Common/Source/GCC/intexc_evalsoc.S:180

    /* Restore the necessary CSR registers */
    RESTORE_CSR_CONTEXT
800005ee:	52d2                	lw	t0,52(sp)
800005f0:	7c429073          	csrw	msubm,t0
800005f4:	52c2                	lw	t0,48(sp)
800005f6:	34129073          	csrw	mepc,t0
800005fa:	52b2                	lw	t0,44(sp)
800005fc:	34229073          	csrw	mcause,t0
D:\codes\opensource\nuclei_testing\testing2\Debug/../nuclei_sdk/SoC/evalsoc/Common/Source/GCC/intexc_evalsoc.S:182
    /* Restore the caller saving registers (context) */
    RESTORE_CONTEXT
80000600:	4082                	lw	ra,0(sp)
80000602:	4212                	lw	tp,4(sp)
80000604:	42a2                	lw	t0,8(sp)
80000606:	4332                	lw	t1,12(sp)
80000608:	43c2                	lw	t2,16(sp)
8000060a:	4552                	lw	a0,20(sp)
8000060c:	45e2                	lw	a1,24(sp)
8000060e:	4672                	lw	a2,28(sp)
80000610:	5682                	lw	a3,32(sp)
80000612:	5712                	lw	a4,36(sp)
80000614:	57a2                	lw	a5,40(sp)
80000616:	03810113          	add	sp,sp,56
D:\codes\opensource\nuclei_testing\testing2\Debug/../nuclei_sdk/SoC/evalsoc/Common/Source/GCC/intexc_evalsoc.S:185

    /* Return to regular code */
    mret
8000061a:	30200073          	mret
	...

8000063c <irq_entry>:
irq_entry():
D:\codes\opensource\nuclei_testing\testing2\Debug/../nuclei_sdk/SoC/evalsoc/Common/Source/GCC/intexc_evalsoc.S:206
# see https://reviews.llvm.org/D90108
.weak irq_entry
/* This label will be set to MTVT2 register */
irq_entry:
    /* Save the caller saving registers (context) */
    SAVE_CONTEXT
8000063c:	fc810113          	add	sp,sp,-56
80000640:	c006                	sw	ra,0(sp)
80000642:	c212                	sw	tp,4(sp)
80000644:	c416                	sw	t0,8(sp)
80000646:	c61a                	sw	t1,12(sp)
80000648:	c81e                	sw	t2,16(sp)
8000064a:	ca2a                	sw	a0,20(sp)
8000064c:	cc2e                	sw	a1,24(sp)
8000064e:	ce32                	sw	a2,28(sp)
80000650:	d036                	sw	a3,32(sp)
80000652:	d23a                	sw	a4,36(sp)
80000654:	d43e                	sw	a5,40(sp)
D:\codes\opensource\nuclei_testing\testing2\Debug/../nuclei_sdk/SoC/evalsoc/Common/Source/GCC/intexc_evalsoc.S:208
    /* Save the necessary CSR registers */
    SAVE_CSR_CONTEXT
80000656:	7ee5d073          	csrw	pushmcause,11
8000065a:	7ef65073          	csrw	pushmepc,12
8000065e:	7eb6d073          	csrw	pushmsubm,13
D:\codes\opensource\nuclei_testing\testing2\Debug/../nuclei_sdk/SoC/evalsoc/Common/Source/GCC/intexc_evalsoc.S:215
    /* This special CSR read/write operation, which is actually
     * claim the CLIC to find its pending highest ID, if the ID
     * is not 0, then automatically enable the mstatus.MIE, and
     * jump to its vector-entry-label, and update the link register
     */
    csrrw ra, CSR_JALMNXTI, ra
80000662:	7ed090f3          	csrrw	ra,jalmnxti,ra
D:\codes\opensource\nuclei_testing\testing2\Debug/../nuclei_sdk/SoC/evalsoc/Common/Source/GCC/intexc_evalsoc.S:218

    /* Critical section with interrupts disabled */
    DISABLE_MIE
80000666:	30047073          	csrc	mstatus,8
D:\codes\opensource\nuclei_testing\testing2\Debug/../nuclei_sdk/SoC/evalsoc/Common/Source/GCC/intexc_evalsoc.S:221

    /* Restore the necessary CSR registers */
    RESTORE_CSR_CONTEXT
8000066a:	52d2                	lw	t0,52(sp)
8000066c:	7c429073          	csrw	msubm,t0
80000670:	52c2                	lw	t0,48(sp)
80000672:	34129073          	csrw	mepc,t0
80000676:	52b2                	lw	t0,44(sp)
80000678:	34229073          	csrw	mcause,t0
D:\codes\opensource\nuclei_testing\testing2\Debug/../nuclei_sdk/SoC/evalsoc/Common/Source/GCC/intexc_evalsoc.S:223
    /* Restore the caller saving registers (context) */
    RESTORE_CONTEXT
8000067c:	4082                	lw	ra,0(sp)
8000067e:	4212                	lw	tp,4(sp)
80000680:	42a2                	lw	t0,8(sp)
80000682:	4332                	lw	t1,12(sp)
80000684:	43c2                	lw	t2,16(sp)
80000686:	4552                	lw	a0,20(sp)
80000688:	45e2                	lw	a1,24(sp)
8000068a:	4672                	lw	a2,28(sp)
8000068c:	5682                	lw	a3,32(sp)
8000068e:	5712                	lw	a4,36(sp)
80000690:	57a2                	lw	a5,40(sp)
80000692:	03810113          	add	sp,sp,56
D:\codes\opensource\nuclei_testing\testing2\Debug/../nuclei_sdk/SoC/evalsoc/Common/Source/GCC/intexc_evalsoc.S:226

    /* Return to regular code */
    mret
80000696:	30200073          	mret

8000069a <default_intexc_handler>:
Undef_Handler():
D:\codes\opensource\nuclei_testing\testing2\Debug/../nuclei_sdk/SoC/evalsoc/Common/Source/GCC/intexc_evalsoc.S:235
# see https://reviews.llvm.org/D90108
.weak default_intexc_handler
Undef_Handler:
default_intexc_handler:
1:
    j 1b
8000069a:	a001                	j	8000069a <default_intexc_handler>
8000069c:	0000                	unimp
	...

800006a0 <uart_init>:
uart_init():
D:\codes\opensource\nuclei_testing\testing2\Debug/../nuclei_sdk/SoC/evalsoc/Common/Source/Drivers/evalsoc_uart.c:5
#include "evalsoc.h"
#include "evalsoc_uart.h"

int32_t uart_init(UART_TypeDef* uart, uint32_t baudrate)
{
800006a0:	87aa                	mv	a5,a0
D:\codes\opensource\nuclei_testing\testing2\Debug/../nuclei_sdk/SoC/evalsoc/Common/Source/Drivers/evalsoc_uart.c:6 (discriminator 1)
    if (__RARELY(uart == NULL)) {
800006a2:	c11d                	beqz	a0,800006c8 <uart_init+0x28>
D:\codes\opensource\nuclei_testing\testing2\Debug/../nuclei_sdk/SoC/evalsoc/Common/Source/Drivers/evalsoc_uart.c:9
        return -1;
    }
    uart->DIV = SystemCoreClock / baudrate - 1;
800006a4:	90000737          	lui	a4,0x90000
800006a8:	1cc72703          	lw	a4,460(a4) # 900001cc <SystemCoreClock>
800006ac:	02b755b3          	divu	a1,a4,a1
D:\codes\opensource\nuclei_testing\testing2\Debug/../nuclei_sdk/SoC/evalsoc/Common/Source/Drivers/evalsoc_uart.c:12
    uart->TXCTRL |= UART_TXEN;
    uart->RXCTRL |= UART_RXEN;
    return 0;
800006b0:	4501                	li	a0,0
D:\codes\opensource\nuclei_testing\testing2\Debug/../nuclei_sdk/SoC/evalsoc/Common/Source/Drivers/evalsoc_uart.c:9
    uart->DIV = SystemCoreClock / baudrate - 1;
800006b2:	15fd                	add	a1,a1,-1
800006b4:	cf8c                	sw	a1,24(a5)
D:\codes\opensource\nuclei_testing\testing2\Debug/../nuclei_sdk/SoC/evalsoc/Common/Source/Drivers/evalsoc_uart.c:10
    uart->TXCTRL |= UART_TXEN;
800006b6:	4798                	lw	a4,8(a5)
800006b8:	00176713          	or	a4,a4,1
800006bc:	c798                	sw	a4,8(a5)
D:\codes\opensource\nuclei_testing\testing2\Debug/../nuclei_sdk/SoC/evalsoc/Common/Source/Drivers/evalsoc_uart.c:11
    uart->RXCTRL |= UART_RXEN;
800006be:	47d8                	lw	a4,12(a5)
800006c0:	00176713          	or	a4,a4,1
800006c4:	c7d8                	sw	a4,12(a5)
D:\codes\opensource\nuclei_testing\testing2\Debug/../nuclei_sdk/SoC/evalsoc/Common/Source/Drivers/evalsoc_uart.c:12
    return 0;
800006c6:	8082                	ret
D:\codes\opensource\nuclei_testing\testing2\Debug/../nuclei_sdk/SoC/evalsoc/Common/Source/Drivers/evalsoc_uart.c:7
        return -1;
800006c8:	557d                	li	a0,-1
D:\codes\opensource\nuclei_testing\testing2\Debug/../nuclei_sdk/SoC/evalsoc/Common/Source/Drivers/evalsoc_uart.c:13
}
800006ca:	8082                	ret
800006cc:	0000                	unimp
	...

800006d0 <uart_write>:
uart_write():
D:\codes\opensource\nuclei_testing\testing2\Debug/../nuclei_sdk/SoC/evalsoc/Common/Source/Drivers/evalsoc_uart.c:27
    uart->TXCTRL &= stopval | (~UART_TXCTRL_TXCNT_MASK);
    return 0;
}

int32_t uart_write(UART_TypeDef* uart, uint8_t val)
{
800006d0:	87aa                	mv	a5,a0
D:\codes\opensource\nuclei_testing\testing2\Debug/../nuclei_sdk/SoC/evalsoc/Common/Source/Drivers/evalsoc_uart.c:28 (discriminator 1)
    if (__RARELY(uart == NULL)) {
800006d2:	cd05                	beqz	a0,8000070a <uart_write+0x3a>
D:\codes\opensource\nuclei_testing\testing2\Debug/../nuclei_sdk/SoC/evalsoc/Common/Source/Drivers/evalsoc_uart.c:31 (discriminator 1)
        return -1;
    }
    while (uart->TXFIFO & UART_TXFIFO_FULL);
800006d4:	4398                	lw	a4,0(a5)
800006d6:	02075763          	bgez	a4,80000704 <uart_write+0x34>
800006da:	4398                	lw	a4,0(a5)
800006dc:	02075463          	bgez	a4,80000704 <uart_write+0x34>
800006e0:	4398                	lw	a4,0(a5)
800006e2:	02075163          	bgez	a4,80000704 <uart_write+0x34>
800006e6:	4398                	lw	a4,0(a5)
800006e8:	00075e63          	bgez	a4,80000704 <uart_write+0x34>
800006ec:	4398                	lw	a4,0(a5)
800006ee:	00075b63          	bgez	a4,80000704 <uart_write+0x34>
800006f2:	4398                	lw	a4,0(a5)
800006f4:	00075863          	bgez	a4,80000704 <uart_write+0x34>
800006f8:	4398                	lw	a4,0(a5)
800006fa:	00075563          	bgez	a4,80000704 <uart_write+0x34>
800006fe:	4398                	lw	a4,0(a5)
80000700:	fc074ae3          	bltz	a4,800006d4 <uart_write+0x4>
D:\codes\opensource\nuclei_testing\testing2\Debug/../nuclei_sdk/SoC/evalsoc/Common/Source/Drivers/evalsoc_uart.c:33
    uart->TXFIFO = val;
    return 0;
80000704:	4501                	li	a0,0
D:\codes\opensource\nuclei_testing\testing2\Debug/../nuclei_sdk/SoC/evalsoc/Common/Source/Drivers/evalsoc_uart.c:32
    uart->TXFIFO = val;
80000706:	c38c                	sw	a1,0(a5)
D:\codes\opensource\nuclei_testing\testing2\Debug/../nuclei_sdk/SoC/evalsoc/Common/Source/Drivers/evalsoc_uart.c:33
    return 0;
80000708:	8082                	ret
D:\codes\opensource\nuclei_testing\testing2\Debug/../nuclei_sdk/SoC/evalsoc/Common/Source/Drivers/evalsoc_uart.c:29
        return -1;
8000070a:	557d                	li	a0,-1
D:\codes\opensource\nuclei_testing\testing2\Debug/../nuclei_sdk/SoC/evalsoc/Common/Source/Drivers/evalsoc_uart.c:34
}
8000070c:	8082                	ret
	...

80000710 <uart_read>:
uart_read():
D:\codes\opensource\nuclei_testing\testing2\Debug/../nuclei_sdk/SoC/evalsoc/Common/Source/Drivers/evalsoc_uart.c:39 (discriminator 1)

uint8_t uart_read(UART_TypeDef* uart)
{
    uint32_t reg;
    if (__RARELY(uart == NULL)) {
80000710:	cd05                	beqz	a0,80000748 <uart_read+0x38>
D:\codes\opensource\nuclei_testing\testing2\Debug/../nuclei_sdk/SoC/evalsoc/Common/Source/Drivers/evalsoc_uart.c:43
        return -1;
    }
    do {
        reg = uart->RXFIFO;
80000712:	415c                	lw	a5,4(a0)
D:\codes\opensource\nuclei_testing\testing2\Debug/../nuclei_sdk/SoC/evalsoc/Common/Source/Drivers/evalsoc_uart.c:44 (discriminator 1)
    } while (reg & UART_RXFIFO_EMPTY);
80000714:	0207d763          	bgez	a5,80000742 <uart_read+0x32>
D:\codes\opensource\nuclei_testing\testing2\Debug/../nuclei_sdk/SoC/evalsoc/Common/Source/Drivers/evalsoc_uart.c:43
        reg = uart->RXFIFO;
80000718:	415c                	lw	a5,4(a0)
D:\codes\opensource\nuclei_testing\testing2\Debug/../nuclei_sdk/SoC/evalsoc/Common/Source/Drivers/evalsoc_uart.c:44 (discriminator 1)
    } while (reg & UART_RXFIFO_EMPTY);
8000071a:	0207d463          	bgez	a5,80000742 <uart_read+0x32>
D:\codes\opensource\nuclei_testing\testing2\Debug/../nuclei_sdk/SoC/evalsoc/Common/Source/Drivers/evalsoc_uart.c:43
        reg = uart->RXFIFO;
8000071e:	415c                	lw	a5,4(a0)
D:\codes\opensource\nuclei_testing\testing2\Debug/../nuclei_sdk/SoC/evalsoc/Common/Source/Drivers/evalsoc_uart.c:44 (discriminator 1)
    } while (reg & UART_RXFIFO_EMPTY);
80000720:	0207d163          	bgez	a5,80000742 <uart_read+0x32>
D:\codes\opensource\nuclei_testing\testing2\Debug/../nuclei_sdk/SoC/evalsoc/Common/Source/Drivers/evalsoc_uart.c:43
        reg = uart->RXFIFO;
80000724:	415c                	lw	a5,4(a0)
D:\codes\opensource\nuclei_testing\testing2\Debug/../nuclei_sdk/SoC/evalsoc/Common/Source/Drivers/evalsoc_uart.c:44 (discriminator 1)
    } while (reg & UART_RXFIFO_EMPTY);
80000726:	0007de63          	bgez	a5,80000742 <uart_read+0x32>
D:\codes\opensource\nuclei_testing\testing2\Debug/../nuclei_sdk/SoC/evalsoc/Common/Source/Drivers/evalsoc_uart.c:43
        reg = uart->RXFIFO;
8000072a:	415c                	lw	a5,4(a0)
D:\codes\opensource\nuclei_testing\testing2\Debug/../nuclei_sdk/SoC/evalsoc/Common/Source/Drivers/evalsoc_uart.c:44 (discriminator 1)
    } while (reg & UART_RXFIFO_EMPTY);
8000072c:	0007db63          	bgez	a5,80000742 <uart_read+0x32>
D:\codes\opensource\nuclei_testing\testing2\Debug/../nuclei_sdk/SoC/evalsoc/Common/Source/Drivers/evalsoc_uart.c:43
        reg = uart->RXFIFO;
80000730:	415c                	lw	a5,4(a0)
D:\codes\opensource\nuclei_testing\testing2\Debug/../nuclei_sdk/SoC/evalsoc/Common/Source/Drivers/evalsoc_uart.c:44 (discriminator 1)
    } while (reg & UART_RXFIFO_EMPTY);
80000732:	0007d863          	bgez	a5,80000742 <uart_read+0x32>
D:\codes\opensource\nuclei_testing\testing2\Debug/../nuclei_sdk/SoC/evalsoc/Common/Source/Drivers/evalsoc_uart.c:43
        reg = uart->RXFIFO;
80000736:	415c                	lw	a5,4(a0)
D:\codes\opensource\nuclei_testing\testing2\Debug/../nuclei_sdk/SoC/evalsoc/Common/Source/Drivers/evalsoc_uart.c:44 (discriminator 1)
    } while (reg & UART_RXFIFO_EMPTY);
80000738:	0007d563          	bgez	a5,80000742 <uart_read+0x32>
D:\codes\opensource\nuclei_testing\testing2\Debug/../nuclei_sdk/SoC/evalsoc/Common/Source/Drivers/evalsoc_uart.c:43
        reg = uart->RXFIFO;
8000073c:	415c                	lw	a5,4(a0)
D:\codes\opensource\nuclei_testing\testing2\Debug/../nuclei_sdk/SoC/evalsoc/Common/Source/Drivers/evalsoc_uart.c:44 (discriminator 1)
    } while (reg & UART_RXFIFO_EMPTY);
8000073e:	fc07cae3          	bltz	a5,80000712 <uart_read+0x2>
D:\codes\opensource\nuclei_testing\testing2\Debug/../nuclei_sdk/SoC/evalsoc/Common/Source/Drivers/evalsoc_uart.c:45
    return (uint8_t)(reg & 0xFF);
80000742:	0ff7f513          	zext.b	a0,a5
80000746:	8082                	ret
D:\codes\opensource\nuclei_testing\testing2\Debug/../nuclei_sdk/SoC/evalsoc/Common/Source/Drivers/evalsoc_uart.c:40
        return -1;
80000748:	0ff00513          	li	a0,255
D:\codes\opensource\nuclei_testing\testing2\Debug/../nuclei_sdk/SoC/evalsoc/Common/Source/Drivers/evalsoc_uart.c:46
}
8000074c:	8082                	ret

8000074e <measure_cpu_freq>:
measure_cpu_freq():
D:\codes\opensource\nuclei_testing\testing2\Debug/../nuclei_sdk/SoC/evalsoc/Common/Source/evalsoc_common.c:18
#pragma GCC optimize ("Os")
#elif defined ( __ICCRISCV__ )
#pragma optimize=medium
#endif
uint32_t measure_cpu_freq(uint32_t n)
{
8000074e:	578052ef          	jal	t0,80005cc6 <__riscv_save_0>
SysTimer_GetLoadValue():
D:\codes\opensource\nuclei_testing\testing2\nuclei_sdk\NMSIS\Core\Include/core_feature_timer.h:161
#if __RISCV_XLEN == 32
    volatile uint32_t high0, low, high;
    uint64_t full;
    uint8_t *addr;

    addr = (uint8_t *)(&(SysTimer->MTIMER));
80000752:	f1018713          	add	a4,gp,-240 # 900008d8 <SystemIRegionInfo>
80000756:	4718                	lw	a4,8(a4)
measure_cpu_freq():
D:\codes\opensource\nuclei_testing\testing2\Debug/../nuclei_sdk/SoC/evalsoc/Common/Source/evalsoc_common.c:18
80000758:	fdc10113          	add	sp,sp,-36
SysTimer_GetLoadValue():
D:\codes\opensource\nuclei_testing\testing2\nuclei_sdk\NMSIS\Core\Include/core_feature_timer.h:163

    high0 = __LW(addr + 4);
8000075c:	00470613          	add	a2,a4,4
__LW():
D:\codes\opensource\nuclei_testing\testing2\nuclei_sdk\NMSIS\Core\Include/core_feature_base.h:1541
 */
__STATIC_FORCEINLINE uint32_t __LW(volatile void *addr)
{
    uint32_t result;

    __ASM volatile ("lw %0, 0(%1)" : "=r" (result) : "r" (addr));
80000760:	420c                	lw	a1,0(a2)
SysTimer_GetLoadValue():
D:\codes\opensource\nuclei_testing\testing2\nuclei_sdk\NMSIS\Core\Include/core_feature_timer.h:163 (discriminator 1)
80000762:	fa410693          	add	a3,sp,-92
80000766:	ceec                	sw	a1,92(a3)
__LW():
D:\codes\opensource\nuclei_testing\testing2\nuclei_sdk\NMSIS\Core\Include/core_feature_base.h:1541
80000768:	430c                	lw	a1,0(a4)
SysTimer_GetLoadValue():
D:\codes\opensource\nuclei_testing\testing2\nuclei_sdk\NMSIS\Core\Include/core_feature_timer.h:164 (discriminator 1)
    low = __LW(addr);
8000076a:	d2ac                	sw	a1,96(a3)
__LW():
D:\codes\opensource\nuclei_testing\testing2\nuclei_sdk\NMSIS\Core\Include/core_feature_base.h:1541
8000076c:	4210                	lw	a2,0(a2)
SysTimer_GetLoadValue():
D:\codes\opensource\nuclei_testing\testing2\nuclei_sdk\NMSIS\Core\Include/core_feature_timer.h:165 (discriminator 1)
    high = __LW(addr + 4);
8000076e:	d2f0                	sw	a2,100(a3)
D:\codes\opensource\nuclei_testing\testing2\nuclei_sdk\NMSIS\Core\Include/core_feature_timer.h:166
    if (high0 != high) {
80000770:	4ef0                	lw	a2,92(a3)
80000772:	52f4                	lw	a3,100(a3)
80000774:	f1018793          	add	a5,gp,-240 # 900008d8 <SystemIRegionInfo>
80000778:	00d60463          	beq	a2,a3,80000780 <measure_cpu_freq+0x32>
__LW():
D:\codes\opensource\nuclei_testing\testing2\nuclei_sdk\NMSIS\Core\Include/core_feature_base.h:1541
8000077c:	4318                	lw	a4,0(a4)
SysTimer_GetLoadValue():
D:\codes\opensource\nuclei_testing\testing2\nuclei_sdk\NMSIS\Core\Include/core_feature_timer.h:167 (discriminator 1)
        low = __LW(addr);
8000077e:	c23a                	sw	a4,4(sp)
D:\codes\opensource\nuclei_testing\testing2\nuclei_sdk\NMSIS\Core\Include/core_feature_timer.h:169
    }
    full = (((uint64_t)high) << 32) | low;
80000780:	4722                	lw	a4,8(sp)
80000782:	4292                	lw	t0,4(sp)
D:\codes\opensource\nuclei_testing\testing2\nuclei_sdk\NMSIS\Core\Include/core_feature_timer.h:161
    addr = (uint8_t *)(&(SysTimer->MTIMER));
80000784:	4798                	lw	a4,8(a5)
D:\codes\opensource\nuclei_testing\testing2\nuclei_sdk\NMSIS\Core\Include/core_feature_timer.h:163
    high0 = __LW(addr + 4);
80000786:	00470613          	add	a2,a4,4
__LW():
D:\codes\opensource\nuclei_testing\testing2\nuclei_sdk\NMSIS\Core\Include/core_feature_base.h:1541
8000078a:	420c                	lw	a1,0(a2)
SysTimer_GetLoadValue():
D:\codes\opensource\nuclei_testing\testing2\nuclei_sdk\NMSIS\Core\Include/core_feature_timer.h:163 (discriminator 1)
8000078c:	fa410693          	add	a3,sp,-92
80000790:	d6ac                	sw	a1,104(a3)
__LW():
D:\codes\opensource\nuclei_testing\testing2\nuclei_sdk\NMSIS\Core\Include/core_feature_base.h:1541
80000792:	430c                	lw	a1,0(a4)
SysTimer_GetLoadValue():
D:\codes\opensource\nuclei_testing\testing2\nuclei_sdk\NMSIS\Core\Include/core_feature_timer.h:164 (discriminator 1)
    low = __LW(addr);
80000794:	d6ec                	sw	a1,108(a3)
__LW():
D:\codes\opensource\nuclei_testing\testing2\nuclei_sdk\NMSIS\Core\Include/core_feature_base.h:1541
80000796:	4210                	lw	a2,0(a2)
SysTimer_GetLoadValue():
D:\codes\opensource\nuclei_testing\testing2\nuclei_sdk\NMSIS\Core\Include/core_feature_timer.h:165 (discriminator 1)
    high = __LW(addr + 4);
80000798:	dab0                	sw	a2,112(a3)
D:\codes\opensource\nuclei_testing\testing2\nuclei_sdk\NMSIS\Core\Include/core_feature_timer.h:166
    if (high0 != high) {
8000079a:	56b0                	lw	a2,104(a3)
8000079c:	5ab4                	lw	a3,112(a3)
8000079e:	00d60463          	beq	a2,a3,800007a6 <measure_cpu_freq+0x58>
__LW():
D:\codes\opensource\nuclei_testing\testing2\nuclei_sdk\NMSIS\Core\Include/core_feature_base.h:1541
800007a2:	4318                	lw	a4,0(a4)
SysTimer_GetLoadValue():
D:\codes\opensource\nuclei_testing\testing2\nuclei_sdk\NMSIS\Core\Include/core_feature_timer.h:167 (discriminator 1)
        low = __LW(addr);
800007a4:	c83a                	sw	a4,16(sp)
D:\codes\opensource\nuclei_testing\testing2\nuclei_sdk\NMSIS\Core\Include/core_feature_timer.h:169
    full = (((uint64_t)high) << 32) | low;
800007a6:	4752                	lw	a4,20(sp)
800007a8:	45c2                	lw	a1,16(sp)
measure_cpu_freq():
D:\codes\opensource\nuclei_testing\testing2\Debug/../nuclei_sdk/SoC/evalsoc/Common/Source/evalsoc_common.c:27

    // Don't start measuruing until we see an mtime tick
    uint32_t tmp = (uint32_t)SysTimer_GetLoadValue();
    do {
        start_mtime = (uint32_t)SysTimer_GetLoadValue();
        start_mcycle = __RV_CSR_READ(CSR_MCYCLE);
800007aa:	b0002373          	csrr	t1,mcycle
D:\codes\opensource\nuclei_testing\testing2\Debug/../nuclei_sdk/SoC/evalsoc/Common/Source/evalsoc_common.c:28 (discriminator 1)
    } while (start_mtime == tmp);
800007ae:	fcb28be3          	beq	t0,a1,80000784 <measure_cpu_freq+0x36>
SysTimer_GetLoadValue():
D:\codes\opensource\nuclei_testing\testing2\nuclei_sdk\NMSIS\Core\Include/core_feature_timer.h:161
    addr = (uint8_t *)(&(SysTimer->MTIMER));
800007b2:	4798                	lw	a4,8(a5)
D:\codes\opensource\nuclei_testing\testing2\nuclei_sdk\NMSIS\Core\Include/core_feature_timer.h:163
    high0 = __LW(addr + 4);
800007b4:	00470613          	add	a2,a4,4
__LW():
D:\codes\opensource\nuclei_testing\testing2\nuclei_sdk\NMSIS\Core\Include/core_feature_base.h:1541
800007b8:	00062283          	lw	t0,0(a2)
SysTimer_GetLoadValue():
D:\codes\opensource\nuclei_testing\testing2\nuclei_sdk\NMSIS\Core\Include/core_feature_timer.h:163 (discriminator 1)
800007bc:	fa410693          	add	a3,sp,-92
800007c0:	0656aa23          	sw	t0,116(a3)
__LW():
D:\codes\opensource\nuclei_testing\testing2\nuclei_sdk\NMSIS\Core\Include/core_feature_base.h:1541
800007c4:	00072283          	lw	t0,0(a4)
SysTimer_GetLoadValue():
D:\codes\opensource\nuclei_testing\testing2\nuclei_sdk\NMSIS\Core\Include/core_feature_timer.h:164 (discriminator 1)
    low = __LW(addr);
800007c8:	0656ac23          	sw	t0,120(a3)
__LW():
D:\codes\opensource\nuclei_testing\testing2\nuclei_sdk\NMSIS\Core\Include/core_feature_base.h:1541
800007cc:	4210                	lw	a2,0(a2)
SysTimer_GetLoadValue():
D:\codes\opensource\nuclei_testing\testing2\nuclei_sdk\NMSIS\Core\Include/core_feature_timer.h:165 (discriminator 1)
    high = __LW(addr + 4);
800007ce:	def0                	sw	a2,124(a3)
D:\codes\opensource\nuclei_testing\testing2\nuclei_sdk\NMSIS\Core\Include/core_feature_timer.h:166
    if (high0 != high) {
800007d0:	5af0                	lw	a2,116(a3)
800007d2:	5ef4                	lw	a3,124(a3)
800007d4:	00d60463          	beq	a2,a3,800007dc <measure_cpu_freq+0x8e>
__LW():
D:\codes\opensource\nuclei_testing\testing2\nuclei_sdk\NMSIS\Core\Include/core_feature_base.h:1541
800007d8:	4318                	lw	a4,0(a4)
SysTimer_GetLoadValue():
D:\codes\opensource\nuclei_testing\testing2\nuclei_sdk\NMSIS\Core\Include/core_feature_timer.h:167 (discriminator 1)
        low = __LW(addr);
800007da:	ce3a                	sw	a4,28(sp)
D:\codes\opensource\nuclei_testing\testing2\nuclei_sdk\NMSIS\Core\Include/core_feature_timer.h:169
    full = (((uint64_t)high) << 32) | low;
800007dc:	5702                	lw	a4,32(sp)
800007de:	44f2                	lw	s1,28(sp)
measure_cpu_freq():
D:\codes\opensource\nuclei_testing\testing2\Debug/../nuclei_sdk/SoC/evalsoc/Common/Source/evalsoc_common.c:31 (discriminator 1)

    do {
        delta_mtime = (uint32_t)SysTimer_GetLoadValue() - start_mtime;
800007e0:	8c8d                	sub	s1,s1,a1
D:\codes\opensource\nuclei_testing\testing2\Debug/../nuclei_sdk/SoC/evalsoc/Common/Source/evalsoc_common.c:32
        delta_mcycle = __RV_CSR_READ(CSR_MCYCLE) - start_mcycle;
800007e2:	b0002473          	csrr	s0,mcycle
D:\codes\opensource\nuclei_testing\testing2\Debug/../nuclei_sdk/SoC/evalsoc/Common/Source/evalsoc_common.c:33 (discriminator 1)
    } while (delta_mtime < n);
800007e6:	fca4e6e3          	bltu	s1,a0,800007b2 <measure_cpu_freq+0x64>
D:\codes\opensource\nuclei_testing\testing2\Debug/../nuclei_sdk/SoC/evalsoc/Common/Source/evalsoc_common.c:32
        delta_mcycle = __RV_CSR_READ(CSR_MCYCLE) - start_mcycle;
800007ea:	40640433          	sub	s0,s0,t1
D:\codes\opensource\nuclei_testing\testing2\Debug/../nuclei_sdk/SoC/evalsoc/Common/Source/evalsoc_common.c:36

    return (delta_mcycle / delta_mtime) * mtime_freq
           + ((delta_mcycle % delta_mtime) * mtime_freq) / delta_mtime;
800007ee:	029475b3          	remu	a1,s0,s1
800007f2:	8626                	mv	a2,s1
800007f4:	4681                	li	a3,0
D:\codes\opensource\nuclei_testing\testing2\Debug/../nuclei_sdk/SoC/evalsoc/Common/Source/evalsoc_common.c:35
    return (delta_mcycle / delta_mtime) * mtime_freq
800007f6:	02945433          	divu	s0,s0,s1
D:\codes\opensource\nuclei_testing\testing2\Debug/../nuclei_sdk/SoC/evalsoc/Common/Source/evalsoc_common.c:36
           + ((delta_mcycle % delta_mtime) * mtime_freq) / delta_mtime;
800007fa:	00f59513          	sll	a0,a1,0xf
800007fe:	81c5                	srl	a1,a1,0x11
80000800:	65e030ef          	jal	80003e5e <__udivdi3>
80000804:	043e                	sll	s0,s0,0xf
D:\codes\opensource\nuclei_testing\testing2\Debug/../nuclei_sdk/SoC/evalsoc/Common/Source/evalsoc_common.c:37
}
80000806:	9522                	add	a0,a0,s0
80000808:	02410113          	add	sp,sp,36
8000080c:	4c40506f          	j	80005cd0 <__riscv_restore_0>

80000810 <get_cpu_freq>:
get_cpu_freq():
D:\codes\opensource\nuclei_testing\testing2\Debug/../nuclei_sdk/SoC/evalsoc/Common/Source/evalsoc_common.c:44
#pragma GCC pop_options
#elif defined ( __ICCRISCV__ )
#endif

uint32_t get_cpu_freq(void)
{
80000810:	4b6052ef          	jal	t0,80005cc6 <__riscv_save_0>
D:\codes\opensource\nuclei_testing\testing2\Debug/../nuclei_sdk/SoC/evalsoc/Common/Source/evalsoc_common.c:48
    uint32_t cpu_freq;

    // warm up
    measure_cpu_freq(1);
80000814:	4505                	li	a0,1
80000816:	3f25                	jal	8000074e <measure_cpu_freq>
D:\codes\opensource\nuclei_testing\testing2\Debug/../nuclei_sdk/SoC/evalsoc/Common/Source/evalsoc_common.c:50
    // measure for real
    cpu_freq = measure_cpu_freq(100);
80000818:	06400513          	li	a0,100
8000081c:	3f0d                	jal	8000074e <measure_cpu_freq>
D:\codes\opensource\nuclei_testing\testing2\Debug/../nuclei_sdk/SoC/evalsoc/Common/Source/evalsoc_common.c:53

    return cpu_freq;
}
8000081e:	4b20506f          	j	80005cd0 <__riscv_restore_0>
	...

80000824 <simulation_exit>:
simulation_exit():
D:\codes\opensource\nuclei_testing\testing2\Debug/../nuclei_sdk/SoC/evalsoc/Common/Source/evalsoc_common.c:75
        delta_mtime = SysTimer_GetLoadValue() - start_mtime;
    } while (delta_mtime < delay_ticks);
}

void simulation_exit(int status)
{
80000824:	4a2052ef          	jal	t0,80005cc6 <__riscv_save_0>
80000828:	84aa                	mv	s1,a0
8000082a:	4429                	li	s0,10
D:\codes\opensource\nuclei_testing\testing2\Debug/../nuclei_sdk/SoC/evalsoc/Common/Source/evalsoc_common.c:80
    // Both xlspike and qemu will write RXFIFO to make it works for xlspike even SIMU=qemu
    // workaround for fix cycle model exit with some message not print
    for (int i = 0; i < 10; i ++) {
        // print '\0' instead of '\r' for qemu simulation in ide
        uart_write(UART0, '\0');
8000082c:	4581                	li	a1,0
8000082e:	10013537          	lui	a0,0x10013
D:\codes\opensource\nuclei_testing\testing2\Debug/../nuclei_sdk/SoC/evalsoc/Common/Source/evalsoc_common.c:78 (discriminator 1)
    for (int i = 0; i < 10; i ++) {
80000832:	147d                	add	s0,s0,-1
D:\codes\opensource\nuclei_testing\testing2\Debug/../nuclei_sdk/SoC/evalsoc/Common/Source/evalsoc_common.c:80
        uart_write(UART0, '\0');
80000834:	3d71                	jal	800006d0 <uart_write>
D:\codes\opensource\nuclei_testing\testing2\Debug/../nuclei_sdk/SoC/evalsoc/Common/Source/evalsoc_common.c:78 (discriminator 1)
    for (int i = 0; i < 10; i ++) {
80000836:	f87d                	bnez	s0,8000082c <simulation_exit+0x8>
D:\codes\opensource\nuclei_testing\testing2\Debug/../nuclei_sdk/SoC/evalsoc/Common/Source/evalsoc_common.c:82
    }
    uart_write(UART0, '\n');
80000838:	45a9                	li	a1,10
8000083a:	10013537          	lui	a0,0x10013
8000083e:	3d49                	jal	800006d0 <uart_write>
D:\codes\opensource\nuclei_testing\testing2\Debug/../nuclei_sdk/SoC/evalsoc/Common/Source/evalsoc_common.c:84
    // pass exit status via rxfifo register
    UART0->RXFIFO = status;
80000840:	10013537          	lui	a0,0x10013
80000844:	c144                	sw	s1,4(a0)
D:\codes\opensource\nuclei_testing\testing2\Debug/../nuclei_sdk/SoC/evalsoc/Common/Source/evalsoc_common.c:85
    uart_write(UART0, 4);
80000846:	4591                	li	a1,4
80000848:	3561                	jal	800006d0 <uart_write>
D:\codes\opensource\nuclei_testing\testing2\Debug/../nuclei_sdk/SoC/evalsoc/Common/Source/evalsoc_common.c:93
    #define QEMU_VIRT_TEST_BASE 0x100000
    #define QEMU_SIG_EXIT      0x3333
    REG32(QEMU_VIRT_TEST_BASE) = (status << 16) | QEMU_SIG_EXIT;
#endif
#endif
}
8000084a:	4860506f          	j	80005cd0 <__riscv_restore_0>
	...

80000850 <SystemInit>:
SystemInit():
D:\codes\opensource\nuclei_testing\testing2\Debug/../nuclei_sdk/SoC/evalsoc/Common/Source/system_evalsoc.c:254
    SystemCoreClock = SYSTEM_CLOCK;
80000850:	04c4b7b7          	lui	a5,0x4c4b
80000854:	90000737          	lui	a4,0x90000
80000858:	40078793          	add	a5,a5,1024 # 4c4b400 <__HEAP_SIZE+0x4c4ac00>
8000085c:	1cf72623          	sw	a5,460(a4) # 900001cc <SystemCoreClock>
D:\codes\opensource\nuclei_testing\testing2\Debug/../nuclei_sdk/SoC/evalsoc/Common/Source/system_evalsoc.c:255
}
80000860:	8082                	ret
	...

80000864 <Exception_DumpFrame>:
Exception_DumpFrame():
D:\codes\opensource\nuclei_testing\testing2\Debug/../nuclei_sdk/SoC/evalsoc/Common/Source/system_evalsoc.c:351
{
80000864:	462052ef          	jal	t0,80005cc6 <__riscv_save_0>
80000868:	842a                	mv	s0,a0
8000086a:	1101                	add	sp,sp,-32
D:\codes\opensource\nuclei_testing\testing2\Debug/../nuclei_sdk/SoC/evalsoc/Common/Source/system_evalsoc.c:362
    printf("ra: 0x%lx, tp: 0x%lx, t0: 0x%lx, t1: 0x%lx, t2: 0x%lx\n" \
8000086c:	5908                	lw	a0,48(a0)
8000086e:	481c                	lw	a5,16(s0)
80000870:	4458                	lw	a4,12(s0)
80000872:	4414                	lw	a3,8(s0)
80000874:	4050                	lw	a2,4(s0)
80000876:	ce2a                	sw	a0,28(sp)
80000878:	5448                	lw	a0,44(s0)
8000087a:	cc2a                	sw	a0,24(sp)
8000087c:	5408                	lw	a0,40(s0)
8000087e:	ca2a                	sw	a0,20(sp)
80000880:	5048                	lw	a0,36(s0)
80000882:	c82a                	sw	a0,16(sp)
80000884:	5008                	lw	a0,32(s0)
80000886:	c62a                	sw	a0,12(sp)
80000888:	4c48                	lw	a0,28(s0)
8000088a:	c42a                	sw	a0,8(sp)
8000088c:	4c08                	lw	a0,24(s0)
8000088e:	c22a                	sw	a0,4(sp)
80000890:	01442303          	lw	t1,20(s0)
80000894:	c01a                	sw	t1,0(sp)
80000896:	86018513          	add	a0,gp,-1952 # 90000228 <_impure_ptr+0x58>
D:\codes\opensource\nuclei_testing\testing2\Debug/../nuclei_sdk/SoC/evalsoc/Common/Source/system_evalsoc.c:351
{
8000089a:	84ae                	mv	s1,a1
D:\codes\opensource\nuclei_testing\testing2\Debug/../nuclei_sdk/SoC/evalsoc/Common/Source/system_evalsoc.c:362
    printf("ra: 0x%lx, tp: 0x%lx, t0: 0x%lx, t1: 0x%lx, t2: 0x%lx\n" \
8000089c:	400c                	lw	a1,0(s0)
8000089e:	6a7000ef          	jal	80001744 <iprintf>
D:\codes\opensource\nuclei_testing\testing2\Debug/../nuclei_sdk/SoC/evalsoc/Common/Source/system_evalsoc.c:369
    if (PRV_M == mode) {
800008a2:	478d                	li	a5,3
800008a4:	00f48563          	beq	s1,a5,800008ae <Exception_DumpFrame+0x4a>
D:\codes\opensource\nuclei_testing\testing2\Debug/../nuclei_sdk/SoC/evalsoc/Common/Source/system_evalsoc.c:373
}
800008a8:	6105                	add	sp,sp,32
800008aa:	4260506f          	j	80005cd0 <__riscv_restore_0>
D:\codes\opensource\nuclei_testing\testing2\Debug/../nuclei_sdk/SoC/evalsoc/Common/Source/system_evalsoc.c:371
        printf("msubm: 0x%lx\n", exc_frame->msubm);
800008ae:	584c                	lw	a1,52(s0)
800008b0:	8f418513          	add	a0,gp,-1804 # 900002bc <_impure_ptr+0xec>
800008b4:	691000ef          	jal	80001744 <iprintf>
D:\codes\opensource\nuclei_testing\testing2\Debug/../nuclei_sdk/SoC/evalsoc/Common/Source/system_evalsoc.c:373
}
800008b8:	bfc5                	j	800008a8 <Exception_DumpFrame+0x44>
	...

800008bc <system_default_exception_handler>:
system_default_exception_handler():
D:\codes\opensource\nuclei_testing\testing2\Debug/../nuclei_sdk/SoC/evalsoc/Common/Source/system_evalsoc.c:307
{
800008bc:	40a052ef          	jal	t0,80005cc6 <__riscv_save_0>
800008c0:	87aa                	mv	a5,a0
D:\codes\opensource\nuclei_testing\testing2\Debug/../nuclei_sdk/SoC/evalsoc/Common/Source/system_evalsoc.c:309
    printf("MCAUSE : 0x%lx\r\n", mcause);
800008c2:	90418513          	add	a0,gp,-1788 # 900002cc <_impure_ptr+0xfc>
D:\codes\opensource\nuclei_testing\testing2\Debug/../nuclei_sdk/SoC/evalsoc/Common/Source/system_evalsoc.c:307
{
800008c6:	842e                	mv	s0,a1
D:\codes\opensource\nuclei_testing\testing2\Debug/../nuclei_sdk/SoC/evalsoc/Common/Source/system_evalsoc.c:309
    printf("MCAUSE : 0x%lx\r\n", mcause);
800008c8:	85be                	mv	a1,a5
800008ca:	67b000ef          	jal	80001744 <iprintf>
D:\codes\opensource\nuclei_testing\testing2\Debug/../nuclei_sdk/SoC/evalsoc/Common/Source/system_evalsoc.c:310
    printf("MDCAUSE: 0x%lx\r\n", __RV_CSR_READ(CSR_MDCAUSE));
800008ce:	7c9025f3          	csrr	a1,mdcause
800008d2:	91818513          	add	a0,gp,-1768 # 900002e0 <_impure_ptr+0x110>
800008d6:	66f000ef          	jal	80001744 <iprintf>
D:\codes\opensource\nuclei_testing\testing2\Debug/../nuclei_sdk/SoC/evalsoc/Common/Source/system_evalsoc.c:311
    printf("MEPC   : 0x%lx\r\n", __RV_CSR_READ(CSR_MEPC));
800008da:	341025f3          	csrr	a1,mepc
800008de:	92c18513          	add	a0,gp,-1748 # 900002f4 <_impure_ptr+0x124>
800008e2:	663000ef          	jal	80001744 <iprintf>
D:\codes\opensource\nuclei_testing\testing2\Debug/../nuclei_sdk/SoC/evalsoc/Common/Source/system_evalsoc.c:312
    printf("MTVAL  : 0x%lx\r\n", __RV_CSR_READ(CSR_MTVAL));
800008e6:	343025f3          	csrr	a1,mtval
800008ea:	94018513          	add	a0,gp,-1728 # 90000308 <_impure_ptr+0x138>
800008ee:	657000ef          	jal	80001744 <iprintf>
__get_hart_id():
D:\codes\opensource\nuclei_testing\testing2\nuclei_sdk\NMSIS\Core\Include/core_feature_base.h:799
    id = __RV_CSR_READ(CSR_MHARTID);
800008f2:	f14025f3          	csrr	a1,mhartid
system_default_exception_handler():
D:\codes\opensource\nuclei_testing\testing2\Debug/../nuclei_sdk/SoC/evalsoc/Common/Source/system_evalsoc.c:313 (discriminator 1)
    printf("HARTID : %u\r\n", (unsigned int)__get_hart_id());
800008f6:	95418513          	add	a0,gp,-1708 # 9000031c <_impure_ptr+0x14c>
800008fa:	64b000ef          	jal	80001744 <iprintf>
D:\codes\opensource\nuclei_testing\testing2\Debug/../nuclei_sdk/SoC/evalsoc/Common/Source/system_evalsoc.c:314
    Exception_DumpFrame(sp, PRV_M);
800008fe:	458d                	li	a1,3
80000900:	8522                	mv	a0,s0
80000902:	378d                	jal	80000864 <Exception_DumpFrame>
80000904:	a001                	j	80000904 <system_default_exception_handler+0x48>
	...

80000908 <core_exception_handler>:
core_exception_handler():
D:\codes\opensource\nuclei_testing\testing2\Debug/../nuclei_sdk/SoC/evalsoc/Common/Source/system_evalsoc.c:426
    uint32_t EXCn = (uint32_t)(mcause & 0X00000fff);
80000908:	6785                	lui	a5,0x1
8000090a:	17fd                	add	a5,a5,-1 # fff <__HEAP_SIZE+0x7ff>
8000090c:	00f57733          	and	a4,a0,a5
D:\codes\opensource\nuclei_testing\testing2\Debug/../nuclei_sdk/SoC/evalsoc/Common/Source/system_evalsoc.c:429
    if (EXCn < MAX_SYSTEM_EXCEPTION_NUM) {
80000910:	46e5                	li	a3,25
80000912:	00e6ef63          	bltu	a3,a4,80000930 <core_exception_handler+0x28>
D:\codes\opensource\nuclei_testing\testing2\Debug/../nuclei_sdk/SoC/evalsoc/Common/Source/system_evalsoc.c:430
        exc_handler = (EXC_HANDLER)SystemExceptionHandlers[EXCn];
80000916:	f2418793          	add	a5,gp,-220 # 900008ec <SystemExceptionHandlers>
8000091a:	070a                	sll	a4,a4,0x2
8000091c:	97ba                	add	a5,a5,a4
8000091e:	439c                	lw	a5,0(a5)
D:\codes\opensource\nuclei_testing\testing2\Debug/../nuclei_sdk/SoC/evalsoc/Common/Source/system_evalsoc.c:436
    if (exc_handler != NULL) {
80000920:	c785                	beqz	a5,80000948 <core_exception_handler+0x40>
D:\codes\opensource\nuclei_testing\testing2\Debug/../nuclei_sdk/SoC/evalsoc/Common/Source/system_evalsoc.c:425
{
80000922:	3a4052ef          	jal	t0,80005cc6 <__riscv_save_0>
D:\codes\opensource\nuclei_testing\testing2\Debug/../nuclei_sdk/SoC/evalsoc/Common/Source/system_evalsoc.c:437
        exc_handler(mcause, sp);
80000926:	9782                	jalr	a5
D:\codes\opensource\nuclei_testing\testing2\Debug/../nuclei_sdk/SoC/evalsoc/Common/Source/system_evalsoc.c:440
}
80000928:	4501                	li	a0,0
8000092a:	3a60506f          	j	80005cd0 <__riscv_restore_0>
8000092e:	0001                	nop
D:\codes\opensource\nuclei_testing\testing2\Debug/../nuclei_sdk/SoC/evalsoc/Common/Source/system_evalsoc.c:431
    } else if (EXCn == NMI_EXCn) {
80000930:	00f70e63          	beq	a4,a5,8000094c <core_exception_handler+0x44>
D:\codes\opensource\nuclei_testing\testing2\Debug/../nuclei_sdk/SoC/evalsoc/Common/Source/system_evalsoc.c:434
        exc_handler = (EXC_HANDLER)system_default_exception_handler;
80000934:	800017b7          	lui	a5,0x80001
80000938:	8bc78793          	add	a5,a5,-1860 # 800008bc <system_default_exception_handler>
D:\codes\opensource\nuclei_testing\testing2\Debug/../nuclei_sdk/SoC/evalsoc/Common/Source/system_evalsoc.c:425
{
8000093c:	38a052ef          	jal	t0,80005cc6 <__riscv_save_0>
D:\codes\opensource\nuclei_testing\testing2\Debug/../nuclei_sdk/SoC/evalsoc/Common/Source/system_evalsoc.c:437
        exc_handler(mcause, sp);
80000940:	9782                	jalr	a5
D:\codes\opensource\nuclei_testing\testing2\Debug/../nuclei_sdk/SoC/evalsoc/Common/Source/system_evalsoc.c:440
}
80000942:	4501                	li	a0,0
80000944:	38c0506f          	j	80005cd0 <__riscv_restore_0>
80000948:	4501                	li	a0,0
8000094a:	8082                	ret
D:\codes\opensource\nuclei_testing\testing2\Debug/../nuclei_sdk/SoC/evalsoc/Common/Source/system_evalsoc.c:432
        exc_handler = (EXC_HANDLER)SystemExceptionHandlers[MAX_SYSTEM_EXCEPTION_NUM];
8000094c:	f2418793          	add	a5,gp,-220 # 900008ec <SystemExceptionHandlers>
80000950:	57bc                	lw	a5,104(a5)
D:\codes\opensource\nuclei_testing\testing2\Debug/../nuclei_sdk/SoC/evalsoc/Common/Source/system_evalsoc.c:436
    if (exc_handler != NULL) {
80000952:	fbe1                	bnez	a5,80000922 <core_exception_handler+0x1a>
80000954:	bfd5                	j	80000948 <core_exception_handler+0x40>
	...

80000958 <_premain_init>:
__get_hart_id():
D:\codes\opensource\nuclei_testing\testing2\nuclei_sdk\NMSIS\Core\Include/core_feature_base.h:799
80000958:	f1402773          	csrr	a4,mhartid
_premain_init():
D:\codes\opensource\nuclei_testing\testing2\Debug/../nuclei_sdk/SoC/evalsoc/Common/Source/system_evalsoc.c:779
{
    // TODO to make it possible for configurable boot hartid
    unsigned long hartid = __get_hart_id();

    // BOOT_HARTID is defined <Device.h>
    if (hartid == BOOT_HARTID) { // only done in boot hart
8000095c:	ef15                	bnez	a4,80000998 <_premain_init+0x40>
_get_iregion_info():
D:\codes\opensource\nuclei_testing\testing2\Debug/../nuclei_sdk/SoC/evalsoc/Common/Source/system_evalsoc.c:667
    mcfg_info = __RV_CSR_READ(CSR_MCFG_INFO);
8000095e:	fc2027f3          	csrr	a5,mcfg_info
D:\codes\opensource\nuclei_testing\testing2\Debug/../nuclei_sdk/SoC/evalsoc/Common/Source/system_evalsoc.c:668
    if (mcfg_info & MCFG_INFO_IREGION_EXIST) { // IRegion Info present
80000962:	00f79693          	sll	a3,a5,0xf
80000966:	0406de63          	bgez	a3,800009c2 <_premain_init+0x6a>
D:\codes\opensource\nuclei_testing\testing2\Debug/../nuclei_sdk/SoC/evalsoc/Common/Source/system_evalsoc.c:669
        iregion->iregion_base = (__RV_CSR_READ(CSR_MIRGB_INFO) >> 10) << 10;
8000096a:	7f7027f3          	csrr	a5,mirgb_info
8000096e:	c007f793          	and	a5,a5,-1024
80000972:	f1018693          	add	a3,gp,-240 # 900008d8 <SystemIRegionInfo>
D:\codes\opensource\nuclei_testing\testing2\Debug/../nuclei_sdk/SoC/evalsoc/Common/Source/system_evalsoc.c:670
        iregion->eclic_base = iregion->iregion_base + IREGION_ECLIC_OFS;
80000976:	00020637          	lui	a2,0x20
D:\codes\opensource\nuclei_testing\testing2\Debug/../nuclei_sdk/SoC/evalsoc/Common/Source/system_evalsoc.c:669
        iregion->iregion_base = (__RV_CSR_READ(CSR_MIRGB_INFO) >> 10) << 10;
8000097a:	c29c                	sw	a5,0(a3)
D:\codes\opensource\nuclei_testing\testing2\Debug/../nuclei_sdk/SoC/evalsoc/Common/Source/system_evalsoc.c:670
        iregion->eclic_base = iregion->iregion_base + IREGION_ECLIC_OFS;
8000097c:	963e                	add	a2,a2,a5
D:\codes\opensource\nuclei_testing\testing2\Debug/../nuclei_sdk/SoC/evalsoc/Common/Source/system_evalsoc.c:671
        iregion->systimer_base = iregion->iregion_base + IREGION_TIMER_OFS;
8000097e:	000305b7          	lui	a1,0x30
D:\codes\opensource\nuclei_testing\testing2\Debug/../nuclei_sdk/SoC/evalsoc/Common/Source/system_evalsoc.c:670
        iregion->eclic_base = iregion->iregion_base + IREGION_ECLIC_OFS;
80000982:	c2d0                	sw	a2,4(a3)
D:\codes\opensource\nuclei_testing\testing2\Debug/../nuclei_sdk/SoC/evalsoc/Common/Source/system_evalsoc.c:671
        iregion->systimer_base = iregion->iregion_base + IREGION_TIMER_OFS;
80000984:	95be                	add	a1,a1,a5
D:\codes\opensource\nuclei_testing\testing2\Debug/../nuclei_sdk/SoC/evalsoc/Common/Source/system_evalsoc.c:672
        iregion->smp_base = iregion->iregion_base + IREGION_SMP_OFS;
80000986:	00040637          	lui	a2,0x40
D:\codes\opensource\nuclei_testing\testing2\Debug/../nuclei_sdk/SoC/evalsoc/Common/Source/system_evalsoc.c:671
        iregion->systimer_base = iregion->iregion_base + IREGION_TIMER_OFS;
8000098a:	c68c                	sw	a1,8(a3)
D:\codes\opensource\nuclei_testing\testing2\Debug/../nuclei_sdk/SoC/evalsoc/Common/Source/system_evalsoc.c:672
        iregion->smp_base = iregion->iregion_base + IREGION_SMP_OFS;
8000098c:	963e                	add	a2,a2,a5
D:\codes\opensource\nuclei_testing\testing2\Debug/../nuclei_sdk/SoC/evalsoc/Common/Source/system_evalsoc.c:673
        iregion->idu_base = iregion->iregion_base + IREGION_IDU_OFS;
8000098e:	000505b7          	lui	a1,0x50
D:\codes\opensource\nuclei_testing\testing2\Debug/../nuclei_sdk/SoC/evalsoc/Common/Source/system_evalsoc.c:672
        iregion->smp_base = iregion->iregion_base + IREGION_SMP_OFS;
80000992:	c6d0                	sw	a2,12(a3)
D:\codes\opensource\nuclei_testing\testing2\Debug/../nuclei_sdk/SoC/evalsoc/Common/Source/system_evalsoc.c:673
        iregion->idu_base = iregion->iregion_base + IREGION_IDU_OFS;
80000994:	97ae                	add	a5,a5,a1
80000996:	ca9c                	sw	a5,16(a3)
ICachePresent():
D:\codes\opensource\nuclei_testing\testing2\nuclei_sdk\NMSIS\Core\Include/core_feature_cache.h:180
 * - Please make sure the version of your nuclei processor contain ICACHE bit in mcfg_info
 * \return 1 if present otherwise 0
*/
__STATIC_FORCEINLINE int32_t ICachePresent(void)
{
    if (__RV_CSR_READ(CSR_MCFG_INFO) & MCFG_INFO_ICACHE) {
80000998:	fc2027f3          	csrr	a5,mcfg_info
8000099c:	2007f793          	and	a5,a5,512
800009a0:	c399                	beqz	a5,800009a6 <_premain_init+0x4e>
EnableICache():
D:\codes\opensource\nuclei_testing\testing2\nuclei_sdk\NMSIS\Core\Include/core_feature_cache.h:198
 * \sa
 * - \ref DisableICache
*/
__STATIC_FORCEINLINE void EnableICache(void)
{
    __RV_CSR_SET(CSR_MCACHE_CTL, MCACHE_CTL_IC_EN);
800009a2:	7ca0e073          	csrs	mcache_ctl,1
DCachePresent():
D:\codes\opensource\nuclei_testing\testing2\nuclei_sdk\NMSIS\Core\Include/core_feature_cache.h:701
 * - Please make sure the version of your nuclei processor contain DCACHE bit in mcfg_info
 * \return 1 if present otherwise 0
*/
__STATIC_FORCEINLINE int32_t DCachePresent(void)
{
    if (__RV_CSR_READ(CSR_MCFG_INFO) & MCFG_INFO_DCACHE) {
800009a6:	fc2027f3          	csrr	a5,mcfg_info
800009aa:	4007f793          	and	a5,a5,1024
800009ae:	c781                	beqz	a5,800009b6 <_premain_init+0x5e>
EnableDCache():
D:\codes\opensource\nuclei_testing\testing2\nuclei_sdk\NMSIS\Core\Include/core_feature_cache.h:719
 * \sa
 * - \ref DisableDCache
*/
__STATIC_FORCEINLINE void EnableDCache(void)
{
    __RV_CSR_SET(CSR_MCACHE_CTL, MCACHE_CTL_DC_EN);
800009b0:	67c1                	lui	a5,0x10
800009b2:	7ca7a073          	csrs	mcache_ctl,a5
_premain_init():
D:\codes\opensource\nuclei_testing\testing2\Debug/../nuclei_sdk/SoC/evalsoc/Common/Source/system_evalsoc.c:818
        EnableDCache();
    }
#endif

    /* Do fence and fence.i to make sure previous ilm/dlm/icache/dcache control done */
    __RWMB();
800009b6:	0ff0000f          	fence
__FENCE_I():
D:\codes\opensource\nuclei_testing\testing2\nuclei_sdk\NMSIS\Core\Include/core_feature_base.h:1477
    __ASM volatile("fence.i");
800009ba:	0000100f          	.insn	4, 0x100f
_premain_init():
D:\codes\opensource\nuclei_testing\testing2\Debug/../nuclei_sdk/SoC/evalsoc/Common/Source/system_evalsoc.c:821
    __FENCE_I();

    if (hartid == BOOT_HARTID) { // only required for boot hartid
800009be:	cb19                	beqz	a4,800009d4 <_premain_init+0x7c>
800009c0:	8082                	ret
_get_iregion_info():
D:\codes\opensource\nuclei_testing\testing2\Debug/../nuclei_sdk/SoC/evalsoc/Common/Source/system_evalsoc.c:675
        iregion->eclic_base = FALLBACK_DEFAULT_ECLIC_BASE;
800009c2:	f1018793          	add	a5,gp,-240 # 900008d8 <SystemIRegionInfo>
800009c6:	0c0006b7          	lui	a3,0xc000
800009ca:	c3d4                	sw	a3,4(a5)
D:\codes\opensource\nuclei_testing\testing2\Debug/../nuclei_sdk/SoC/evalsoc/Common/Source/system_evalsoc.c:676
        iregion->systimer_base = FALLBACK_DEFAULT_SYSTIMER_BASE;
800009cc:	020006b7          	lui	a3,0x2000
800009d0:	c794                	sw	a3,8(a5)
800009d2:	b7d9                	j	80000998 <_premain_init+0x40>
_premain_init():
D:\codes\opensource\nuclei_testing\testing2\Debug/../nuclei_sdk/SoC/evalsoc/Common/Source/system_evalsoc.c:774
{
800009d4:	2f2052ef          	jal	t0,80005cc6 <__riscv_save_0>
D:\codes\opensource\nuclei_testing\testing2\Debug/../nuclei_sdk/SoC/evalsoc/Common/Source/system_evalsoc.c:823
        // TODO implement get_cpu_freq function to get real cpu clock freq in HZ or directly give the real cpu HZ
        SystemCoreClock = get_cpu_freq();
800009d8:	3d25                	jal	80000810 <get_cpu_freq>
D:\codes\opensource\nuclei_testing\testing2\Debug/../nuclei_sdk/SoC/evalsoc/Common/Source/system_evalsoc.c:824
        uart_init(SOC_DEBUG_UART, 115200);
800009da:	65f1                	lui	a1,0x1c
D:\codes\opensource\nuclei_testing\testing2\Debug/../nuclei_sdk/SoC/evalsoc/Common/Source/system_evalsoc.c:823
        SystemCoreClock = get_cpu_freq();
800009dc:	87aa                	mv	a5,a0
D:\codes\opensource\nuclei_testing\testing2\Debug/../nuclei_sdk/SoC/evalsoc/Common/Source/system_evalsoc.c:823 (discriminator 1)
800009de:	90000437          	lui	s0,0x90000
D:\codes\opensource\nuclei_testing\testing2\Debug/../nuclei_sdk/SoC/evalsoc/Common/Source/system_evalsoc.c:824
        uart_init(SOC_DEBUG_UART, 115200);
800009e2:	20058593          	add	a1,a1,512 # 1c200 <__HEAP_SIZE+0x1ba00>
800009e6:	10013537          	lui	a0,0x10013
D:\codes\opensource\nuclei_testing\testing2\Debug/../nuclei_sdk/SoC/evalsoc/Common/Source/system_evalsoc.c:823 (discriminator 1)
        SystemCoreClock = get_cpu_freq();
800009ea:	1cf42623          	sw	a5,460(s0) # 900001cc <SystemCoreClock>
D:\codes\opensource\nuclei_testing\testing2\Debug/../nuclei_sdk/SoC/evalsoc/Common/Source/system_evalsoc.c:824
        uart_init(SOC_DEBUG_UART, 115200);
800009ee:	394d                	jal	800006a0 <uart_init>
SystemBannerPrint():
D:\codes\opensource\nuclei_testing\testing2\Debug/../nuclei_sdk/SoC/evalsoc/Common/Source/system_evalsoc.c:536
    printf("Nuclei SDK Build Time: %s, %s\r\n", __DATE__, __TIME__);
800009f0:	96418613          	add	a2,gp,-1692 # 9000032c <_impure_ptr+0x15c>
800009f4:	97018593          	add	a1,gp,-1680 # 90000338 <_impure_ptr+0x168>
800009f8:	97c18513          	add	a0,gp,-1668 # 90000344 <_impure_ptr+0x174>
800009fc:	549000ef          	jal	80001744 <iprintf>
D:\codes\opensource\nuclei_testing\testing2\Debug/../nuclei_sdk/SoC/evalsoc/Common/Source/system_evalsoc.c:538
    printf("Download Mode: %s\r\n", DOWNLOAD_MODE_STRING);
80000a00:	99c18593          	add	a1,gp,-1636 # 90000364 <_impure_ptr+0x194>
80000a04:	9a018513          	add	a0,gp,-1632 # 90000368 <_impure_ptr+0x198>
80000a08:	53d000ef          	jal	80001744 <iprintf>
D:\codes\opensource\nuclei_testing\testing2\Debug/../nuclei_sdk/SoC/evalsoc/Common/Source/system_evalsoc.c:540
    printf("CPU Frequency %u Hz\r\n", (unsigned int)SystemCoreClock);
80000a0c:	1cc42583          	lw	a1,460(s0)
80000a10:	9b418513          	add	a0,gp,-1612 # 9000037c <_impure_ptr+0x1ac>
80000a14:	531000ef          	jal	80001744 <iprintf>
__get_hart_id():
D:\codes\opensource\nuclei_testing\testing2\nuclei_sdk\NMSIS\Core\Include/core_feature_base.h:799
    id = __RV_CSR_READ(CSR_MHARTID);
80000a18:	f14025f3          	csrr	a1,mhartid
SystemBannerPrint():
D:\codes\opensource\nuclei_testing\testing2\Debug/../nuclei_sdk/SoC/evalsoc/Common/Source/system_evalsoc.c:541 (discriminator 1)
    printf("CPU HartID: %u\r\n", (unsigned int)__get_hart_id());
80000a1c:	9cc18513          	add	a0,gp,-1588 # 90000394 <_impure_ptr+0x1c4>
80000a20:	525000ef          	jal	80001744 <iprintf>
Exception_Init():
D:\codes\opensource\nuclei_testing\testing2\Debug/../nuclei_sdk/SoC/evalsoc/Common/Source/system_evalsoc.c:335
        SystemExceptionHandlers[i] = (unsigned long)system_default_exception_handler;
80000a24:	80001737          	lui	a4,0x80001
80000a28:	f2418693          	add	a3,gp,-220 # 900008ec <SystemExceptionHandlers>
80000a2c:	8bc70713          	add	a4,a4,-1860 # 800008bc <system_default_exception_handler>
80000a30:	06868613          	add	a2,a3,104 # 2000068 <__HEAP_SIZE+0x1fff868>
80000a34:	c298                	sw	a4,0(a3)
80000a36:	c2d8                	sw	a4,4(a3)
D:\codes\opensource\nuclei_testing\testing2\Debug/../nuclei_sdk/SoC/evalsoc/Common/Source/system_evalsoc.c:334 (discriminator 1)
    for (int i = 0; i < MAX_SYSTEM_EXCEPTION_NUM; i++) {
80000a38:	00868793          	add	a5,a3,8
D:\codes\opensource\nuclei_testing\testing2\Debug/../nuclei_sdk/SoC/evalsoc/Common/Source/system_evalsoc.c:335
        SystemExceptionHandlers[i] = (unsigned long)system_default_exception_handler;
80000a3c:	c398                	sw	a4,0(a5)
80000a3e:	c3d8                	sw	a4,4(a5)
80000a40:	c798                	sw	a4,8(a5)
80000a42:	c7d8                	sw	a4,12(a5)
80000a44:	cb98                	sw	a4,16(a5)
80000a46:	cbd8                	sw	a4,20(a5)
80000a48:	cf98                	sw	a4,24(a5)
80000a4a:	cfd8                	sw	a4,28(a5)
D:\codes\opensource\nuclei_testing\testing2\Debug/../nuclei_sdk/SoC/evalsoc/Common/Source/system_evalsoc.c:334 (discriminator 1)
    for (int i = 0; i < MAX_SYSTEM_EXCEPTION_NUM; i++) {
80000a4c:	02078793          	add	a5,a5,32 # 10020 <__HEAP_SIZE+0xf820>
80000a50:	fec796e3          	bne	a5,a2,80000a3c <_premain_init+0xe4>
__ECLIC_SetMth():
D:\codes\opensource\nuclei_testing\testing2\nuclei_sdk\NMSIS\Core\Include/core_feature_eclic.h:393
 * \sa
 * - \ref ECLIC_GetMth
 */
__STATIC_FORCEINLINE void __ECLIC_SetMth(uint8_t mth)
{
    ECLIC->MTH = mth;
80000a54:	f1018793          	add	a5,gp,-240 # 900008d8 <SystemIRegionInfo>
Exception_Init():
D:\codes\opensource\nuclei_testing\testing2\Debug/../nuclei_sdk/SoC/evalsoc/Common/Source/system_evalsoc.c:340
    SystemExceptionHandlers[MAX_SYSTEM_EXCEPTION_NUM] = (unsigned long)system_default_exception_handler;
80000a58:	d6b8                	sw	a4,104(a3)
__ECLIC_SetMth():
D:\codes\opensource\nuclei_testing\testing2\nuclei_sdk\NMSIS\Core\Include/core_feature_eclic.h:393
80000a5a:	43d8                	lw	a4,4(a5)
80000a5c:	000705a3          	sb	zero,11(a4)
__ECLIC_GetInfoCtlbits():
D:\codes\opensource\nuclei_testing\testing2\nuclei_sdk\NMSIS\Core\Include/core_feature_eclic.h:364
    return ((uint32_t)((ECLIC->INFO & CLIC_CLICINFO_CTLBIT_Msk) >> CLIC_CLICINFO_CTLBIT_Pos));
80000a60:	43d8                	lw	a4,4(a5)
80000a62:	4358                	lw	a4,4(a4)
__ECLIC_SetCfgNlbits():
D:\codes\opensource\nuclei_testing\testing2\nuclei_sdk\NMSIS\Core\Include/core_feature_eclic.h:315
    ECLIC->CFG &= ~CLIC_CLICCFG_NLBIT_Msk;
80000a64:	43d0                	lw	a2,4(a5)
80000a66:	00064683          	lbu	a3,0(a2) # 40000 <__HEAP_SIZE+0x3f800>
80000a6a:	0e16f693          	and	a3,a3,225
80000a6e:	00d60023          	sb	a3,0(a2)
D:\codes\opensource\nuclei_testing\testing2\nuclei_sdk\NMSIS\Core\Include/core_feature_eclic.h:316
    ECLIC->CFG |= (uint8_t)((nlbits <<CLIC_CLICCFG_NLBIT_Pos) & CLIC_CLICCFG_NLBIT_Msk);
80000a72:	43d4                	lw	a3,4(a5)
__ECLIC_GetInfoCtlbits():
D:\codes\opensource\nuclei_testing\testing2\nuclei_sdk\NMSIS\Core\Include/core_feature_eclic.h:364
    return ((uint32_t)((ECLIC->INFO & CLIC_CLICINFO_CTLBIT_Msk) >> CLIC_CLICINFO_CTLBIT_Pos));
80000a74:	01475793          	srl	a5,a4,0x14
__ECLIC_SetCfgNlbits():
D:\codes\opensource\nuclei_testing\testing2\nuclei_sdk\NMSIS\Core\Include/core_feature_eclic.h:316
    ECLIC->CFG |= (uint8_t)((nlbits <<CLIC_CLICCFG_NLBIT_Pos) & CLIC_CLICCFG_NLBIT_Msk);
80000a78:	8bf9                	and	a5,a5,30
80000a7a:	0006c703          	lbu	a4,0(a3)
80000a7e:	8fd9                	or	a5,a5,a4
80000a80:	00f68023          	sb	a5,0(a3)
_premain_init():
D:\codes\opensource\nuclei_testing\testing2\Debug/../nuclei_sdk/SoC/evalsoc/Common/Source/system_evalsoc.c:842
        printf("CSR: MILM_CTL 0x%x, MDLM_CTL 0x%x, MCACHE_CTL 0x%x\n", \
            __RV_CSR_READ(CSR_MILM_CTL), __RV_CSR_READ(CSR_MDLM_CTL), \
            __RV_CSR_READ(CSR_MCACHE_CTL));
#endif
    }
}
80000a84:	24c0506f          	j	80005cd0 <__riscv_restore_0>

80000a88 <_postmain_fini>:
_postmain_fini():
D:\codes\opensource\nuclei_testing\testing2\Debug/../nuclei_sdk/SoC/evalsoc/Common/Source/system_evalsoc.c:857
 */
void _postmain_fini(int status)
{
    /* TODO: Add your own finishing code here, called after main */
    extern void simulation_exit(int status);
    simulation_exit(status);
80000a88:	bb71                	j	80000824 <simulation_exit>
	...

80000a8c <_init>:
_init():
D:\codes\opensource\nuclei_testing\testing2\Debug/../nuclei_sdk/SoC/evalsoc/Common/Source/system_evalsoc.c:872
 * Please use \ref _premain_init function now
 */
void _init(void)
{
    /* Don't put any code here, please use _premain_init now */
}
80000a8c:	8082                	ret
	...

80000a90 <_fini>:
_fini():
D:\codes\opensource\nuclei_testing\testing2\Debug/../nuclei_sdk/SoC/evalsoc/Common/Source/system_evalsoc.c:883
 * user need to implement this function, otherwise when link it will
 * error fini.c:(.text.__libc_fini_array+0x28): undefined reference to `_fini'
 * \note
 * Please use \ref _postmain_fini function now
 */
void _fini(void)
80000a90:	8082                	ret
	...

80000a94 <dtof_ram_io_read.constprop.0>:
dtof_ram_io_read():
D:\codes\opensource\nuclei_testing\testing2\Debug/../application/fifo.c:17
// reg read
 __attribute__((noinline)) void dtof_ram_io_read(sal_uint16_t address, sal_uint16_t * value_p, sal_uint16_t len) {
    sal_uint16_t index = 0;
    sal_uint16_t bnk_status;
     // write the address to 0xfe
    (*((volatile sal_uint16_t *)(4))) = address;
80000a94:	00001223          	sh	zero,4(zero) # 4 <__SMP_CPU_CNT+0x3>
D:\codes\opensource\nuclei_testing\testing2\Debug/../application/fifo.c:21

     // read the value from 0xff
    for(index = 0; index < len ; index++) {
        value_p[index] = HW16_REG(6);
80000a98:	00605783          	lhu	a5,6(zero) # 6 <__SMP_CPU_CNT+0x5>
80000a9c:	00f51023          	sh	a5,0(a0) # 10013000 <__HEAP_SIZE+0x10012800>
80000aa0:	00605783          	lhu	a5,6(zero) # 6 <__SMP_CPU_CNT+0x5>
80000aa4:	00f51123          	sh	a5,2(a0)
80000aa8:	00605783          	lhu	a5,6(zero) # 6 <__SMP_CPU_CNT+0x5>
80000aac:	00f51223          	sh	a5,4(a0)
80000ab0:	00605783          	lhu	a5,6(zero) # 6 <__SMP_CPU_CNT+0x5>
80000ab4:	00f51323          	sh	a5,6(a0)
80000ab8:	00605783          	lhu	a5,6(zero) # 6 <__SMP_CPU_CNT+0x5>
80000abc:	00f51423          	sh	a5,8(a0)
80000ac0:	00605783          	lhu	a5,6(zero) # 6 <__SMP_CPU_CNT+0x5>
80000ac4:	00f51523          	sh	a5,10(a0)
80000ac8:	00605783          	lhu	a5,6(zero) # 6 <__SMP_CPU_CNT+0x5>
80000acc:	00f51623          	sh	a5,12(a0)
80000ad0:	00605783          	lhu	a5,6(zero) # 6 <__SMP_CPU_CNT+0x5>
80000ad4:	00f51723          	sh	a5,14(a0)
D:\codes\opensource\nuclei_testing\testing2\Debug/../application/fifo.c:25
    }

    return;
}
80000ad8:	8082                	ret
	...

80000adc <dtof_fifo_io_read.constprop.0>:
dtof_fifo_io_read():
D:\codes\opensource\nuclei_testing\testing2\Debug/../application/fifo.c:29


 __attribute__((noinline)) void dtof_fifo_io_read(sal_uint16_t * value_p, sal_uint16_t len){
    dtof_ram_io_read(0, value_p, len);
80000adc:	bf65                	j	80000a94 <dtof_ram_io_read.constprop.0>
	...

80000ae0 <MergeIntegerDecimals>:
MergeIntegerDecimals():
D:\codes\opensource\nuclei_testing\testing2\Debug/../application/fifo.c:38



 __attribute__((noinline)) sal_uint32_t MergeIntegerDecimals(sal_uint16_t x, sal_uint16_t y, sal_uint16_t s)
{
    if(s == 1){
80000ae0:	4785                	li	a5,1
D:\codes\opensource\nuclei_testing\testing2\Debug/../application/fifo.c:39
        return ((x << 9) - y);
80000ae2:	0526                	sll	a0,a0,0x9
D:\codes\opensource\nuclei_testing\testing2\Debug/../application/fifo.c:38
    if(s == 1){
80000ae4:	00f60463          	beq	a2,a5,80000aec <MergeIntegerDecimals+0xc>
D:\codes\opensource\nuclei_testing\testing2\Debug/../application/fifo.c:41
    }else{
        return ((x << 9) + y);
80000ae8:	952e                	add	a0,a0,a1
D:\codes\opensource\nuclei_testing\testing2\Debug/../application/fifo.c:43
    }
}
80000aea:	8082                	ret
D:\codes\opensource\nuclei_testing\testing2\Debug/../application/fifo.c:39
        return ((x << 9) - y);
80000aec:	8d0d                	sub	a0,a0,a1
80000aee:	8082                	ret

80000af0 <jingan_fifo_decode>:
jingan_fifo_decode():
D:\codes\opensource\nuclei_testing\testing2\Debug/../application/fifo.c:45

void jingan_fifo_decode(dsh_output_fifo_t * fifo_info) {
80000af0:	1d6052ef          	jal	t0,80005cc6 <__riscv_save_0>
80000af4:	f9410113          	add	sp,sp,-108
80000af8:	842a                	mv	s0,a0
D:\codes\opensource\nuclei_testing\testing2\Debug/../application/fifo.c:49
    // int ret = SAL_RET_ERROR;
    dsh_jingan_fifo_inf_t hslinfo;

    dtof_fifo_io_read((sal_uint16_t *)&hslinfo, 8);
80000afa:	1848                	add	a0,sp,52
80000afc:	37c5                	jal	80000adc <dtof_fifo_io_read.constprop.0>
D:\codes\opensource\nuclei_testing\testing2\Debug/../application/fifo.c:51

    fifo_info->frameid  =  hslinfo.frameId;
80000afe:	03415783          	lhu	a5,52(sp)
D:\codes\opensource\nuclei_testing\testing2\Debug/../application/fifo.c:52
     fifo_info->mp0 = MergeIntegerDecimals(hslinfo.roimdqlf0andmmxpf0.pos, hslinfo.saSgnRO0andsubAccRO0.accpos, hslinfo.saSgnRO0andsubAccRO0.positve);
80000b02:	4706                	lw	a4,64(sp)
80000b04:	05b14683          	lbu	a3,91(sp)
80000b08:	05a14283          	lbu	t0,90(sp)
80000b0c:	1ff77513          	and	a0,a4,511
80000b10:	c23a                	sw	a4,4(sp)
80000b12:	0016f713          	and	a4,a3,1
80000b16:	0ff2f593          	zext.b	a1,t0
80000b1a:	863a                	mv	a2,a4
D:\codes\opensource\nuclei_testing\testing2\Debug/../application/fifo.c:51
    fifo_info->frameid  =  hslinfo.frameId;
80000b1c:	00f41023          	sh	a5,0(s0)
D:\codes\opensource\nuclei_testing\testing2\Debug/../application/fifo.c:52
     fifo_info->mp0 = MergeIntegerDecimals(hslinfo.roimdqlf0andmmxpf0.pos, hslinfo.saSgnRO0andsubAccRO0.accpos, hslinfo.saSgnRO0andsubAccRO0.positve);
80000b20:	02511323          	sh	t0,38(sp)
80000b24:	c03a                	sw	a4,0(sp)
80000b26:	d42a                	sw	a0,40(sp)
80000b28:	3f65                	jal	80000ae0 <MergeIntegerDecimals>
D:\codes\opensource\nuclei_testing\testing2\Debug/../application/fifo.c:53
     fifo_info->sp0 = MergeIntegerDecimals(hslinfo.roiSDqlf0andSMXF0.pos, hslinfo.saSgnR01andsubAccR01.accpos, hslinfo.saSgnR01andsubAccR01.positve);
80000b2a:	4712                	lw	a4,4(sp)
80000b2c:	44f6                	lw	s1,92(sp)
80000b2e:	01075693          	srl	a3,a4,0x10
80000b32:	0084d793          	srl	a5,s1,0x8
80000b36:	05c14303          	lbu	t1,92(sp)
80000b3a:	8b85                	and	a5,a5,1
80000b3c:	d03a                	sw	a4,32(sp)
80000b3e:	1ff6f713          	and	a4,a3,511
80000b42:	0ff37593          	zext.b	a1,t1
80000b46:	863e                	mv	a2,a5
D:\codes\opensource\nuclei_testing\testing2\Debug/../application/fifo.c:52 (discriminator 1)
     fifo_info->mp0 = MergeIntegerDecimals(hslinfo.roimdqlf0andmmxpf0.pos, hslinfo.saSgnRO0andsubAccRO0.accpos, hslinfo.saSgnRO0andsubAccRO0.positve);
80000b48:	c048                	sw	a0,4(s0)
D:\codes\opensource\nuclei_testing\testing2\Debug/../application/fifo.c:53
     fifo_info->sp0 = MergeIntegerDecimals(hslinfo.roiSDqlf0andSMXF0.pos, hslinfo.saSgnR01andsubAccR01.accpos, hslinfo.saSgnR01andsubAccR01.positve);
80000b4a:	853a                	mv	a0,a4
80000b4c:	02611223          	sh	t1,36(sp)
80000b50:	d63a                	sw	a4,44(sp)
80000b52:	c23e                	sw	a5,4(sp)
80000b54:	3771                	jal	80000ae0 <MergeIntegerDecimals>
D:\codes\opensource\nuclei_testing\testing2\Debug/../application/fifo.c:54
     fifo_info->tp0 = MergeIntegerDecimals(hslinfo.roiTDqlf0andtmxpF0.pos, hslinfo.saSgnR02andsubAccR02.accpos, hslinfo.saSgnR02andsubAccR02.positve);
80000b56:	4796                	lw	a5,68(sp)
80000b58:	1ff7f713          	and	a4,a5,511
80000b5c:	80e1                	srl	s1,s1,0x18
80000b5e:	0014f693          	and	a3,s1,1
80000b62:	ce3e                	sw	a5,28(sp)
80000b64:	d83a                	sw	a4,48(sp)
80000b66:	87ba                	mv	a5,a4
80000b68:	05e14703          	lbu	a4,94(sp)
80000b6c:	8636                	mv	a2,a3
80000b6e:	0ff77593          	zext.b	a1,a4
D:\codes\opensource\nuclei_testing\testing2\Debug/../application/fifo.c:53 (discriminator 1)
     fifo_info->sp0 = MergeIntegerDecimals(hslinfo.roiSDqlf0andSMXF0.pos, hslinfo.saSgnR01andsubAccR01.accpos, hslinfo.saSgnR01andsubAccR01.positve);
80000b72:	c408                	sw	a0,8(s0)
D:\codes\opensource\nuclei_testing\testing2\Debug/../application/fifo.c:54
     fifo_info->tp0 = MergeIntegerDecimals(hslinfo.roiTDqlf0andtmxpF0.pos, hslinfo.saSgnR02andsubAccR02.accpos, hslinfo.saSgnR02andsubAccR02.positve);
80000b74:	853e                	mv	a0,a5
80000b76:	00e11a23          	sh	a4,20(sp)
80000b7a:	c436                	sw	a3,8(sp)
80000b7c:	3795                	jal	80000ae0 <MergeIntegerDecimals>
D:\codes\opensource\nuclei_testing\testing2\Debug/../application/fifo.c:55
     fifo_info->mp1 = MergeIntegerDecimals(hslinfo.roiMDqlf1andmmxpF1.pos, hslinfo.saSgnR10andsubAccR10.accpos, hslinfo.saSgnR10andsubAccR10.positve);
80000b7e:	5386                	lw	t2,96(sp)
80000b80:	44c6                	lw	s1,80(sp)
80000b82:	0083d693          	srl	a3,t2,0x8
80000b86:	0104d613          	srl	a2,s1,0x10
80000b8a:	1ff67793          	and	a5,a2,511
80000b8e:	06014703          	lbu	a4,96(sp)
80000b92:	8a85                	and	a3,a3,1
80000b94:	8636                	mv	a2,a3
80000b96:	0ff77593          	zext.b	a1,a4
D:\codes\opensource\nuclei_testing\testing2\Debug/../application/fifo.c:54 (discriminator 1)
     fifo_info->tp0 = MergeIntegerDecimals(hslinfo.roiTDqlf0andtmxpF0.pos, hslinfo.saSgnR02andsubAccR02.accpos, hslinfo.saSgnR02andsubAccR02.positve);
80000b9a:	c448                	sw	a0,12(s0)
D:\codes\opensource\nuclei_testing\testing2\Debug/../application/fifo.c:55
     fifo_info->mp1 = MergeIntegerDecimals(hslinfo.roiMDqlf1andmmxpF1.pos, hslinfo.saSgnR10andsubAccR10.accpos, hslinfo.saSgnR10andsubAccR10.positve);
80000b9c:	853e                	mv	a0,a5
80000b9e:	cc1e                	sw	t2,24(sp)
80000ba0:	c63e                	sw	a5,12(sp)
80000ba2:	00e11b23          	sh	a4,22(sp)
80000ba6:	c836                	sw	a3,16(sp)
80000ba8:	3f25                	jal	80000ae0 <MergeIntegerDecimals>
D:\codes\opensource\nuclei_testing\testing2\Debug/../application/fifo.c:60

    // encode hist values
    fifo_info->chanPeakinfo[0].peakshist[0] =  hslinfo.mmxvR0; // mv0
    fifo_info->chanPeakinfo[0].peakshist[1] =  hslinfo.smxvR0; // sv0
    fifo_info->chanPeakinfo[0].peakshist[2] =  hslinfo.tmxvR0; // tv0
80000baa:	03a15583          	lhu	a1,58(sp)
D:\codes\opensource\nuclei_testing\testing2\Debug/../application/fifo.c:61
    fifo_info->chanPeakinfo[0].flashcount  =  hslinfo.hgmFlsCntR0;
80000bae:	04615603          	lhu	a2,70(sp)
D:\codes\opensource\nuclei_testing\testing2\Debug/../application/fifo.c:65
    // init flag
    fifo_info->chanPeakinfo[0].peakstatus = 0;
    // encode peakspos
    if (!!(hslinfo.roimdqlf0andmmxpf0.valid&0x01)) {
80000bb2:	5702                	lw	a4,32(sp)
D:\codes\opensource\nuclei_testing\testing2\Debug/../application/fifo.c:58
    fifo_info->chanPeakinfo[0].peakshist[0] =  hslinfo.mmxvR0; // mv0
80000bb4:	03612783          	lw	a5,54(sp)
D:\codes\opensource\nuclei_testing\testing2\Debug/../application/fifo.c:65
    if (!!(hslinfo.roimdqlf0andmmxpf0.valid&0x01)) {
80000bb8:	00975693          	srl	a3,a4,0x9
D:\codes\opensource\nuclei_testing\testing2\Debug/../application/fifo.c:58
    fifo_info->chanPeakinfo[0].peakshist[0] =  hslinfo.mmxvR0; // mv0
80000bbc:	cc5c                	sw	a5,28(s0)
D:\codes\opensource\nuclei_testing\testing2\Debug/../application/fifo.c:55 (discriminator 1)
     fifo_info->mp1 = MergeIntegerDecimals(hslinfo.roiMDqlf1andmmxpF1.pos, hslinfo.saSgnR10andsubAccR10.accpos, hslinfo.saSgnR10andsubAccR10.positve);
80000bbe:	c808                	sw	a0,16(s0)
D:\codes\opensource\nuclei_testing\testing2\Debug/../application/fifo.c:60
    fifo_info->chanPeakinfo[0].peakshist[2] =  hslinfo.tmxvR0; // tv0
80000bc0:	02b41023          	sh	a1,32(s0)
D:\codes\opensource\nuclei_testing\testing2\Debug/../application/fifo.c:61
    fifo_info->chanPeakinfo[0].flashcount  =  hslinfo.hgmFlsCntR0;
80000bc4:	cc10                	sw	a2,24(s0)
D:\codes\opensource\nuclei_testing\testing2\Debug/../application/fifo.c:63
    fifo_info->chanPeakinfo[0].peakstatus = 0;
80000bc6:	00041a23          	sh	zero,20(s0)
D:\codes\opensource\nuclei_testing\testing2\Debug/../application/fifo.c:65
    if (!!(hslinfo.roimdqlf0andmmxpf0.valid&0x01)) {
80000bca:	8a85                	and	a3,a3,1
80000bcc:	02415303          	lhu	t1,36(sp)
80000bd0:	02615283          	lhu	t0,38(sp)
80000bd4:	43e2                	lw	t2,24(sp)
80000bd6:	47f2                	lw	a5,28(sp)
80000bd8:	14068c63          	beqz	a3,80000d30 <jingan_fifo_decode+0x240>
D:\codes\opensource\nuclei_testing\testing2\Debug/../application/fifo.c:67
        fifo_info->chanPeakinfo[0].peakspos[0] =  hslinfo.roimdqlf0andmmxpf0.pos;
        fifo_info->chanPeakinfo[0].peakstatus |= DSH_FIFO_MAIN_POSITION;
80000bdc:	4585                	li	a1,1
D:\codes\opensource\nuclei_testing\testing2\Debug/../application/fifo.c:66
        fifo_info->chanPeakinfo[0].peakspos[0] =  hslinfo.roimdqlf0andmmxpf0.pos;
80000bde:	5522                	lw	a0,40(sp)
D:\codes\opensource\nuclei_testing\testing2\Debug/../application/fifo.c:67
        fifo_info->chanPeakinfo[0].peakstatus |= DSH_FIFO_MAIN_POSITION;
80000be0:	460d                	li	a2,3
80000be2:	86ae                	mv	a3,a1
D:\codes\opensource\nuclei_testing\testing2\Debug/../application/fifo.c:66
        fifo_info->chanPeakinfo[0].peakspos[0] =  hslinfo.roimdqlf0andmmxpf0.pos;
80000be4:	02a41123          	sh	a0,34(s0)
D:\codes\opensource\nuclei_testing\testing2\Debug/../application/fifo.c:67
        fifo_info->chanPeakinfo[0].peakstatus |= DSH_FIFO_MAIN_POSITION;
80000be8:	00b41a23          	sh	a1,20(s0)
D:\codes\opensource\nuclei_testing\testing2\Debug/../application/fifo.c:70
    }

    if (!!(hslinfo.roiSDqlf0andSMXF0.valid&0x01)) {
80000bec:	00671593          	sll	a1,a4,0x6
80000bf0:	0005d863          	bgez	a1,80000c00 <jingan_fifo_decode+0x110>
D:\codes\opensource\nuclei_testing\testing2\Debug/../application/fifo.c:71
        fifo_info->chanPeakinfo[0].peakspos[1] =  hslinfo.roiSDqlf0andSMXF0.pos;
80000bf4:	5732                	lw	a4,44(sp)
D:\codes\opensource\nuclei_testing\testing2\Debug/../application/fifo.c:72
        fifo_info->chanPeakinfo[0].peakstatus |= DSH_FIFO_SECOND_POSITION;
80000bf6:	86b2                	mv	a3,a2
D:\codes\opensource\nuclei_testing\testing2\Debug/../application/fifo.c:71
        fifo_info->chanPeakinfo[0].peakspos[1] =  hslinfo.roiSDqlf0andSMXF0.pos;
80000bf8:	02e41223          	sh	a4,36(s0)
D:\codes\opensource\nuclei_testing\testing2\Debug/../application/fifo.c:72
        fifo_info->chanPeakinfo[0].peakstatus |= DSH_FIFO_SECOND_POSITION;
80000bfc:	00c41a23          	sh	a2,20(s0)
D:\codes\opensource\nuclei_testing\testing2\Debug/../application/fifo.c:75
    }

    if (!!(hslinfo.roiTDqlf0andtmxpF0.valid&0x01)) {
80000c00:	83a5                	srl	a5,a5,0x9
80000c02:	8b85                	and	a5,a5,1
80000c04:	cb91                	beqz	a5,80000c18 <jingan_fifo_decode+0x128>
D:\codes\opensource\nuclei_testing\testing2\Debug/../application/fifo.c:77
        fifo_info->chanPeakinfo[0].peakspos[2] =  hslinfo.roiTDqlf0andtmxpF0.pos;
        fifo_info->chanPeakinfo[0].peakstatus |= DSH_FIFO_THIRD_POSITION;
80000c06:	0046e693          	or	a3,a3,4
80000c0a:	06c2                	sll	a3,a3,0x10
80000c0c:	82c1                	srl	a3,a3,0x10
D:\codes\opensource\nuclei_testing\testing2\Debug/../application/fifo.c:76
        fifo_info->chanPeakinfo[0].peakspos[2] =  hslinfo.roiTDqlf0andtmxpF0.pos;
80000c0e:	57c2                	lw	a5,48(sp)
80000c10:	02f41323          	sh	a5,38(s0)
D:\codes\opensource\nuclei_testing\testing2\Debug/../application/fifo.c:77
        fifo_info->chanPeakinfo[0].peakstatus |= DSH_FIFO_THIRD_POSITION;
80000c14:	00d41a23          	sh	a3,20(s0)
D:\codes\opensource\nuclei_testing\testing2\Debug/../application/fifo.c:81
    }

    // encode acc
    if (!!(hslinfo.saSgnRO0andsubAccRO0.positve&0x01)) {
80000c18:	4782                	lw	a5,0(sp)
80000c1a:	c799                	beqz	a5,80000c28 <jingan_fifo_decode+0x138>
D:\codes\opensource\nuclei_testing\testing2\Debug/../application/fifo.c:82
        fifo_info->chanPeakinfo[0].peakstatus |= DSH_FIFO_MAIN_ACCURACY;
80000c1c:	0106e693          	or	a3,a3,16
80000c20:	06c2                	sll	a3,a3,0x10
80000c22:	82c1                	srl	a3,a3,0x10
80000c24:	00d41a23          	sh	a3,20(s0)
D:\codes\opensource\nuclei_testing\testing2\Debug/../application/fifo.c:84
    }
    fifo_info->chanPeakinfo[0].peaksaccpos[0] =  hslinfo.saSgnRO0andsubAccRO0.accpos;
80000c28:	02541423          	sh	t0,40(s0)
D:\codes\opensource\nuclei_testing\testing2\Debug/../application/fifo.c:86

    if (!!(hslinfo.saSgnR01andsubAccR01.positve&0x01)) {
80000c2c:	4792                	lw	a5,4(sp)
80000c2e:	c799                	beqz	a5,80000c3c <jingan_fifo_decode+0x14c>
D:\codes\opensource\nuclei_testing\testing2\Debug/../application/fifo.c:87
        fifo_info->chanPeakinfo[0].peakstatus |= DSH_FIFO_SECOND_ACCURACY;
80000c30:	0206e693          	or	a3,a3,32
80000c34:	06c2                	sll	a3,a3,0x10
80000c36:	82c1                	srl	a3,a3,0x10
80000c38:	00d41a23          	sh	a3,20(s0)
D:\codes\opensource\nuclei_testing\testing2\Debug/../application/fifo.c:89
    }
    fifo_info->chanPeakinfo[0].peaksaccpos[1] =  hslinfo.saSgnR01andsubAccR01.accpos;
80000c3c:	02641523          	sh	t1,42(s0)
D:\codes\opensource\nuclei_testing\testing2\Debug/../application/fifo.c:91

    if (!!(hslinfo.saSgnR02andsubAccR02.positve&0x01)) {
80000c40:	47a2                	lw	a5,8(sp)
80000c42:	c789                	beqz	a5,80000c4c <jingan_fifo_decode+0x15c>
D:\codes\opensource\nuclei_testing\testing2\Debug/../application/fifo.c:92
        fifo_info->chanPeakinfo[0].peakstatus |= DSH_FIFO_THIRD_ACCURACY;
80000c44:	0406e693          	or	a3,a3,64
80000c48:	00d41a23          	sh	a3,20(s0)
D:\codes\opensource\nuclei_testing\testing2\Debug/../application/fifo.c:96
    }
    fifo_info->chanPeakinfo[0].peaksaccpos[2] =  hslinfo.saSgnR02andsubAccR02.accpos;

    fifo_info->chanPeakinfo[0].avgHist = hslinfo.avgQ0 + (hslinfo.avgR1handavgR0h.avgR0h << 16);
80000c4c:	03c15303          	lhu	t1,60(sp)
80000c50:	57a6                	lw	a5,104(sp)
80000c52:	000f06b7          	lui	a3,0xf0
80000c56:	8efd                	and	a3,a3,a5
80000c58:	969a                	add	a3,a3,t1
80000c5a:	c036                	sw	a3,0(sp)
D:\codes\opensource\nuclei_testing\testing2\Debug/../application/fifo.c:94
    fifo_info->chanPeakinfo[0].peaksaccpos[2] =  hslinfo.saSgnR02andsubAccR02.accpos;
80000c5c:	01415683          	lhu	a3,20(sp)
D:\codes\opensource\nuclei_testing\testing2\Debug/../application/fifo.c:108
    fifo_info->chanPeakinfo[1].peakshist[1] =  hslinfo.smxvR1;
    fifo_info->chanPeakinfo[1].peakshist[2] =  hslinfo.tmxvR1;
    fifo_info->chanPeakinfo[1].flashcount  =  hslinfo.hgmFlsCnt1;
    fifo_info->chanPeakinfo[1].peakstatus = 0;
    // encode peakspos
    if (!!(hslinfo.roiMDqlf1andmmxpF1.valid&0x01)) {
80000c60:	80e5                	srl	s1,s1,0x19
D:\codes\opensource\nuclei_testing\testing2\Debug/../application/fifo.c:94
    fifo_info->chanPeakinfo[0].peaksaccpos[2] =  hslinfo.saSgnR02andsubAccR02.accpos;
80000c62:	02d41623          	sh	a3,44(s0)
D:\codes\opensource\nuclei_testing\testing2\Debug/../application/fifo.c:96
    fifo_info->chanPeakinfo[0].avgHist = hslinfo.avgQ0 + (hslinfo.avgR1handavgR0h.avgR0h << 16);
80000c66:	4682                	lw	a3,0(sp)
D:\codes\opensource\nuclei_testing\testing2\Debug/../application/fifo.c:98
    fifo_info->chanPeakinfo[0].stddHist = hslinfo.stdQ0;
80000c68:	03e15503          	lhu	a0,62(sp)
D:\codes\opensource\nuclei_testing\testing2\Debug/../application/fifo.c:104
    fifo_info->chanPeakinfo[1].peakshist[2] =  hslinfo.tmxvR1;
80000c6c:	04c15583          	lhu	a1,76(sp)
D:\codes\opensource\nuclei_testing\testing2\Debug/../application/fifo.c:105
    fifo_info->chanPeakinfo[1].flashcount  =  hslinfo.hgmFlsCnt1;
80000c70:	05815603          	lhu	a2,88(sp)
D:\codes\opensource\nuclei_testing\testing2\Debug/../application/fifo.c:113
        fifo_info->chanPeakinfo[1].peakstatus |= DSH_FIFO_MAIN_POSITION;
    }
    fifo_info->chanPeakinfo[1].peakspos[0] =  hslinfo.roiMDqlf1andmmxpF1.pos;

    if (!!(hslinfo.roiSDqlf1andSMXPF1.valid&0x01)) {
80000c74:	4756                	lw	a4,84(sp)
D:\codes\opensource\nuclei_testing\testing2\Debug/../application/fifo.c:96
    fifo_info->chanPeakinfo[0].avgHist = hslinfo.avgQ0 + (hslinfo.avgR1handavgR0h.avgR0h << 16);
80000c76:	d814                	sw	a3,48(s0)
D:\codes\opensource\nuclei_testing\testing2\Debug/../application/fifo.c:102
    fifo_info->chanPeakinfo[1].peakshist[0] =  hslinfo.mmxvR1; // mv1
80000c78:	46a6                	lw	a3,72(sp)
80000c7a:	0014f293          	and	t0,s1,1
D:\codes\opensource\nuclei_testing\testing2\Debug/../application/fifo.c:113
    if (!!(hslinfo.roiSDqlf1andSMXPF1.valid&0x01)) {
80000c7e:	00975313          	srl	t1,a4,0x9
D:\codes\opensource\nuclei_testing\testing2\Debug/../application/fifo.c:102
    fifo_info->chanPeakinfo[1].peakshist[0] =  hslinfo.mmxvR1; // mv1
80000c82:	c034                	sw	a3,64(s0)
D:\codes\opensource\nuclei_testing\testing2\Debug/../application/fifo.c:111
    fifo_info->chanPeakinfo[1].peakspos[0] =  hslinfo.roiMDqlf1andmmxpF1.pos;
80000c84:	46b2                	lw	a3,12(sp)
D:\codes\opensource\nuclei_testing\testing2\Debug/../application/fifo.c:98
    fifo_info->chanPeakinfo[0].stddHist = hslinfo.stdQ0;
80000c86:	02a41a23          	sh	a0,52(s0)
D:\codes\opensource\nuclei_testing\testing2\Debug/../application/fifo.c:104
    fifo_info->chanPeakinfo[1].peakshist[2] =  hslinfo.tmxvR1;
80000c8a:	04b41223          	sh	a1,68(s0)
D:\codes\opensource\nuclei_testing\testing2\Debug/../application/fifo.c:105
    fifo_info->chanPeakinfo[1].flashcount  =  hslinfo.hgmFlsCnt1;
80000c8e:	dc50                	sw	a2,60(s0)
80000c90:	02541c23          	sh	t0,56(s0)
D:\codes\opensource\nuclei_testing\testing2\Debug/../application/fifo.c:111
    fifo_info->chanPeakinfo[1].peakspos[0] =  hslinfo.roiMDqlf1andmmxpF1.pos;
80000c94:	04d41323          	sh	a3,70(s0)
D:\codes\opensource\nuclei_testing\testing2\Debug/../application/fifo.c:113
    if (!!(hslinfo.roiSDqlf1andSMXPF1.valid&0x01)) {
80000c98:	00137313          	and	t1,t1,1
80000c9c:	8496                	mv	s1,t0
80000c9e:	00030663          	beqz	t1,80000caa <jingan_fifo_decode+0x1ba>
D:\codes\opensource\nuclei_testing\testing2\Debug/../application/fifo.c:114
        fifo_info->chanPeakinfo[1].peakstatus |= DSH_FIFO_SECOND_POSITION;
80000ca2:	0022e493          	or	s1,t0,2
80000ca6:	02941c23          	sh	s1,56(s0)
D:\codes\opensource\nuclei_testing\testing2\Debug/../application/fifo.c:116
    }
    fifo_info->chanPeakinfo[1].peakspos[1] =  hslinfo.roiSDqlf1andSMXPF1.pos;
80000caa:	1ff77693          	and	a3,a4,511
80000cae:	04d41423          	sh	a3,72(s0)
D:\codes\opensource\nuclei_testing\testing2\Debug/../application/fifo.c:118

    if (!!(hslinfo.roiTDqlf1andtmxpF1.valid&0x01)) {
80000cb2:	00671693          	sll	a3,a4,0x6
80000cb6:	0006d663          	bgez	a3,80000cc2 <jingan_fifo_decode+0x1d2>
D:\codes\opensource\nuclei_testing\testing2\Debug/../application/fifo.c:119
        fifo_info->chanPeakinfo[1].peakstatus |= DSH_FIFO_THIRD_POSITION;
80000cba:	0044e493          	or	s1,s1,4
80000cbe:	02941c23          	sh	s1,56(s0)
D:\codes\opensource\nuclei_testing\testing2\Debug/../application/fifo.c:121
    }
    fifo_info->chanPeakinfo[1].peakspos[2] =  hslinfo.roiTDqlf1andtmxpF1.pos;
80000cc2:	8341                	srl	a4,a4,0x10
80000cc4:	1ff77713          	and	a4,a4,511
80000cc8:	04e41523          	sh	a4,74(s0)
D:\codes\opensource\nuclei_testing\testing2\Debug/../application/fifo.c:123
    // encode acc
    if (!!(hslinfo.saSgnR10andsubAccR10.positve&0x01)) {
80000ccc:	4742                	lw	a4,16(sp)
80000cce:	c709                	beqz	a4,80000cd8 <jingan_fifo_decode+0x1e8>
D:\codes\opensource\nuclei_testing\testing2\Debug/../application/fifo.c:124
        fifo_info->chanPeakinfo[1].peakstatus |= DSH_FIFO_MAIN_ACCURACY;
80000cd0:	0104e493          	or	s1,s1,16
80000cd4:	02941c23          	sh	s1,56(s0)
D:\codes\opensource\nuclei_testing\testing2\Debug/../application/fifo.c:126
    }
    fifo_info->chanPeakinfo[1].peaksaccpos[0] =  hslinfo.saSgnR10andsubAccR10.accpos;
80000cd8:	01615703          	lhu	a4,22(sp)
80000cdc:	04e41623          	sh	a4,76(s0)
D:\codes\opensource\nuclei_testing\testing2\Debug/../application/fifo.c:128

    if (!!(hslinfo.saSgnR11andsubAccR11.positve&0x01)) {
80000ce0:	00739713          	sll	a4,t2,0x7
80000ce4:	00075663          	bgez	a4,80000cf0 <jingan_fifo_decode+0x200>
D:\codes\opensource\nuclei_testing\testing2\Debug/../application/fifo.c:129
        fifo_info->chanPeakinfo[1].peakstatus |= DSH_FIFO_SECOND_ACCURACY;
80000ce8:	0204e493          	or	s1,s1,32
80000cec:	02941c23          	sh	s1,56(s0)
D:\codes\opensource\nuclei_testing\testing2\Debug/../application/fifo.c:133
    }
    fifo_info->chanPeakinfo[1].peaksaccpos[1] =  hslinfo.saSgnR11andsubAccR11.accpos;

    if (!!(hslinfo.saSgnR12andsubAccR12.positve&0x01)) {
80000cf0:	5716                	lw	a4,100(sp)
D:\codes\opensource\nuclei_testing\testing2\Debug/../application/fifo.c:131
    fifo_info->chanPeakinfo[1].peaksaccpos[1] =  hslinfo.saSgnR11andsubAccR11.accpos;
80000cf2:	06214683          	lbu	a3,98(sp)
D:\codes\opensource\nuclei_testing\testing2\Debug/../application/fifo.c:133
    if (!!(hslinfo.saSgnR12andsubAccR12.positve&0x01)) {
80000cf6:	8321                	srl	a4,a4,0x8
D:\codes\opensource\nuclei_testing\testing2\Debug/../application/fifo.c:131
    fifo_info->chanPeakinfo[1].peaksaccpos[1] =  hslinfo.saSgnR11andsubAccR11.accpos;
80000cf8:	04d41723          	sh	a3,78(s0)
D:\codes\opensource\nuclei_testing\testing2\Debug/../application/fifo.c:133
    if (!!(hslinfo.saSgnR12andsubAccR12.positve&0x01)) {
80000cfc:	8b05                	and	a4,a4,1
80000cfe:	c709                	beqz	a4,80000d08 <jingan_fifo_decode+0x218>
D:\codes\opensource\nuclei_testing\testing2\Debug/../application/fifo.c:134
        fifo_info->chanPeakinfo[1].peakstatus |= DSH_FIFO_THIRD_ACCURACY;
80000d00:	0404e493          	or	s1,s1,64
80000d04:	02941c23          	sh	s1,56(s0)
D:\codes\opensource\nuclei_testing\testing2\Debug/../application/fifo.c:138
    }
    fifo_info->chanPeakinfo[1].peaksaccpos[2] =  hslinfo.saSgnR12andsubAccR12.accpos;

    fifo_info->chanPeakinfo[1].avgHist = hslinfo.avgQ1 + (hslinfo.avgR1handavgR0h.avgR1h << 16);
80000d08:	83d1                	srl	a5,a5,0x14
80000d0a:	04e15603          	lhu	a2,78(sp)
80000d0e:	8bbd                	and	a5,a5,15
D:\codes\opensource\nuclei_testing\testing2\Debug/../application/fifo.c:140
    // Standard Deviation
    fifo_info->chanPeakinfo[1].stddHist = hslinfo.stdQ1;
80000d10:	05015703          	lhu	a4,80(sp)
D:\codes\opensource\nuclei_testing\testing2\Debug/../application/fifo.c:138
    fifo_info->chanPeakinfo[1].avgHist = hslinfo.avgQ1 + (hslinfo.avgR1handavgR0h.avgR1h << 16);
80000d14:	07c2                	sll	a5,a5,0x10
D:\codes\opensource\nuclei_testing\testing2\Debug/../application/fifo.c:136
    fifo_info->chanPeakinfo[1].peaksaccpos[2] =  hslinfo.saSgnR12andsubAccR12.accpos;
80000d16:	06414683          	lbu	a3,100(sp)
D:\codes\opensource\nuclei_testing\testing2\Debug/../application/fifo.c:138
    fifo_info->chanPeakinfo[1].avgHist = hslinfo.avgQ1 + (hslinfo.avgR1handavgR0h.avgR1h << 16);
80000d1a:	97b2                	add	a5,a5,a2
D:\codes\opensource\nuclei_testing\testing2\Debug/../application/fifo.c:136
    fifo_info->chanPeakinfo[1].peaksaccpos[2] =  hslinfo.saSgnR12andsubAccR12.accpos;
80000d1c:	04d41823          	sh	a3,80(s0)
D:\codes\opensource\nuclei_testing\testing2\Debug/../application/fifo.c:138
    fifo_info->chanPeakinfo[1].avgHist = hslinfo.avgQ1 + (hslinfo.avgR1handavgR0h.avgR1h << 16);
80000d20:	c87c                	sw	a5,84(s0)
D:\codes\opensource\nuclei_testing\testing2\Debug/../application/fifo.c:140
    fifo_info->chanPeakinfo[1].stddHist = hslinfo.stdQ1;
80000d22:	04e41c23          	sh	a4,88(s0)
D:\codes\opensource\nuclei_testing\testing2\Debug/../application/fifo.c:143

    return;
}
80000d26:	06c10113          	add	sp,sp,108
80000d2a:	7a70406f          	j	80005cd0 <__riscv_restore_0>
80000d2e:	0001                	nop
80000d30:	4609                	li	a2,2
80000d32:	4681                	li	a3,0
80000d34:	bd65                	j	80000bec <jingan_fifo_decode+0xfc>
	...

80000d38 <__cvt>:
__cvt():
80000d38:	fd810113          	add	sp,sp,-40
80000d3c:	d022                	sw	s0,32(sp)
80000d3e:	ce26                	sw	s1,28(sp)
80000d40:	d206                	sw	ra,36(sp)
80000d42:	83ba                	mv	t2,a4
80000d44:	82ae                	mv	t0,a1
80000d46:	8432                	mv	s0,a2
80000d48:	84b6                	mv	s1,a3
80000d4a:	4701                	li	a4,0
80000d4c:	00065863          	bgez	a2,80000d5c <__cvt+0x24>
80000d50:	80000737          	lui	a4,0x80000
80000d54:	00e64433          	xor	s0,a2,a4
80000d58:	02d00713          	li	a4,45
80000d5c:	5332                	lw	t1,44(sp)
80000d5e:	00e78023          	sb	a4,0(a5)
80000d62:	fdf37313          	and	t1,t1,-33
80000d66:	04600793          	li	a5,70
80000d6a:	468d                	li	a3,3
80000d6c:	00f30863          	beq	t1,a5,80000d7c <__cvt+0x44>
80000d70:	fbb30793          	add	a5,t1,-69
80000d74:	0017b793          	seqz	a5,a5
80000d78:	4689                	li	a3,2
80000d7a:	94be                	add	s1,s1,a5
80000d7c:	083c                	add	a5,sp,24
80000d7e:	c23e                	sw	a5,4(sp)
80000d80:	085c                	add	a5,sp,20
80000d82:	c03e                	sw	a5,0(sp)
80000d84:	8726                	mv	a4,s1
80000d86:	57a2                	lw	a5,40(sp)
80000d88:	8596                	mv	a1,t0
80000d8a:	8622                	mv	a2,s0
80000d8c:	c81e                	sw	t2,16(sp)
80000d8e:	c61a                	sw	t1,12(sp)
80000d90:	c416                	sw	t0,8(sp)
80000d92:	3bf000ef          	jal	80001950 <_dtoa_r>
80000d96:	04700713          	li	a4,71
80000d9a:	4332                	lw	t1,12(sp)
80000d9c:	87aa                	mv	a5,a0
80000d9e:	42a2                	lw	t0,8(sp)
80000da0:	43c2                	lw	t2,16(sp)
80000da2:	02e31363          	bne	t1,a4,80000dc8 <__cvt+0x90>
80000da6:	0013f393          	and	t2,t2,1
80000daa:	00950733          	add	a4,a0,s1
80000dae:	04039d63          	bnez	t2,80000e08 <__cvt+0xd0>
80000db2:	4762                	lw	a4,24(sp)
80000db4:	56c2                	lw	a3,48(sp)
80000db6:	8f1d                	sub	a4,a4,a5
80000db8:	5092                	lw	ra,36(sp)
80000dba:	5402                	lw	s0,32(sp)
80000dbc:	c298                	sw	a4,0(a3)
80000dbe:	44f2                	lw	s1,28(sp)
80000dc0:	853e                	mv	a0,a5
80000dc2:	02810113          	add	sp,sp,40
80000dc6:	8082                	ret
80000dc8:	04600693          	li	a3,70
80000dcc:	00950733          	add	a4,a0,s1
80000dd0:	02d31c63          	bne	t1,a3,80000e08 <__cvt+0xd0>
80000dd4:	00054603          	lbu	a2,0(a0)
80000dd8:	03000693          	li	a3,48
80000ddc:	02d61363          	bne	a2,a3,80000e02 <__cvt+0xca>
80000de0:	c82a                	sw	a0,16(sp)
80000de2:	4601                	li	a2,0
80000de4:	8516                	mv	a0,t0
80000de6:	4681                	li	a3,0
80000de8:	85a2                	mv	a1,s0
80000dea:	c63a                	sw	a4,12(sp)
80000dec:	c416                	sw	t0,8(sp)
80000dee:	703030ef          	jal	80004cf0 <__eqdf2>
80000df2:	42a2                	lw	t0,8(sp)
80000df4:	4732                	lw	a4,12(sp)
80000df6:	47c2                	lw	a5,16(sp)
80000df8:	c509                	beqz	a0,80000e02 <__cvt+0xca>
80000dfa:	4685                	li	a3,1
80000dfc:	8e85                	sub	a3,a3,s1
80000dfe:	5622                	lw	a2,40(sp)
80000e00:	c214                	sw	a3,0(a2)
80000e02:	56a2                	lw	a3,40(sp)
80000e04:	4294                	lw	a3,0(a3)
80000e06:	9736                	add	a4,a4,a3
80000e08:	4601                	li	a2,0
80000e0a:	4681                	li	a3,0
80000e0c:	8516                	mv	a0,t0
80000e0e:	85a2                	mv	a1,s0
80000e10:	c63e                	sw	a5,12(sp)
80000e12:	c43a                	sw	a4,8(sp)
80000e14:	6dd030ef          	jal	80004cf0 <__eqdf2>
80000e18:	4722                	lw	a4,8(sp)
80000e1a:	47b2                	lw	a5,12(sp)
80000e1c:	e111                	bnez	a0,80000e20 <__cvt+0xe8>
80000e1e:	cc3a                	sw	a4,24(sp)
80000e20:	03000613          	li	a2,48
80000e24:	46e2                	lw	a3,24(sp)
80000e26:	f8e6f6e3          	bgeu	a3,a4,80000db2 <__cvt+0x7a>
80000e2a:	00168593          	add	a1,a3,1 # f0001 <__HEAP_SIZE+0xef801>
80000e2e:	cc2e                	sw	a1,24(sp)
80000e30:	00c68023          	sb	a2,0(a3)
80000e34:	bfc5                	j	80000e24 <__cvt+0xec>

80000e36 <__exponent>:
__exponent():
80000e36:	00c50023          	sb	a2,0(a0)
80000e3a:	02b00793          	li	a5,43
80000e3e:	0005d663          	bgez	a1,80000e4a <__exponent+0x14>
80000e42:	40b005b3          	neg	a1,a1
80000e46:	02d00793          	li	a5,45
80000e4a:	00f500a3          	sb	a5,1(a0)
80000e4e:	47a5                	li	a5,9
80000e50:	06b7d463          	bge	a5,a1,80000eb8 <__exponent+0x82>
80000e54:	1161                	add	sp,sp,-8
80000e56:	00710713          	add	a4,sp,7
80000e5a:	833a                	mv	t1,a4
80000e5c:	4629                	li	a2,10
80000e5e:	06300293          	li	t0,99
80000e62:	02c5e7b3          	rem	a5,a1,a2
80000e66:	86ba                	mv	a3,a4
80000e68:	177d                	add	a4,a4,-1 # 7fffffff <__HEAP_SIZE+0x7ffff7ff>
80000e6a:	03078793          	add	a5,a5,48
80000e6e:	fef68fa3          	sb	a5,-1(a3)
80000e72:	87ae                	mv	a5,a1
80000e74:	02c5c5b3          	div	a1,a1,a2
80000e78:	fef2c5e3          	blt	t0,a5,80000e62 <__exponent+0x2c>
80000e7c:	00250793          	add	a5,a0,2
80000e80:	ffe68293          	add	t0,a3,-2
80000e84:	03058593          	add	a1,a1,48
80000e88:	feb70fa3          	sb	a1,-1(a4)
80000e8c:	863e                	mv	a2,a5
80000e8e:	8716                	mv	a4,t0
80000e90:	00676d63          	bltu	a4,t1,80000eaa <__exponent+0x74>
80000e94:	4701                	li	a4,0
80000e96:	00536563          	bltu	t1,t0,80000ea0 <__exponent+0x6a>
80000e9a:	00910713          	add	a4,sp,9
80000e9e:	8f15                	sub	a4,a4,a3
80000ea0:	97ba                	add	a5,a5,a4
80000ea2:	40a78533          	sub	a0,a5,a0
80000ea6:	0121                	add	sp,sp,8
80000ea8:	8082                	ret
80000eaa:	0605                	add	a2,a2,1
80000eac:	00074583          	lbu	a1,0(a4)
80000eb0:	0705                	add	a4,a4,1
80000eb2:	feb60fa3          	sb	a1,-1(a2)
80000eb6:	bfe9                	j	80000e90 <__exponent+0x5a>
80000eb8:	03000793          	li	a5,48
80000ebc:	00f50123          	sb	a5,2(a0)
80000ec0:	03058593          	add	a1,a1,48
80000ec4:	00450793          	add	a5,a0,4
80000ec8:	00b501a3          	sb	a1,3(a0)
80000ecc:	40a78533          	sub	a0,a5,a0
80000ed0:	8082                	ret

80000ed2 <_printf_float>:
_printf_float():
80000ed2:	f9810113          	add	sp,sp,-104
80000ed6:	d286                	sw	ra,100(sp)
80000ed8:	d0a2                	sw	s0,96(sp)
80000eda:	cea6                	sw	s1,92(sp)
80000edc:	842e                	mv	s0,a1
80000ede:	84ba                	mv	s1,a4
80000ee0:	ca32                	sw	a2,20(sp)
80000ee2:	cc36                	sw	a3,24(sp)
80000ee4:	c82a                	sw	a0,16(sp)
80000ee6:	0a3000ef          	jal	80001788 <_localeconv_r>
80000eea:	411c                	lw	a5,0(a0)
80000eec:	853e                	mv	a0,a5
80000eee:	d63e                	sw	a5,44(sp)
80000ef0:	119000ef          	jal	80001808 <strlen>
80000ef4:	01844783          	lbu	a5,24(s0)
80000ef8:	ce3e                	sw	a5,28(sp)
80000efa:	401c                	lw	a5,0(s0)
80000efc:	d43e                	sw	a5,40(sp)
80000efe:	1007f713          	and	a4,a5,256
80000f02:	d82a                	sw	a0,48(sp)
80000f04:	ca82                	sw	zero,84(sp)
80000f06:	409c                	lw	a5,0(s1)
80000f08:	cb69                	beqz	a4,80000fda <_printf_float+0x108>
80000f0a:	00478713          	add	a4,a5,4
80000f0e:	c098                	sw	a4,0(s1)
80000f10:	4398                	lw	a4,0(a5)
80000f12:	4314                	lw	a3,0(a4)
80000f14:	de36                	sw	a3,60(sp)
80000f16:	4354                	lw	a3,4(a4)
80000f18:	c0b6                	sw	a3,64(sp)
80000f1a:	4714                	lw	a3,8(a4)
80000f1c:	c2b6                	sw	a3,68(sp)
80000f1e:	4758                	lw	a4,12(a4)
80000f20:	1868                	add	a0,sp,60
80000f22:	c4ba                	sw	a4,72(sp)
80000f24:	345040ef          	jal	80005a68 <__trunctfdf2>
80000f28:	82aa                	mv	t0,a0
80000f2a:	832e                	mv	t1,a1
80000f2c:	00131493          	sll	s1,t1,0x1
80000f30:	0ffff797          	auipc	a5,0xffff
80000f34:	2a878793          	add	a5,a5,680 # 900001d8 <_impure_ptr+0x8>
80000f38:	4398                	lw	a4,0(a5)
80000f3a:	8085                	srl	s1,s1,0x1
80000f3c:	43dc                	lw	a5,4(a5)
80000f3e:	04542423          	sw	t0,72(s0)
80000f42:	04642623          	sw	t1,76(s0)
80000f46:	8516                	mv	a0,t0
80000f48:	863a                	mv	a2,a4
80000f4a:	86be                	mv	a3,a5
80000f4c:	85a6                	mv	a1,s1
80000f4e:	dc1a                	sw	t1,56(sp)
80000f50:	da16                	sw	t0,52(sp)
80000f52:	d03a                	sw	a4,32(sp)
80000f54:	d23e                	sw	a5,36(sp)
80000f56:	1c7040ef          	jal	8000591c <__unorddf2>
80000f5a:	52d2                	lw	t0,52(sp)
80000f5c:	5362                	lw	t1,56(sp)
80000f5e:	e551                	bnez	a0,80000fea <_printf_float+0x118>
80000f60:	5602                	lw	a2,32(sp)
80000f62:	8516                	mv	a0,t0
80000f64:	5692                	lw	a3,36(sp)
80000f66:	85a6                	mv	a1,s1
80000f68:	da1a                	sw	t1,52(sp)
80000f6a:	d016                	sw	t0,32(sp)
80000f6c:	6a7030ef          	jal	80004e12 <__ledf2>
80000f70:	5282                	lw	t0,32(sp)
80000f72:	5352                	lw	t1,52(sp)
80000f74:	06a05b63          	blez	a0,80000fea <_printf_float+0x118>
80000f78:	4601                	li	a2,0
80000f7a:	4681                	li	a3,0
80000f7c:	8516                	mv	a0,t0
80000f7e:	859a                	mv	a1,t1
80000f80:	693030ef          	jal	80004e12 <__ledf2>
80000f84:	00055663          	bgez	a0,80000f90 <_printf_float+0xbe>
80000f88:	02d00793          	li	a5,45
80000f8c:	04f401a3          	sb	a5,67(s0)
80000f90:	0ffff717          	auipc	a4,0xffff
80000f94:	41c70713          	add	a4,a4,1052 # 900003ac <_impure_ptr+0x1dc>
80000f98:	d03a                	sw	a4,32(sp)
80000f9a:	04700793          	li	a5,71
80000f9e:	4772                	lw	a4,28(sp)
80000fa0:	00e7e763          	bltu	a5,a4,80000fae <_printf_float+0xdc>
80000fa4:	0ffff797          	auipc	a5,0xffff
80000fa8:	40478793          	add	a5,a5,1028 # 900003a8 <_impure_ptr+0x1d8>
80000fac:	d03e                	sw	a5,32(sp)
80000fae:	478d                	li	a5,3
80000fb0:	c81c                	sw	a5,16(s0)
80000fb2:	57a2                	lw	a5,40(sp)
80000fb4:	9bed                	and	a5,a5,-5
80000fb6:	c01c                	sw	a5,0(s0)
80000fb8:	d402                	sw	zero,40(sp)
80000fba:	4762                	lw	a4,24(sp)
80000fbc:	46d2                	lw	a3,20(sp)
80000fbe:	08b0                	add	a2,sp,88
80000fc0:	85a2                	mv	a1,s0
80000fc2:	4542                	lw	a0,16(sp)
80000fc4:	2139                	jal	800013d2 <_printf_common>
80000fc6:	54fd                	li	s1,-1
80000fc8:	16951563          	bne	a0,s1,80001132 <_printf_float+0x260>
80000fcc:	557d                	li	a0,-1
80000fce:	5096                	lw	ra,100(sp)
80000fd0:	5406                	lw	s0,96(sp)
80000fd2:	44f6                	lw	s1,92(sp)
80000fd4:	06810113          	add	sp,sp,104
80000fd8:	8082                	ret
80000fda:	00878713          	add	a4,a5,8
80000fde:	c098                	sw	a4,0(s1)
80000fe0:	0007a283          	lw	t0,0(a5)
80000fe4:	0047a303          	lw	t1,4(a5)
80000fe8:	b791                	j	80000f2c <_printf_float+0x5a>
80000fea:	8616                	mv	a2,t0
80000fec:	869a                	mv	a3,t1
80000fee:	8516                	mv	a0,t0
80000ff0:	859a                	mv	a1,t1
80000ff2:	da16                	sw	t0,52(sp)
80000ff4:	d01a                	sw	t1,32(sp)
80000ff6:	127040ef          	jal	8000591c <__unorddf2>
80000ffa:	5302                	lw	t1,32(sp)
80000ffc:	52d2                	lw	t0,52(sp)
80000ffe:	c515                	beqz	a0,8000102a <_printf_float+0x158>
80001000:	00035663          	bgez	t1,8000100c <_printf_float+0x13a>
80001004:	02d00793          	li	a5,45
80001008:	04f401a3          	sb	a5,67(s0)
8000100c:	0ffff717          	auipc	a4,0xffff
80001010:	3a870713          	add	a4,a4,936 # 900003b4 <_impure_ptr+0x1e4>
80001014:	d03a                	sw	a4,32(sp)
80001016:	04700793          	li	a5,71
8000101a:	4772                	lw	a4,28(sp)
8000101c:	f8e7e9e3          	bltu	a5,a4,80000fae <_printf_float+0xdc>
80001020:	0ffff797          	auipc	a5,0xffff
80001024:	39078793          	add	a5,a5,912 # 900003b0 <_impure_ptr+0x1e0>
80001028:	b751                	j	80000fac <_printf_float+0xda>
8000102a:	4772                	lw	a4,28(sp)
8000102c:	0df77493          	and	s1,a4,223
80001030:	405c                	lw	a5,4(s0)
80001032:	577d                	li	a4,-1
80001034:	08e79363          	bne	a5,a4,800010ba <_printf_float+0x1e8>
80001038:	4799                	li	a5,6
8000103a:	c05c                	sw	a5,4(s0)
8000103c:	57a2                	lw	a5,40(sp)
8000103e:	4007e713          	or	a4,a5,1024
80001042:	c018                	sw	a4,0(s0)
80001044:	08dc                	add	a5,sp,84
80001046:	c43e                	sw	a5,8(sp)
80001048:	47f2                	lw	a5,28(sp)
8000104a:	c23e                	sw	a5,4(sp)
8000104c:	089c                	add	a5,sp,80
8000104e:	c03e                	sw	a5,0(sp)
80001050:	c602                	sw	zero,12(sp)
80001052:	04f10793          	add	a5,sp,79
80001056:	8596                	mv	a1,t0
80001058:	4054                	lw	a3,4(s0)
8000105a:	861a                	mv	a2,t1
8000105c:	4542                	lw	a0,16(sp)
8000105e:	39e9                	jal	80000d38 <__cvt>
80001060:	d02a                	sw	a0,32(sp)
80001062:	04700793          	li	a5,71
80001066:	45c6                	lw	a1,80(sp)
80001068:	06f49063          	bne	s1,a5,800010c8 <_printf_float+0x1f6>
8000106c:	57f5                	li	a5,-3
8000106e:	00f5c563          	blt	a1,a5,80001078 <_printf_float+0x1a6>
80001072:	405c                	lw	a5,4(s0)
80001074:	08b7db63          	bge	a5,a1,8000110a <_printf_float+0x238>
80001078:	47f2                	lw	a5,28(sp)
8000107a:	17f9                	add	a5,a5,-2
8000107c:	0ff7f793          	zext.b	a5,a5
80001080:	ce3e                	sw	a5,28(sp)
80001082:	15fd                	add	a1,a1,-1
80001084:	4672                	lw	a2,28(sp)
80001086:	05040513          	add	a0,s0,80
8000108a:	c8ae                	sw	a1,80(sp)
8000108c:	336d                	jal	80000e36 <__exponent>
8000108e:	4756                	lw	a4,84(sp)
80001090:	00a707b3          	add	a5,a4,a0
80001094:	d42a                	sw	a0,40(sp)
80001096:	c81c                	sw	a5,16(s0)
80001098:	4685                	li	a3,1
8000109a:	00e6c563          	blt	a3,a4,800010a4 <_printf_float+0x1d2>
8000109e:	4018                	lw	a4,0(s0)
800010a0:	8f75                	and	a4,a4,a3
800010a2:	c319                	beqz	a4,800010a8 <_printf_float+0x1d6>
800010a4:	0785                	add	a5,a5,1
800010a6:	c81c                	sw	a5,16(s0)
800010a8:	04f14783          	lbu	a5,79(sp)
800010ac:	f00787e3          	beqz	a5,80000fba <_printf_float+0xe8>
800010b0:	02d00793          	li	a5,45
800010b4:	04f401a3          	sb	a5,67(s0)
800010b8:	b709                	j	80000fba <_printf_float+0xe8>
800010ba:	04700713          	li	a4,71
800010be:	f6e49fe3          	bne	s1,a4,8000103c <_printf_float+0x16a>
800010c2:	ffad                	bnez	a5,8000103c <_printf_float+0x16a>
800010c4:	4785                	li	a5,1
800010c6:	bf95                	j	8000103a <_printf_float+0x168>
800010c8:	06500793          	li	a5,101
800010cc:	4772                	lw	a4,28(sp)
800010ce:	fae7fae3          	bgeu	a5,a4,80001082 <_printf_float+0x1b0>
800010d2:	06600793          	li	a5,102
800010d6:	4772                	lw	a4,28(sp)
800010d8:	02f71c63          	bne	a4,a5,80001110 <_printf_float+0x23e>
800010dc:	405c                	lw	a5,4(s0)
800010de:	00b05b63          	blez	a1,800010f4 <_printf_float+0x222>
800010e2:	c80c                	sw	a1,16(s0)
800010e4:	e781                	bnez	a5,800010ec <_printf_float+0x21a>
800010e6:	4018                	lw	a4,0(s0)
800010e8:	8b05                	and	a4,a4,1
800010ea:	cf09                	beqz	a4,80001104 <_printf_float+0x232>
800010ec:	0785                	add	a5,a5,1
800010ee:	97ae                	add	a5,a5,a1
800010f0:	c81c                	sw	a5,16(s0)
800010f2:	a809                	j	80001104 <_printf_float+0x232>
800010f4:	e789                	bnez	a5,800010fe <_printf_float+0x22c>
800010f6:	4018                	lw	a4,0(s0)
800010f8:	8b05                	and	a4,a4,1
800010fa:	4685                	li	a3,1
800010fc:	c319                	beqz	a4,80001102 <_printf_float+0x230>
800010fe:	00278693          	add	a3,a5,2
80001102:	c814                	sw	a3,16(s0)
80001104:	cc2c                	sw	a1,88(s0)
80001106:	d402                	sw	zero,40(sp)
80001108:	b745                	j	800010a8 <_printf_float+0x1d6>
8000110a:	06700793          	li	a5,103
8000110e:	ce3e                	sw	a5,28(sp)
80001110:	47d6                	lw	a5,84(sp)
80001112:	00f5c963          	blt	a1,a5,80001124 <_printf_float+0x252>
80001116:	401c                	lw	a5,0(s0)
80001118:	c80c                	sw	a1,16(s0)
8000111a:	8b85                	and	a5,a5,1
8000111c:	d7e5                	beqz	a5,80001104 <_printf_float+0x232>
8000111e:	00158793          	add	a5,a1,1
80001122:	b7f9                	j	800010f0 <_printf_float+0x21e>
80001124:	4705                	li	a4,1
80001126:	00b04463          	bgtz	a1,8000112e <_printf_float+0x25c>
8000112a:	4709                	li	a4,2
8000112c:	8f0d                	sub	a4,a4,a1
8000112e:	97ba                	add	a5,a5,a4
80001130:	b7c1                	j	800010f0 <_printf_float+0x21e>
80001132:	401c                	lw	a5,0(s0)
80001134:	4007f713          	and	a4,a5,1024
80001138:	e31d                	bnez	a4,8000115e <_printf_float+0x28c>
8000113a:	4814                	lw	a3,16(s0)
8000113c:	5602                	lw	a2,32(sp)
8000113e:	45d2                	lw	a1,20(sp)
80001140:	4542                	lw	a0,16(sp)
80001142:	47e2                	lw	a5,24(sp)
80001144:	9782                	jalr	a5
80001146:	e89503e3          	beq	a0,s1,80000fcc <_printf_float+0xfa>
8000114a:	401c                	lw	a5,0(s0)
8000114c:	8b89                	and	a5,a5,2
8000114e:	28079063          	bnez	a5,800013ce <_printf_float+0x4fc>
80001152:	47e6                	lw	a5,88(sp)
80001154:	4448                	lw	a0,12(s0)
80001156:	e6f55ce3          	bge	a0,a5,80000fce <_printf_float+0xfc>
8000115a:	853e                	mv	a0,a5
8000115c:	bd8d                	j	80000fce <_printf_float+0xfc>
8000115e:	06500713          	li	a4,101
80001162:	46f2                	lw	a3,28(sp)
80001164:	1cd77163          	bgeu	a4,a3,80001326 <_printf_float+0x454>
80001168:	4601                	li	a2,0
8000116a:	4681                	li	a3,0
8000116c:	4428                	lw	a0,72(s0)
8000116e:	446c                	lw	a1,76(s0)
80001170:	381030ef          	jal	80004cf0 <__eqdf2>
80001174:	ed39                	bnez	a0,800011d2 <_printf_float+0x300>
80001176:	4685                	li	a3,1
80001178:	0ffff617          	auipc	a2,0xffff
8000117c:	24060613          	add	a2,a2,576 # 900003b8 <_impure_ptr+0x1e8>
80001180:	45d2                	lw	a1,20(sp)
80001182:	4542                	lw	a0,16(sp)
80001184:	47e2                	lw	a5,24(sp)
80001186:	9782                	jalr	a5
80001188:	e49502e3          	beq	a0,s1,80000fcc <_printf_float+0xfa>
8000118c:	47d6                	lw	a5,84(sp)
8000118e:	ce3e                	sw	a5,28(sp)
80001190:	4772                	lw	a4,28(sp)
80001192:	47c6                	lw	a5,80(sp)
80001194:	00e7c563          	blt	a5,a4,8000119e <_printf_float+0x2cc>
80001198:	401c                	lw	a5,0(s0)
8000119a:	8b85                	and	a5,a5,1
8000119c:	d7dd                	beqz	a5,8000114a <_printf_float+0x278>
8000119e:	47e2                	lw	a5,24(sp)
800011a0:	56c2                	lw	a3,48(sp)
800011a2:	5632                	lw	a2,44(sp)
800011a4:	45d2                	lw	a1,20(sp)
800011a6:	4542                	lw	a0,16(sp)
800011a8:	9782                	jalr	a5
800011aa:	57fd                	li	a5,-1
800011ac:	4481                	li	s1,0
800011ae:	e0f50fe3          	beq	a0,a5,80000fcc <_printf_float+0xfa>
800011b2:	47f2                	lw	a5,28(sp)
800011b4:	17fd                	add	a5,a5,-1
800011b6:	f8f4dae3          	bge	s1,a5,8000114a <_printf_float+0x278>
800011ba:	47e2                	lw	a5,24(sp)
800011bc:	4685                	li	a3,1
800011be:	01a40613          	add	a2,s0,26
800011c2:	45d2                	lw	a1,20(sp)
800011c4:	4542                	lw	a0,16(sp)
800011c6:	9782                	jalr	a5
800011c8:	57fd                	li	a5,-1
800011ca:	e0f501e3          	beq	a0,a5,80000fcc <_printf_float+0xfa>
800011ce:	0485                	add	s1,s1,1
800011d0:	b7cd                	j	800011b2 <_printf_float+0x2e0>
800011d2:	47c6                	lw	a5,80(sp)
800011d4:	06f04b63          	bgtz	a5,8000124a <_printf_float+0x378>
800011d8:	4685                	li	a3,1
800011da:	0ffff617          	auipc	a2,0xffff
800011de:	1de60613          	add	a2,a2,478 # 900003b8 <_impure_ptr+0x1e8>
800011e2:	45d2                	lw	a1,20(sp)
800011e4:	4542                	lw	a0,16(sp)
800011e6:	47e2                	lw	a5,24(sp)
800011e8:	9782                	jalr	a5
800011ea:	de9501e3          	beq	a0,s1,80000fcc <_printf_float+0xfa>
800011ee:	47d6                	lw	a5,84(sp)
800011f0:	ce3e                	sw	a5,28(sp)
800011f2:	4772                	lw	a4,28(sp)
800011f4:	47c6                	lw	a5,80(sp)
800011f6:	8fd9                	or	a5,a5,a4
800011f8:	e781                	bnez	a5,80001200 <_printf_float+0x32e>
800011fa:	401c                	lw	a5,0(s0)
800011fc:	8b85                	and	a5,a5,1
800011fe:	d7b1                	beqz	a5,8000114a <_printf_float+0x278>
80001200:	47e2                	lw	a5,24(sp)
80001202:	56c2                	lw	a3,48(sp)
80001204:	5632                	lw	a2,44(sp)
80001206:	45d2                	lw	a1,20(sp)
80001208:	4542                	lw	a0,16(sp)
8000120a:	9782                	jalr	a5
8000120c:	57fd                	li	a5,-1
8000120e:	4481                	li	s1,0
80001210:	daf50ee3          	beq	a0,a5,80000fcc <_printf_float+0xfa>
80001214:	47c6                	lw	a5,80(sp)
80001216:	40f007b3          	neg	a5,a5
8000121a:	00f4cc63          	blt	s1,a5,80001232 <_printf_float+0x360>
8000121e:	46f2                	lw	a3,28(sp)
80001220:	5602                	lw	a2,32(sp)
80001222:	47e2                	lw	a5,24(sp)
80001224:	45d2                	lw	a1,20(sp)
80001226:	4542                	lw	a0,16(sp)
80001228:	9782                	jalr	a5
8000122a:	57fd                	li	a5,-1
8000122c:	f0f51fe3          	bne	a0,a5,8000114a <_printf_float+0x278>
80001230:	bb71                	j	80000fcc <_printf_float+0xfa>
80001232:	47e2                	lw	a5,24(sp)
80001234:	4685                	li	a3,1
80001236:	01a40613          	add	a2,s0,26
8000123a:	45d2                	lw	a1,20(sp)
8000123c:	4542                	lw	a0,16(sp)
8000123e:	9782                	jalr	a5
80001240:	57fd                	li	a5,-1
80001242:	d8f505e3          	beq	a0,a5,80000fcc <_printf_float+0xfa>
80001246:	0485                	add	s1,s1,1
80001248:	b7f1                	j	80001214 <_printf_float+0x342>
8000124a:	47d6                	lw	a5,84(sp)
8000124c:	ce3e                	sw	a5,28(sp)
8000124e:	4c24                	lw	s1,88(s0)
80001250:	0097d363          	bge	a5,s1,80001256 <_printf_float+0x384>
80001254:	84be                	mv	s1,a5
80001256:	06904863          	bgtz	s1,800012c6 <_printf_float+0x3f4>
8000125a:	fff4c793          	not	a5,s1
8000125e:	87fd                	sra	a5,a5,0x1f
80001260:	4701                	li	a4,0
80001262:	8cfd                	and	s1,s1,a5
80001264:	4c3c                	lw	a5,88(s0)
80001266:	409786b3          	sub	a3,a5,s1
8000126a:	06d74863          	blt	a4,a3,800012da <_printf_float+0x408>
8000126e:	4746                	lw	a4,80(sp)
80001270:	46f2                	lw	a3,28(sp)
80001272:	08d74263          	blt	a4,a3,800012f6 <_printf_float+0x424>
80001276:	4018                	lw	a4,0(s0)
80001278:	8b05                	and	a4,a4,1
8000127a:	ef35                	bnez	a4,800012f6 <_printf_float+0x424>
8000127c:	4772                	lw	a4,28(sp)
8000127e:	44c6                	lw	s1,80(sp)
80001280:	46f2                	lw	a3,28(sp)
80001282:	8f1d                	sub	a4,a4,a5
80001284:	409684b3          	sub	s1,a3,s1
80001288:	00975363          	bge	a4,s1,8000128e <_printf_float+0x3bc>
8000128c:	84ba                	mv	s1,a4
8000128e:	08904063          	bgtz	s1,8000130e <_printf_float+0x43c>
80001292:	fff4c793          	not	a5,s1
80001296:	87fd                	sra	a5,a5,0x1f
80001298:	4701                	li	a4,0
8000129a:	8cfd                	and	s1,s1,a5
8000129c:	47c6                	lw	a5,80(sp)
8000129e:	46f2                	lw	a3,28(sp)
800012a0:	40f687b3          	sub	a5,a3,a5
800012a4:	8f85                	sub	a5,a5,s1
800012a6:	eaf752e3          	bge	a4,a5,8000114a <_printf_float+0x278>
800012aa:	47e2                	lw	a5,24(sp)
800012ac:	4685                	li	a3,1
800012ae:	01a40613          	add	a2,s0,26
800012b2:	45d2                	lw	a1,20(sp)
800012b4:	4542                	lw	a0,16(sp)
800012b6:	d03a                	sw	a4,32(sp)
800012b8:	9782                	jalr	a5
800012ba:	57fd                	li	a5,-1
800012bc:	d0f508e3          	beq	a0,a5,80000fcc <_printf_float+0xfa>
800012c0:	5702                	lw	a4,32(sp)
800012c2:	0705                	add	a4,a4,1
800012c4:	bfe1                	j	8000129c <_printf_float+0x3ca>
800012c6:	47e2                	lw	a5,24(sp)
800012c8:	86a6                	mv	a3,s1
800012ca:	5602                	lw	a2,32(sp)
800012cc:	45d2                	lw	a1,20(sp)
800012ce:	4542                	lw	a0,16(sp)
800012d0:	9782                	jalr	a5
800012d2:	57fd                	li	a5,-1
800012d4:	f8f513e3          	bne	a0,a5,8000125a <_printf_float+0x388>
800012d8:	b9d5                	j	80000fcc <_printf_float+0xfa>
800012da:	47e2                	lw	a5,24(sp)
800012dc:	4685                	li	a3,1
800012de:	01a40613          	add	a2,s0,26
800012e2:	45d2                	lw	a1,20(sp)
800012e4:	4542                	lw	a0,16(sp)
800012e6:	d43a                	sw	a4,40(sp)
800012e8:	9782                	jalr	a5
800012ea:	57fd                	li	a5,-1
800012ec:	cef500e3          	beq	a0,a5,80000fcc <_printf_float+0xfa>
800012f0:	5722                	lw	a4,40(sp)
800012f2:	0705                	add	a4,a4,1
800012f4:	bf85                	j	80001264 <_printf_float+0x392>
800012f6:	d43e                	sw	a5,40(sp)
800012f8:	56c2                	lw	a3,48(sp)
800012fa:	47e2                	lw	a5,24(sp)
800012fc:	5632                	lw	a2,44(sp)
800012fe:	45d2                	lw	a1,20(sp)
80001300:	4542                	lw	a0,16(sp)
80001302:	9782                	jalr	a5
80001304:	577d                	li	a4,-1
80001306:	57a2                	lw	a5,40(sp)
80001308:	f6e51ae3          	bne	a0,a4,8000127c <_printf_float+0x3aa>
8000130c:	b1c1                	j	80000fcc <_printf_float+0xfa>
8000130e:	5702                	lw	a4,32(sp)
80001310:	00f70633          	add	a2,a4,a5
80001314:	86a6                	mv	a3,s1
80001316:	47e2                	lw	a5,24(sp)
80001318:	45d2                	lw	a1,20(sp)
8000131a:	4542                	lw	a0,16(sp)
8000131c:	9782                	jalr	a5
8000131e:	57fd                	li	a5,-1
80001320:	f6f519e3          	bne	a0,a5,80001292 <_printf_float+0x3c0>
80001324:	b165                	j	80000fcc <_printf_float+0xfa>
80001326:	4756                	lw	a4,84(sp)
80001328:	ce3a                	sw	a4,28(sp)
8000132a:	4685                	li	a3,1
8000132c:	00e6c463          	blt	a3,a4,80001334 <_printf_float+0x462>
80001330:	8ff5                	and	a5,a5,a3
80001332:	cbbd                	beqz	a5,800013a8 <_printf_float+0x4d6>
80001334:	4685                	li	a3,1
80001336:	5602                	lw	a2,32(sp)
80001338:	45d2                	lw	a1,20(sp)
8000133a:	4542                	lw	a0,16(sp)
8000133c:	47e2                	lw	a5,24(sp)
8000133e:	9782                	jalr	a5
80001340:	54fd                	li	s1,-1
80001342:	c89505e3          	beq	a0,s1,80000fcc <_printf_float+0xfa>
80001346:	56c2                	lw	a3,48(sp)
80001348:	5632                	lw	a2,44(sp)
8000134a:	45d2                	lw	a1,20(sp)
8000134c:	4542                	lw	a0,16(sp)
8000134e:	47e2                	lw	a5,24(sp)
80001350:	9782                	jalr	a5
80001352:	c6950de3          	beq	a0,s1,80000fcc <_printf_float+0xfa>
80001356:	47f2                	lw	a5,28(sp)
80001358:	97a6                	add	a5,a5,s1
8000135a:	4601                	li	a2,0
8000135c:	4681                	li	a3,0
8000135e:	4428                	lw	a0,72(s0)
80001360:	446c                	lw	a1,76(s0)
80001362:	ce3e                	sw	a5,28(sp)
80001364:	18d030ef          	jal	80004cf0 <__eqdf2>
80001368:	cd15                	beqz	a0,800013a4 <_printf_float+0x4d2>
8000136a:	5782                	lw	a5,32(sp)
8000136c:	46f2                	lw	a3,28(sp)
8000136e:	00178613          	add	a2,a5,1
80001372:	45d2                	lw	a1,20(sp)
80001374:	4542                	lw	a0,16(sp)
80001376:	47e2                	lw	a5,24(sp)
80001378:	9782                	jalr	a5
8000137a:	02951163          	bne	a0,s1,8000139c <_printf_float+0x4ca>
8000137e:	b1b9                	j	80000fcc <_printf_float+0xfa>
80001380:	47e2                	lw	a5,24(sp)
80001382:	4685                	li	a3,1
80001384:	01a40613          	add	a2,s0,26
80001388:	45d2                	lw	a1,20(sp)
8000138a:	4542                	lw	a0,16(sp)
8000138c:	9782                	jalr	a5
8000138e:	57fd                	li	a5,-1
80001390:	c2f50ee3          	beq	a0,a5,80000fcc <_printf_float+0xfa>
80001394:	0485                	add	s1,s1,1
80001396:	47f2                	lw	a5,28(sp)
80001398:	fef4c4e3          	blt	s1,a5,80001380 <_printf_float+0x4ae>
8000139c:	56a2                	lw	a3,40(sp)
8000139e:	05040613          	add	a2,s0,80
800013a2:	b541                	j	80001222 <_printf_float+0x350>
800013a4:	4481                	li	s1,0
800013a6:	bfc5                	j	80001396 <_printf_float+0x4c4>
800013a8:	5602                	lw	a2,32(sp)
800013aa:	b7e1                	j	80001372 <_printf_float+0x4a0>
800013ac:	47e2                	lw	a5,24(sp)
800013ae:	4685                	li	a3,1
800013b0:	01940613          	add	a2,s0,25
800013b4:	45d2                	lw	a1,20(sp)
800013b6:	4542                	lw	a0,16(sp)
800013b8:	9782                	jalr	a5
800013ba:	57fd                	li	a5,-1
800013bc:	c0f508e3          	beq	a0,a5,80000fcc <_printf_float+0xfa>
800013c0:	0485                	add	s1,s1,1
800013c2:	445c                	lw	a5,12(s0)
800013c4:	4766                	lw	a4,88(sp)
800013c6:	8f99                	sub	a5,a5,a4
800013c8:	fef4c2e3          	blt	s1,a5,800013ac <_printf_float+0x4da>
800013cc:	b359                	j	80001152 <_printf_float+0x280>
800013ce:	4481                	li	s1,0
800013d0:	bfcd                	j	800013c2 <_printf_float+0x4f0>

800013d2 <_printf_common>:
_printf_common():
800013d2:	1111                	add	sp,sp,-28
800013d4:	ca22                	sw	s0,20(sp)
800013d6:	c826                	sw	s1,16(sp)
800013d8:	c236                	sw	a3,4(sp)
800013da:	84ba                	mv	s1,a4
800013dc:	cc06                	sw	ra,24(sp)
800013de:	c02a                	sw	a0,0(sp)
800013e0:	4594                	lw	a3,8(a1)
800013e2:	4998                	lw	a4,16(a1)
800013e4:	842e                	mv	s0,a1
800013e6:	8332                	mv	t1,a2
800013e8:	00d75363          	bge	a4,a3,800013ee <_printf_common+0x1c>
800013ec:	8736                	mv	a4,a3
800013ee:	00e32023          	sw	a4,0(t1)
800013f2:	04344683          	lbu	a3,67(s0)
800013f6:	c681                	beqz	a3,800013fe <_printf_common+0x2c>
800013f8:	0705                	add	a4,a4,1
800013fa:	00e32023          	sw	a4,0(t1)
800013fe:	4018                	lw	a4,0(s0)
80001400:	02077713          	and	a4,a4,32
80001404:	c711                	beqz	a4,80001410 <_printf_common+0x3e>
80001406:	00032703          	lw	a4,0(t1)
8000140a:	0709                	add	a4,a4,2
8000140c:	00e32023          	sw	a4,0(t1)
80001410:	4018                	lw	a4,0(s0)
80001412:	8b19                	and	a4,a4,6
80001414:	cf29                	beqz	a4,8000146e <_printf_common+0x9c>
80001416:	4018                	lw	a4,0(s0)
80001418:	04344683          	lbu	a3,67(s0)
8000141c:	02077713          	and	a4,a4,32
80001420:	00d036b3          	snez	a3,a3
80001424:	ef35                	bnez	a4,800014a0 <_printf_common+0xce>
80001426:	04340613          	add	a2,s0,67
8000142a:	4592                	lw	a1,4(sp)
8000142c:	4502                	lw	a0,0(sp)
8000142e:	c41a                	sw	t1,8(sp)
80001430:	9482                	jalr	s1
80001432:	577d                	li	a4,-1
80001434:	06e50063          	beq	a0,a4,80001494 <_printf_common+0xc2>
80001438:	4014                	lw	a3,0(s0)
8000143a:	8a99                	and	a3,a3,6
8000143c:	4611                	li	a2,4
8000143e:	4701                	li	a4,0
80001440:	4322                	lw	t1,8(sp)
80001442:	00c69a63          	bne	a3,a2,80001456 <_printf_common+0x84>
80001446:	00032683          	lw	a3,0(t1)
8000144a:	4458                	lw	a4,12(s0)
8000144c:	8f15                	sub	a4,a4,a3
8000144e:	fff74693          	not	a3,a4
80001452:	86fd                	sra	a3,a3,0x1f
80001454:	8f75                	and	a4,a4,a3
80001456:	4414                	lw	a3,8(s0)
80001458:	4810                	lw	a2,16(s0)
8000145a:	00d65463          	bge	a2,a3,80001462 <_printf_common+0x90>
8000145e:	8e91                	sub	a3,a3,a2
80001460:	9736                	add	a4,a4,a3
80001462:	4781                	li	a5,0
80001464:	04f71d63          	bne	a4,a5,800014be <_printf_common+0xec>
80001468:	4501                	li	a0,0
8000146a:	a035                	j	80001496 <_printf_common+0xc4>
8000146c:	0705                	add	a4,a4,1
8000146e:	4454                	lw	a3,12(s0)
80001470:	00032603          	lw	a2,0(t1)
80001474:	8e91                	sub	a3,a3,a2
80001476:	fad750e3          	bge	a4,a3,80001416 <_printf_common+0x44>
8000147a:	4685                	li	a3,1
8000147c:	01940613          	add	a2,s0,25
80001480:	4592                	lw	a1,4(sp)
80001482:	4502                	lw	a0,0(sp)
80001484:	c61a                	sw	t1,12(sp)
80001486:	c43a                	sw	a4,8(sp)
80001488:	9482                	jalr	s1
8000148a:	56fd                	li	a3,-1
8000148c:	4722                	lw	a4,8(sp)
8000148e:	4332                	lw	t1,12(sp)
80001490:	fcd51ee3          	bne	a0,a3,8000146c <_printf_common+0x9a>
80001494:	557d                	li	a0,-1
80001496:	40e2                	lw	ra,24(sp)
80001498:	4452                	lw	s0,20(sp)
8000149a:	44c2                	lw	s1,16(sp)
8000149c:	0171                	add	sp,sp,28
8000149e:	8082                	ret
800014a0:	00d40633          	add	a2,s0,a3
800014a4:	03000593          	li	a1,48
800014a8:	00168713          	add	a4,a3,1
800014ac:	04b601a3          	sb	a1,67(a2)
800014b0:	04544603          	lbu	a2,69(s0)
800014b4:	9722                	add	a4,a4,s0
800014b6:	0689                	add	a3,a3,2
800014b8:	04c701a3          	sb	a2,67(a4)
800014bc:	b7ad                	j	80001426 <_printf_common+0x54>
800014be:	4685                	li	a3,1
800014c0:	01a40613          	add	a2,s0,26
800014c4:	4592                	lw	a1,4(sp)
800014c6:	4502                	lw	a0,0(sp)
800014c8:	c63e                	sw	a5,12(sp)
800014ca:	c43a                	sw	a4,8(sp)
800014cc:	9482                	jalr	s1
800014ce:	56fd                	li	a3,-1
800014d0:	fcd502e3          	beq	a0,a3,80001494 <_printf_common+0xc2>
800014d4:	47b2                	lw	a5,12(sp)
800014d6:	0785                	add	a5,a5,1
800014d8:	4722                	lw	a4,8(sp)
800014da:	b769                	j	80001464 <_printf_common+0x92>

800014dc <_printf_i>:
_printf_i():
800014dc:	1101                	add	sp,sp,-32
800014de:	cc22                	sw	s0,24(sp)
800014e0:	ce06                	sw	ra,28(sp)
800014e2:	ca26                	sw	s1,20(sp)
800014e4:	c232                	sw	a2,4(sp)
800014e6:	c436                	sw	a3,8(sp)
800014e8:	c02a                	sw	a0,0(sp)
800014ea:	0185c603          	lbu	a2,24(a1)
800014ee:	07800693          	li	a3,120
800014f2:	842e                	mv	s0,a1
800014f4:	02c6e263          	bltu	a3,a2,80001518 <_printf_i+0x3c>
800014f8:	06200693          	li	a3,98
800014fc:	04358593          	add	a1,a1,67
80001500:	02c6e163          	bltu	a3,a2,80001522 <_printf_i+0x46>
80001504:	1c060463          	beqz	a2,800016cc <_printf_i+0x1f0>
80001508:	05800693          	li	a3,88
8000150c:	0ffff517          	auipc	a0,0xffff
80001510:	eb050513          	add	a0,a0,-336 # 900003bc <_impure_ptr+0x1ec>
80001514:	14d60263          	beq	a2,a3,80001658 <_printf_i+0x17c>
80001518:	04240493          	add	s1,s0,66
8000151c:	04c40123          	sb	a2,66(s0)
80001520:	a805                	j	80001550 <_printf_i+0x74>
80001522:	f9d60693          	add	a3,a2,-99
80001526:	0ff6f693          	zext.b	a3,a3
8000152a:	4555                	li	a0,21
8000152c:	fed566e3          	bltu	a0,a3,80001518 <_printf_i+0x3c>
80001530:	a1c18513          	add	a0,gp,-1508 # 900003e4 <_impure_ptr+0x214>
80001534:	068a                	sll	a3,a3,0x2
80001536:	96aa                	add	a3,a3,a0
80001538:	4294                	lw	a3,0(a3)
8000153a:	96aa                	add	a3,a3,a0
8000153c:	8682                	jr	a3
8000153e:	4314                	lw	a3,0(a4)
80001540:	00468613          	add	a2,a3,4
80001544:	c310                	sw	a2,0(a4)
80001546:	4298                	lw	a4,0(a3)
80001548:	04240493          	add	s1,s0,66
8000154c:	04e40123          	sb	a4,66(s0)
80001550:	4705                	li	a4,1
80001552:	aa71                	j	800016ee <_printf_i+0x212>
80001554:	4014                	lw	a3,0(s0)
80001556:	00072303          	lw	t1,0(a4)
8000155a:	0806f613          	and	a2,a3,128
8000155e:	00430513          	add	a0,t1,4
80001562:	c215                	beqz	a2,80001586 <_printf_i+0xaa>
80001564:	c308                	sw	a0,0(a4)
80001566:	00032683          	lw	a3,0(t1)
8000156a:	0006d863          	bgez	a3,8000157a <_printf_i+0x9e>
8000156e:	02d00713          	li	a4,45
80001572:	40d006b3          	neg	a3,a3
80001576:	04e401a3          	sb	a4,67(s0)
8000157a:	0ffff517          	auipc	a0,0xffff
8000157e:	e4250513          	add	a0,a0,-446 # 900003bc <_impure_ptr+0x1ec>
80001582:	4729                	li	a4,10
80001584:	a0a9                	j	800015ce <_printf_i+0xf2>
80001586:	0406f613          	and	a2,a3,64
8000158a:	00032683          	lw	a3,0(t1)
8000158e:	c308                	sw	a0,0(a4)
80001590:	de69                	beqz	a2,8000156a <_printf_i+0x8e>
80001592:	06c2                	sll	a3,a3,0x10
80001594:	86c1                	sra	a3,a3,0x10
80001596:	bfd1                	j	8000156a <_printf_i+0x8e>
80001598:	00042303          	lw	t1,0(s0)
8000159c:	4308                	lw	a0,0(a4)
8000159e:	08037293          	and	t0,t1,128
800015a2:	4114                	lw	a3,0(a0)
800015a4:	0511                	add	a0,a0,4
800015a6:	00029863          	bnez	t0,800015b6 <_printf_i+0xda>
800015aa:	04037313          	and	t1,t1,64
800015ae:	00030463          	beqz	t1,800015b6 <_printf_i+0xda>
800015b2:	06c2                	sll	a3,a3,0x10
800015b4:	82c1                	srl	a3,a3,0x10
800015b6:	c308                	sw	a0,0(a4)
800015b8:	06f00713          	li	a4,111
800015bc:	0ffff517          	auipc	a0,0xffff
800015c0:	e0050513          	add	a0,a0,-512 # 900003bc <_impure_ptr+0x1ec>
800015c4:	0ce61c63          	bne	a2,a4,8000169c <_printf_i+0x1c0>
800015c8:	4721                	li	a4,8
800015ca:	040401a3          	sb	zero,67(s0)
800015ce:	4050                	lw	a2,4(s0)
800015d0:	c410                	sw	a2,8(s0)
800015d2:	00064b63          	bltz	a2,800015e8 <_printf_i+0x10c>
800015d6:	00042303          	lw	t1,0(s0)
800015da:	ffb37313          	and	t1,t1,-5
800015de:	00642023          	sw	t1,0(s0)
800015e2:	8e55                	or	a2,a2,a3
800015e4:	84ae                	mv	s1,a1
800015e6:	ce19                	beqz	a2,80001604 <_printf_i+0x128>
800015e8:	84ae                	mv	s1,a1
800015ea:	02e6f633          	remu	a2,a3,a4
800015ee:	14fd                	add	s1,s1,-1
800015f0:	962a                	add	a2,a2,a0
800015f2:	00064603          	lbu	a2,0(a2)
800015f6:	00c48023          	sb	a2,0(s1)
800015fa:	8636                	mv	a2,a3
800015fc:	02e6d6b3          	divu	a3,a3,a4
80001600:	fee675e3          	bgeu	a2,a4,800015ea <_printf_i+0x10e>
80001604:	46a1                	li	a3,8
80001606:	00d71e63          	bne	a4,a3,80001622 <_printf_i+0x146>
8000160a:	4018                	lw	a4,0(s0)
8000160c:	8b05                	and	a4,a4,1
8000160e:	cb11                	beqz	a4,80001622 <_printf_i+0x146>
80001610:	4054                	lw	a3,4(s0)
80001612:	4818                	lw	a4,16(s0)
80001614:	00d74763          	blt	a4,a3,80001622 <_printf_i+0x146>
80001618:	03000713          	li	a4,48
8000161c:	fee48fa3          	sb	a4,-1(s1)
80001620:	14fd                	add	s1,s1,-1
80001622:	8d85                	sub	a1,a1,s1
80001624:	c80c                	sw	a1,16(s0)
80001626:	4722                	lw	a4,8(sp)
80001628:	4692                	lw	a3,4(sp)
8000162a:	0810                	add	a2,sp,16
8000162c:	85a2                	mv	a1,s0
8000162e:	4502                	lw	a0,0(sp)
80001630:	334d                	jal	800013d2 <_printf_common>
80001632:	577d                	li	a4,-1
80001634:	0ce51163          	bne	a0,a4,800016f6 <_printf_i+0x21a>
80001638:	557d                	li	a0,-1
8000163a:	40f2                	lw	ra,28(sp)
8000163c:	4462                	lw	s0,24(sp)
8000163e:	44d2                	lw	s1,20(sp)
80001640:	6105                	add	sp,sp,32
80001642:	8082                	ret
80001644:	4014                	lw	a3,0(s0)
80001646:	0206e693          	or	a3,a3,32
8000164a:	c014                	sw	a3,0(s0)
8000164c:	07800613          	li	a2,120
80001650:	0ffff517          	auipc	a0,0xffff
80001654:	d8050513          	add	a0,a0,-640 # 900003d0 <_impure_ptr+0x200>
80001658:	04c402a3          	sb	a2,69(s0)
8000165c:	4010                	lw	a2,0(s0)
8000165e:	00072303          	lw	t1,0(a4)
80001662:	08067293          	and	t0,a2,128
80001666:	00032683          	lw	a3,0(t1)
8000166a:	0311                	add	t1,t1,4
8000166c:	00029863          	bnez	t0,8000167c <_printf_i+0x1a0>
80001670:	04067293          	and	t0,a2,64
80001674:	00028463          	beqz	t0,8000167c <_printf_i+0x1a0>
80001678:	06c2                	sll	a3,a3,0x10
8000167a:	82c1                	srl	a3,a3,0x10
8000167c:	00672023          	sw	t1,0(a4)
80001680:	00167713          	and	a4,a2,1
80001684:	c701                	beqz	a4,8000168c <_printf_i+0x1b0>
80001686:	02066613          	or	a2,a2,32
8000168a:	c010                	sw	a2,0(s0)
8000168c:	c299                	beqz	a3,80001692 <_printf_i+0x1b6>
8000168e:	4741                	li	a4,16
80001690:	bf2d                	j	800015ca <_printf_i+0xee>
80001692:	4018                	lw	a4,0(s0)
80001694:	fdf77713          	and	a4,a4,-33
80001698:	c018                	sw	a4,0(s0)
8000169a:	bfd5                	j	8000168e <_printf_i+0x1b2>
8000169c:	4729                	li	a4,10
8000169e:	b735                	j	800015ca <_printf_i+0xee>
800016a0:	4010                	lw	a2,0(s0)
800016a2:	4314                	lw	a3,0(a4)
800016a4:	08067293          	and	t0,a2,128
800016a8:	4848                	lw	a0,20(s0)
800016aa:	00468313          	add	t1,a3,4
800016ae:	00028763          	beqz	t0,800016bc <_printf_i+0x1e0>
800016b2:	00672023          	sw	t1,0(a4)
800016b6:	4298                	lw	a4,0(a3)
800016b8:	c308                	sw	a0,0(a4)
800016ba:	a809                	j	800016cc <_printf_i+0x1f0>
800016bc:	00672023          	sw	t1,0(a4)
800016c0:	04067613          	and	a2,a2,64
800016c4:	4298                	lw	a4,0(a3)
800016c6:	da6d                	beqz	a2,800016b8 <_printf_i+0x1dc>
800016c8:	00a71023          	sh	a0,0(a4)
800016cc:	00042823          	sw	zero,16(s0)
800016d0:	84ae                	mv	s1,a1
800016d2:	bf91                	j	80001626 <_printf_i+0x14a>
800016d4:	4314                	lw	a3,0(a4)
800016d6:	00468613          	add	a2,a3,4
800016da:	c310                	sw	a2,0(a4)
800016dc:	4284                	lw	s1,0(a3)
800016de:	4050                	lw	a2,4(s0)
800016e0:	4581                	li	a1,0
800016e2:	8526                	mv	a0,s1
800016e4:	2069                	jal	8000176e <memchr>
800016e6:	c119                	beqz	a0,800016ec <_printf_i+0x210>
800016e8:	8d05                	sub	a0,a0,s1
800016ea:	c048                	sw	a0,4(s0)
800016ec:	4058                	lw	a4,4(s0)
800016ee:	c818                	sw	a4,16(s0)
800016f0:	040401a3          	sb	zero,67(s0)
800016f4:	bf0d                	j	80001626 <_printf_i+0x14a>
800016f6:	4814                	lw	a3,16(s0)
800016f8:	8626                	mv	a2,s1
800016fa:	4592                	lw	a1,4(sp)
800016fc:	4502                	lw	a0,0(sp)
800016fe:	47a2                	lw	a5,8(sp)
80001700:	9782                	jalr	a5
80001702:	577d                	li	a4,-1
80001704:	f2e50ae3          	beq	a0,a4,80001638 <_printf_i+0x15c>
80001708:	4018                	lw	a4,0(s0)
8000170a:	8b09                	and	a4,a4,2
8000170c:	eb15                	bnez	a4,80001740 <_printf_i+0x264>
8000170e:	4742                	lw	a4,16(sp)
80001710:	4448                	lw	a0,12(s0)
80001712:	f2e554e3          	bge	a0,a4,8000163a <_printf_i+0x15e>
80001716:	853a                	mv	a0,a4
80001718:	b70d                	j	8000163a <_printf_i+0x15e>
8000171a:	4685                	li	a3,1
8000171c:	01940613          	add	a2,s0,25
80001720:	4592                	lw	a1,4(sp)
80001722:	4502                	lw	a0,0(sp)
80001724:	47a2                	lw	a5,8(sp)
80001726:	c63a                	sw	a4,12(sp)
80001728:	9782                	jalr	a5
8000172a:	56fd                	li	a3,-1
8000172c:	f0d506e3          	beq	a0,a3,80001638 <_printf_i+0x15c>
80001730:	4732                	lw	a4,12(sp)
80001732:	0705                	add	a4,a4,1
80001734:	4454                	lw	a3,12(s0)
80001736:	4642                	lw	a2,16(sp)
80001738:	8e91                	sub	a3,a3,a2
8000173a:	fed740e3          	blt	a4,a3,8000171a <_printf_i+0x23e>
8000173e:	bfc1                	j	8000170e <_printf_i+0x232>
80001740:	4701                	li	a4,0
80001742:	bfcd                	j	80001734 <_printf_i+0x258>

80001744 <iprintf>:
printf():
80001744:	1111                	add	sp,sp,-28
80001746:	cc3e                	sw	a5,24(sp)
80001748:	0ffff797          	auipc	a5,0xffff
8000174c:	a887a783          	lw	a5,-1400(a5) # 900001d0 <_impure_ptr>
80001750:	c632                	sw	a2,12(sp)
80001752:	c836                	sw	a3,16(sp)
80001754:	c42e                	sw	a1,8(sp)
80001756:	ca3a                	sw	a4,20(sp)
80001758:	0034                	add	a3,sp,8
8000175a:	862a                	mv	a2,a0
8000175c:	478c                	lw	a1,8(a5)
8000175e:	853e                	mv	a0,a5
80001760:	c206                	sw	ra,4(sp)
80001762:	c036                	sw	a3,0(sp)
80001764:	0cf010ef          	jal	80003032 <_vfiprintf_r>
80001768:	4092                	lw	ra,4(sp)
8000176a:	0171                	add	sp,sp,28
8000176c:	8082                	ret

8000176e <memchr>:
memchr():
8000176e:	0ff5f593          	zext.b	a1,a1
80001772:	962a                	add	a2,a2,a0
80001774:	00c51463          	bne	a0,a2,8000177c <memchr+0xe>
80001778:	4501                	li	a0,0
8000177a:	8082                	ret
8000177c:	00054783          	lbu	a5,0(a0)
80001780:	feb78de3          	beq	a5,a1,8000177a <memchr+0xc>
80001784:	0505                	add	a0,a0,1
80001786:	b7fd                	j	80001774 <memchr+0x6>

80001788 <_localeconv_r>:
_localeconv_r():
80001788:	0ffff517          	auipc	a0,0xffff
8000178c:	9c050513          	add	a0,a0,-1600 # 90000148 <__global_locale+0xf0>
80001790:	8082                	ret

80001792 <__libc_init_array>:
__libc_init_array():
80001792:	1151                	add	sp,sp,-12
80001794:	c222                	sw	s0,4(sp)
80001796:	00004717          	auipc	a4,0x4
8000179a:	58270713          	add	a4,a4,1410 # 80005d18 <_etext>
8000179e:	00004417          	auipc	s0,0x4
800017a2:	57a40413          	add	s0,s0,1402 # 80005d18 <_etext>
800017a6:	8c19                	sub	s0,s0,a4
800017a8:	c026                	sw	s1,0(sp)
800017aa:	c406                	sw	ra,8(sp)
800017ac:	8409                	sra	s0,s0,0x2
800017ae:	4481                	li	s1,0
800017b0:	02849463          	bne	s1,s0,800017d8 <__libc_init_array+0x46>
800017b4:	00004717          	auipc	a4,0x4
800017b8:	56470713          	add	a4,a4,1380 # 80005d18 <_etext>
800017bc:	00004417          	auipc	s0,0x4
800017c0:	55c40413          	add	s0,s0,1372 # 80005d18 <_etext>
800017c4:	8c19                	sub	s0,s0,a4
800017c6:	8409                	sra	s0,s0,0x2
800017c8:	4481                	li	s1,0
800017ca:	02849263          	bne	s1,s0,800017ee <__libc_init_array+0x5c>
800017ce:	40a2                	lw	ra,8(sp)
800017d0:	4412                	lw	s0,4(sp)
800017d2:	4482                	lw	s1,0(sp)
800017d4:	0131                	add	sp,sp,12
800017d6:	8082                	ret
800017d8:	00249793          	sll	a5,s1,0x2
800017dc:	97ba                	add	a5,a5,a4
800017de:	439c                	lw	a5,0(a5)
800017e0:	9782                	jalr	a5
800017e2:	0485                	add	s1,s1,1
800017e4:	00004717          	auipc	a4,0x4
800017e8:	53470713          	add	a4,a4,1332 # 80005d18 <_etext>
800017ec:	b7d1                	j	800017b0 <__libc_init_array+0x1e>
800017ee:	00249793          	sll	a5,s1,0x2
800017f2:	97ba                	add	a5,a5,a4
800017f4:	439c                	lw	a5,0(a5)
800017f6:	9782                	jalr	a5
800017f8:	0485                	add	s1,s1,1
800017fa:	00004717          	auipc	a4,0x4
800017fe:	51e70713          	add	a4,a4,1310 # 80005d18 <_etext>
80001802:	b7e1                	j	800017ca <__libc_init_array+0x38>

80001804 <isatty>:
isatty():
80001804:	b49fe06f          	j	8000034c <_isatty>

80001808 <strlen>:
strlen():
80001808:	87aa                	mv	a5,a0
8000180a:	0007c703          	lbu	a4,0(a5)
8000180e:	0785                	add	a5,a5,1
80001810:	ff6d                	bnez	a4,8000180a <strlen+0x2>
80001812:	40a78533          	sub	a0,a5,a0
80001816:	157d                	add	a0,a0,-1
80001818:	8082                	ret

8000181a <quorem>:
quorem():
8000181a:	1111                	add	sp,sp,-28
8000181c:	ca22                	sw	s0,20(sp)
8000181e:	cc06                	sw	ra,24(sp)
80001820:	c826                	sw	s1,16(sp)
80001822:	4980                	lw	s0,16(a1)
80001824:	491c                	lw	a5,16(a0)
80001826:	1287c363          	blt	a5,s0,8000194c <quorem+0x132>
8000182a:	147d                	add	s0,s0,-1
8000182c:	01458793          	add	a5,a1,20
80001830:	00241693          	sll	a3,s0,0x2
80001834:	c43e                	sw	a5,8(sp)
80001836:	01450313          	add	t1,a0,20
8000183a:	97b6                	add	a5,a5,a3
8000183c:	c03e                	sw	a5,0(sp)
8000183e:	969a                	add	a3,a3,t1
80001840:	439c                	lw	a5,0(a5)
80001842:	4298                	lw	a4,0(a3)
80001844:	0785                	add	a5,a5,1
80001846:	02f754b3          	divu	s1,a4,a5
8000184a:	862a                	mv	a2,a0
8000184c:	06f76a63          	bltu	a4,a5,800018c0 <quorem+0xa6>
80001850:	839a                	mv	t2,t1
80001852:	01458293          	add	t0,a1,20
80001856:	c202                	sw	zero,4(sp)
80001858:	4081                	li	ra,0
8000185a:	0002a783          	lw	a5,0(t0)
8000185e:	01079513          	sll	a0,a5,0x10
80001862:	8141                	srl	a0,a0,0x10
80001864:	83c1                	srl	a5,a5,0x10
80001866:	4712                	lw	a4,4(sp)
80001868:	0291                	add	t0,t0,4
8000186a:	0391                	add	t2,t2,4
8000186c:	02950533          	mul	a0,a0,s1
80001870:	029787b3          	mul	a5,a5,s1
80001874:	953a                	add	a0,a0,a4
80001876:	01055713          	srl	a4,a0,0x10
8000187a:	0542                	sll	a0,a0,0x10
8000187c:	8141                	srl	a0,a0,0x10
8000187e:	97ba                	add	a5,a5,a4
80001880:	0107d713          	srl	a4,a5,0x10
80001884:	c23a                	sw	a4,4(sp)
80001886:	ffc3a703          	lw	a4,-4(t2)
8000188a:	0742                	sll	a4,a4,0x10
8000188c:	8341                	srl	a4,a4,0x10
8000188e:	8f09                	sub	a4,a4,a0
80001890:	07c2                	sll	a5,a5,0x10
80001892:	ffc3a503          	lw	a0,-4(t2)
80001896:	9706                	add	a4,a4,ra
80001898:	8141                	srl	a0,a0,0x10
8000189a:	83c1                	srl	a5,a5,0x10
8000189c:	40f507b3          	sub	a5,a0,a5
800018a0:	41075513          	sra	a0,a4,0x10
800018a4:	97aa                	add	a5,a5,a0
800018a6:	0742                	sll	a4,a4,0x10
800018a8:	4107d093          	sra	ra,a5,0x10
800018ac:	8341                	srl	a4,a4,0x10
800018ae:	07c2                	sll	a5,a5,0x10
800018b0:	8f5d                	or	a4,a4,a5
800018b2:	fee3ae23          	sw	a4,-4(t2)
800018b6:	4782                	lw	a5,0(sp)
800018b8:	fa57f1e3          	bgeu	a5,t0,8000185a <quorem+0x40>
800018bc:	429c                	lw	a5,0(a3)
800018be:	cbb5                	beqz	a5,80001932 <quorem+0x118>
800018c0:	8532                	mv	a0,a2
800018c2:	c61a                	sw	t1,12(sp)
800018c4:	c232                	sw	a2,4(sp)
800018c6:	4a2010ef          	jal	80002d68 <__mcmp>
800018ca:	04054b63          	bltz	a0,80001920 <quorem+0x106>
800018ce:	4332                	lw	t1,12(sp)
800018d0:	859a                	mv	a1,t1
800018d2:	46a2                	lw	a3,8(sp)
800018d4:	4281                	li	t0,0
800018d6:	4612                	lw	a2,4(sp)
800018d8:	4288                	lw	a0,0(a3)
800018da:	419c                	lw	a5,0(a1)
800018dc:	01079713          	sll	a4,a5,0x10
800018e0:	01051393          	sll	t2,a0,0x10
800018e4:	8341                	srl	a4,a4,0x10
800018e6:	0103d393          	srl	t2,t2,0x10
800018ea:	40770733          	sub	a4,a4,t2
800018ee:	9716                	add	a4,a4,t0
800018f0:	8141                	srl	a0,a0,0x10
800018f2:	83c1                	srl	a5,a5,0x10
800018f4:	8f89                	sub	a5,a5,a0
800018f6:	41075513          	sra	a0,a4,0x10
800018fa:	97aa                	add	a5,a5,a0
800018fc:	0742                	sll	a4,a4,0x10
800018fe:	4107d293          	sra	t0,a5,0x10
80001902:	8341                	srl	a4,a4,0x10
80001904:	07c2                	sll	a5,a5,0x10
80001906:	8f5d                	or	a4,a4,a5
80001908:	c198                	sw	a4,0(a1)
8000190a:	0691                	add	a3,a3,4
8000190c:	4782                	lw	a5,0(sp)
8000190e:	0591                	add	a1,a1,4
80001910:	fcd7f4e3          	bgeu	a5,a3,800018d8 <quorem+0xbe>
80001914:	00241793          	sll	a5,s0,0x2
80001918:	979a                	add	a5,a5,t1
8000191a:	4398                	lw	a4,0(a5)
8000191c:	c31d                	beqz	a4,80001942 <quorem+0x128>
8000191e:	0485                	add	s1,s1,1
80001920:	8526                	mv	a0,s1
80001922:	40e2                	lw	ra,24(sp)
80001924:	4452                	lw	s0,20(sp)
80001926:	44c2                	lw	s1,16(sp)
80001928:	0171                	add	sp,sp,28
8000192a:	8082                	ret
8000192c:	429c                	lw	a5,0(a3)
8000192e:	e789                	bnez	a5,80001938 <quorem+0x11e>
80001930:	147d                	add	s0,s0,-1
80001932:	16f1                	add	a3,a3,-4
80001934:	fed36ce3          	bltu	t1,a3,8000192c <quorem+0x112>
80001938:	ca00                	sw	s0,16(a2)
8000193a:	b759                	j	800018c0 <quorem+0xa6>
8000193c:	4398                	lw	a4,0(a5)
8000193e:	e709                	bnez	a4,80001948 <quorem+0x12e>
80001940:	147d                	add	s0,s0,-1
80001942:	17f1                	add	a5,a5,-4
80001944:	fef36ce3          	bltu	t1,a5,8000193c <quorem+0x122>
80001948:	ca00                	sw	s0,16(a2)
8000194a:	bfd1                	j	8000191e <quorem+0x104>
8000194c:	4501                	li	a0,0
8000194e:	bfd1                	j	80001922 <quorem+0x108>

80001950 <_dtoa_r>:
_dtoa_r():
80001950:	f8410113          	add	sp,sp,-124
80001954:	daa2                	sw	s0,116(sp)
80001956:	d8a6                	sw	s1,112(sp)
80001958:	cabe                	sw	a5,84(sp)
8000195a:	dc86                	sw	ra,120(sp)
8000195c:	c02a                	sw	a0,0(sp)
8000195e:	da36                	sw	a3,52(sp)
80001960:	c0ba                	sw	a4,64(sp)
80001962:	dc2e                	sw	a1,56(sp)
80001964:	d632                	sw	a2,44(sp)
80001966:	4d5c                	lw	a5,28(a0)
80001968:	842e                	mv	s0,a1
8000196a:	84b2                	mv	s1,a2
8000196c:	ef85                	bnez	a5,800019a4 <_dtoa_r+0x54>
8000196e:	4541                	li	a0,16
80001970:	49b000ef          	jal	8000260a <malloc>
80001974:	4782                	lw	a5,0(sp)
80001976:	cfc8                	sw	a0,28(a5)
80001978:	ed11                	bnez	a0,80001994 <_dtoa_r+0x44>
8000197a:	0ffff697          	auipc	a3,0xffff
8000197e:	ad268693          	add	a3,a3,-1326 # 9000044c <_impure_ptr+0x27c>
80001982:	4601                	li	a2,0
80001984:	0ef00593          	li	a1,239
80001988:	0ffff517          	auipc	a0,0xffff
8000198c:	adc50513          	add	a0,a0,-1316 # 90000464 <_impure_ptr+0x294>
80001990:	7c3010ef          	jal	80003952 <__assert_func>
80001994:	00052223          	sw	zero,4(a0)
80001998:	00052423          	sw	zero,8(a0)
8000199c:	00052023          	sw	zero,0(a0)
800019a0:	00052623          	sw	zero,12(a0)
800019a4:	4782                	lw	a5,0(sp)
800019a6:	4fdc                	lw	a5,28(a5)
800019a8:	438c                	lw	a1,0(a5)
800019aa:	cd91                	beqz	a1,800019c6 <_dtoa_r+0x76>
800019ac:	43d8                	lw	a4,4(a5)
800019ae:	4785                	li	a5,1
800019b0:	00e797b3          	sll	a5,a5,a4
800019b4:	c59c                	sw	a5,8(a1)
800019b6:	c1d8                	sw	a4,4(a1)
800019b8:	4502                	lw	a0,0(sp)
800019ba:	67f000ef          	jal	80002838 <_Bfree>
800019be:	4782                	lw	a5,0(sp)
800019c0:	4fdc                	lw	a5,28(a5)
800019c2:	0007a023          	sw	zero,0(a5)
800019c6:	0404d263          	bgez	s1,80001a0a <_dtoa_r+0xba>
800019ca:	4785                	li	a5,1
800019cc:	5776                	lw	a4,124(sp)
800019ce:	00149613          	sll	a2,s1,0x1
800019d2:	c31c                	sw	a5,0(a4)
800019d4:	00165793          	srl	a5,a2,0x1
800019d8:	d63e                	sw	a5,44(sp)
800019da:	7ff007b7          	lui	a5,0x7ff00
800019de:	5732                	lw	a4,44(sp)
800019e0:	8f7d                	and	a4,a4,a5
800019e2:	04f71a63          	bne	a4,a5,80001a36 <_dtoa_r+0xe6>
800019e6:	6789                	lui	a5,0x2
800019e8:	70f78793          	add	a5,a5,1807 # 270f <__HEAP_SIZE+0x1f0f>
800019ec:	4756                	lw	a4,84(sp)
800019ee:	c31c                	sw	a5,0(a4)
800019f0:	57b2                	lw	a5,44(sp)
800019f2:	07b2                	sll	a5,a5,0xc
800019f4:	83b1                	srl	a5,a5,0xc
800019f6:	8fc1                	or	a5,a5,s0
800019f8:	3a078ce3          	beqz	a5,800025b0 <_dtoa_r+0xc60>
800019fc:	478a                	lw	a5,128(sp)
800019fe:	eb91                	bnez	a5,80001a12 <_dtoa_r+0xc2>
80001a00:	0ffff797          	auipc	a5,0xffff
80001a04:	a4878793          	add	a5,a5,-1464 # 90000448 <_impure_ptr+0x278>
80001a08:	a095                	j	80001a6c <_dtoa_r+0x11c>
80001a0a:	57f6                	lw	a5,124(sp)
80001a0c:	0007a023          	sw	zero,0(a5)
80001a10:	b7e9                	j	800019da <_dtoa_r+0x8a>
80001a12:	0ffff797          	auipc	a5,0xffff
80001a16:	a3678793          	add	a5,a5,-1482 # 90000448 <_impure_ptr+0x278>
80001a1a:	ca3e                	sw	a5,20(sp)
80001a1c:	0ffff797          	auipc	a5,0xffff
80001a20:	a2f78793          	add	a5,a5,-1489 # 9000044b <_impure_ptr+0x27b>
80001a24:	470a                	lw	a4,128(sp)
80001a26:	c31c                	sw	a5,0(a4)
80001a28:	50e6                	lw	ra,120(sp)
80001a2a:	5456                	lw	s0,116(sp)
80001a2c:	4552                	lw	a0,20(sp)
80001a2e:	54c6                	lw	s1,112(sp)
80001a30:	07c10113          	add	sp,sp,124
80001a34:	8082                	ret
80001a36:	5332                	lw	t1,44(sp)
80001a38:	859a                	mv	a1,t1
80001a3a:	4601                	li	a2,0
80001a3c:	4681                	li	a3,0
80001a3e:	8522                	mv	a0,s0
80001a40:	c49a                	sw	t1,72(sp)
80001a42:	c21a                	sw	t1,4(sp)
80001a44:	c8a2                	sw	s0,80(sp)
80001a46:	2aa030ef          	jal	80004cf0 <__eqdf2>
80001a4a:	4312                	lw	t1,4(sp)
80001a4c:	e115                	bnez	a0,80001a70 <_dtoa_r+0x120>
80001a4e:	4785                	li	a5,1
80001a50:	4756                	lw	a4,84(sp)
80001a52:	c31c                	sw	a5,0(a4)
80001a54:	478a                	lw	a5,128(sp)
80001a56:	c799                	beqz	a5,80001a64 <_dtoa_r+0x114>
80001a58:	0ffff797          	auipc	a5,0xffff
80001a5c:	96178793          	add	a5,a5,-1695 # 900003b9 <_impure_ptr+0x1e9>
80001a60:	470a                	lw	a4,128(sp)
80001a62:	c31c                	sw	a5,0(a4)
80001a64:	0ffff797          	auipc	a5,0xffff
80001a68:	95478793          	add	a5,a5,-1708 # 900003b8 <_impure_ptr+0x1e8>
80001a6c:	ca3e                	sw	a5,20(sp)
80001a6e:	bf6d                	j	80001a28 <_dtoa_r+0xd8>
80001a70:	10b8                	add	a4,sp,104
80001a72:	10f4                	add	a3,sp,108
80001a74:	861a                	mv	a2,t1
80001a76:	85a2                	mv	a1,s0
80001a78:	4502                	lw	a0,0(sp)
80001a7a:	486010ef          	jal	80002f00 <__d2b>
80001a7e:	57b2                	lw	a5,44(sp)
80001a80:	0147d713          	srl	a4,a5,0x14
80001a84:	57a6                	lw	a5,104(sp)
80001a86:	c42a                	sw	a0,8(sp)
80001a88:	7ff77713          	and	a4,a4,2047
80001a8c:	ca3e                	sw	a5,20(sp)
80001a8e:	14070163          	beqz	a4,80001bd0 <_dtoa_r+0x280>
80001a92:	47a6                	lw	a5,72(sp)
80001a94:	07b2                	sll	a5,a5,0xc
80001a96:	83b1                	srl	a5,a5,0xc
80001a98:	3ff006b7          	lui	a3,0x3ff00
80001a9c:	c0170713          	add	a4,a4,-1023
80001aa0:	8fd5                	or	a5,a5,a3
80001aa2:	c63a                	sw	a4,12(sp)
80001aa4:	8522                	mv	a0,s0
80001aa6:	ce82                	sw	zero,92(sp)
80001aa8:	0fffe717          	auipc	a4,0xfffe
80001aac:	73870713          	add	a4,a4,1848 # 900001e0 <_impure_ptr+0x10>
80001ab0:	4310                	lw	a2,0(a4)
80001ab2:	4354                	lw	a3,4(a4)
80001ab4:	85be                	mv	a1,a5
80001ab6:	08f030ef          	jal	80005344 <__subdf3>
80001aba:	0fffe797          	auipc	a5,0xfffe
80001abe:	72e78793          	add	a5,a5,1838 # 900001e8 <_impure_ptr+0x18>
80001ac2:	4390                	lw	a2,0(a5)
80001ac4:	43d4                	lw	a3,4(a5)
80001ac6:	3f4030ef          	jal	80004eba <__muldf3>
80001aca:	0fffe797          	auipc	a5,0xfffe
80001ace:	72678793          	add	a5,a5,1830 # 900001f0 <_impure_ptr+0x20>
80001ad2:	4390                	lw	a2,0(a5)
80001ad4:	43d4                	lw	a3,4(a5)
80001ad6:	6dc020ef          	jal	800041b2 <__adddf3>
80001ada:	84aa                	mv	s1,a0
80001adc:	4532                	lw	a0,12(sp)
80001ade:	842e                	mv	s0,a1
80001ae0:	6d7030ef          	jal	800059b6 <__floatsidf>
80001ae4:	0fffe797          	auipc	a5,0xfffe
80001ae8:	71478793          	add	a5,a5,1812 # 900001f8 <_impure_ptr+0x28>
80001aec:	4390                	lw	a2,0(a5)
80001aee:	43d4                	lw	a3,4(a5)
80001af0:	3ca030ef          	jal	80004eba <__muldf3>
80001af4:	862a                	mv	a2,a0
80001af6:	86ae                	mv	a3,a1
80001af8:	8526                	mv	a0,s1
80001afa:	85a2                	mv	a1,s0
80001afc:	6b6020ef          	jal	800041b2 <__adddf3>
80001b00:	84aa                	mv	s1,a0
80001b02:	842e                	mv	s0,a1
80001b04:	64d030ef          	jal	80005950 <__fixdfsi>
80001b08:	c22a                	sw	a0,4(sp)
80001b0a:	4601                	li	a2,0
80001b0c:	4681                	li	a3,0
80001b0e:	8526                	mv	a0,s1
80001b10:	85a2                	mv	a1,s0
80001b12:	300030ef          	jal	80004e12 <__ledf2>
80001b16:	00055e63          	bgez	a0,80001b32 <_dtoa_r+0x1e2>
80001b1a:	4512                	lw	a0,4(sp)
80001b1c:	69b030ef          	jal	800059b6 <__floatsidf>
80001b20:	8626                	mv	a2,s1
80001b22:	86a2                	mv	a3,s0
80001b24:	1cc030ef          	jal	80004cf0 <__eqdf2>
80001b28:	4792                	lw	a5,4(sp)
80001b2a:	00a03533          	snez	a0,a0
80001b2e:	8f89                	sub	a5,a5,a0
80001b30:	c23e                	sw	a5,4(sp)
80001b32:	4705                	li	a4,1
80001b34:	c6ba                	sw	a4,76(sp)
80001b36:	47d9                	li	a5,22
80001b38:	4712                	lw	a4,4(sp)
80001b3a:	02e7e263          	bltu	a5,a4,80001b5e <_dtoa_r+0x20e>
80001b3e:	070e                	sll	a4,a4,0x3
80001b40:	b8818793          	add	a5,gp,-1144 # 90000550 <__mprec_tens>
80001b44:	97ba                	add	a5,a5,a4
80001b46:	4390                	lw	a2,0(a5)
80001b48:	43d4                	lw	a3,4(a5)
80001b4a:	4546                	lw	a0,80(sp)
80001b4c:	45a6                	lw	a1,72(sp)
80001b4e:	2c4030ef          	jal	80004e12 <__ledf2>
80001b52:	00055563          	bgez	a0,80001b5c <_dtoa_r+0x20c>
80001b56:	4792                	lw	a5,4(sp)
80001b58:	17fd                	add	a5,a5,-1
80001b5a:	c23e                	sw	a5,4(sp)
80001b5c:	c682                	sw	zero,76(sp)
80001b5e:	4732                	lw	a4,12(sp)
80001b60:	47d2                	lw	a5,20(sp)
80001b62:	8f99                	sub	a5,a5,a4
80001b64:	fff78713          	add	a4,a5,-1
80001b68:	d43a                	sw	a4,40(sp)
80001b6a:	cc02                	sw	zero,24(sp)
80001b6c:	00075763          	bgez	a4,80001b7a <_dtoa_r+0x22a>
80001b70:	4705                	li	a4,1
80001b72:	40f707b3          	sub	a5,a4,a5
80001b76:	cc3e                	sw	a5,24(sp)
80001b78:	d402                	sw	zero,40(sp)
80001b7a:	4792                	lw	a5,4(sp)
80001b7c:	0807ce63          	bltz	a5,80001c18 <_dtoa_r+0x2c8>
80001b80:	57a2                	lw	a5,40(sp)
80001b82:	4712                	lw	a4,4(sp)
80001b84:	97ba                	add	a5,a5,a4
80001b86:	d43e                	sw	a5,40(sp)
80001b88:	c2ba                	sw	a4,68(sp)
80001b8a:	d202                	sw	zero,36(sp)
80001b8c:	47a5                	li	a5,9
80001b8e:	5752                	lw	a4,52(sp)
80001b90:	0ee7e863          	bltu	a5,a4,80001c80 <_dtoa_r+0x330>
80001b94:	4795                	li	a5,5
80001b96:	4405                	li	s0,1
80001b98:	00e7d663          	bge	a5,a4,80001ba4 <_dtoa_r+0x254>
80001b9c:	ffc70793          	add	a5,a4,-4
80001ba0:	da3e                	sw	a5,52(sp)
80001ba2:	4401                	li	s0,0
80001ba4:	4791                	li	a5,4
80001ba6:	5752                	lw	a4,52(sp)
80001ba8:	08f70163          	beq	a4,a5,80001c2a <_dtoa_r+0x2da>
80001bac:	4795                	li	a5,5
80001bae:	0af70d63          	beq	a4,a5,80001c68 <_dtoa_r+0x318>
80001bb2:	4789                	li	a5,2
80001bb4:	0af70863          	beq	a4,a5,80001c64 <_dtoa_r+0x314>
80001bb8:	478d                	li	a5,3
80001bba:	de02                	sw	zero,60(sp)
80001bbc:	0af70863          	beq	a4,a5,80001c6c <_dtoa_r+0x31c>
80001bc0:	4785                	li	a5,1
80001bc2:	de3e                	sw	a5,60(sp)
80001bc4:	57fd                	li	a5,-1
80001bc6:	d83e                	sw	a5,48(sp)
80001bc8:	ce3e                	sw	a5,28(sp)
80001bca:	c082                	sw	zero,64(sp)
80001bcc:	47c9                	li	a5,18
80001bce:	a0ad                	j	80001c38 <_dtoa_r+0x2e8>
80001bd0:	47d2                	lw	a5,20(sp)
80001bd2:	54b6                	lw	s1,108(sp)
80001bd4:	94be                	add	s1,s1,a5
80001bd6:	43248713          	add	a4,s1,1074
80001bda:	02000793          	li	a5,32
80001bde:	02e7d963          	bge	a5,a4,80001c10 <_dtoa_r+0x2c0>
80001be2:	04000793          	li	a5,64
80001be6:	8f99                	sub	a5,a5,a4
80001be8:	5732                	lw	a4,44(sp)
80001bea:	00f717b3          	sll	a5,a4,a5
80001bee:	41248713          	add	a4,s1,1042
80001bf2:	00e45733          	srl	a4,s0,a4
80001bf6:	00e7e533          	or	a0,a5,a4
80001bfa:	623030ef          	jal	80005a1c <__floatunsidf>
80001bfe:	fff48713          	add	a4,s1,-1
80001c02:	fe1007b7          	lui	a5,0xfe100
80001c06:	c63a                	sw	a4,12(sp)
80001c08:	4705                	li	a4,1
80001c0a:	97ae                	add	a5,a5,a1
80001c0c:	ceba                	sw	a4,92(sp)
80001c0e:	bd69                	j	80001aa8 <_dtoa_r+0x158>
80001c10:	8f99                	sub	a5,a5,a4
80001c12:	00f41533          	sll	a0,s0,a5
80001c16:	b7d5                	j	80001bfa <_dtoa_r+0x2aa>
80001c18:	47e2                	lw	a5,24(sp)
80001c1a:	4712                	lw	a4,4(sp)
80001c1c:	8f99                	sub	a5,a5,a4
80001c1e:	cc3e                	sw	a5,24(sp)
80001c20:	40e007b3          	neg	a5,a4
80001c24:	d23e                	sw	a5,36(sp)
80001c26:	c282                	sw	zero,68(sp)
80001c28:	b795                	j	80001b8c <_dtoa_r+0x23c>
80001c2a:	4785                	li	a5,1
80001c2c:	de3e                	sw	a5,60(sp)
80001c2e:	4786                	lw	a5,64(sp)
80001c30:	04f05c63          	blez	a5,80001c88 <_dtoa_r+0x338>
80001c34:	d83e                	sw	a5,48(sp)
80001c36:	ce3e                	sw	a5,28(sp)
80001c38:	4702                	lw	a4,0(sp)
80001c3a:	4f54                	lw	a3,28(a4)
80001c3c:	4581                	li	a1,0
80001c3e:	4711                	li	a4,4
80001c40:	01470613          	add	a2,a4,20
80001c44:	04c7f763          	bgeu	a5,a2,80001c92 <_dtoa_r+0x342>
80001c48:	c2cc                	sw	a1,4(a3)
80001c4a:	4502                	lw	a0,0(sp)
80001c4c:	347000ef          	jal	80002792 <_Balloc>
80001c50:	ca2a                	sw	a0,20(sp)
80001c52:	e139                	bnez	a0,80001c98 <_dtoa_r+0x348>
80001c54:	0ffff697          	auipc	a3,0xffff
80001c58:	86068693          	add	a3,a3,-1952 # 900004b4 <_impure_ptr+0x2e4>
80001c5c:	4601                	li	a2,0
80001c5e:	1af00593          	li	a1,431
80001c62:	b31d                	j	80001988 <_dtoa_r+0x38>
80001c64:	de02                	sw	zero,60(sp)
80001c66:	b7e1                	j	80001c2e <_dtoa_r+0x2de>
80001c68:	4785                	li	a5,1
80001c6a:	de3e                	sw	a5,60(sp)
80001c6c:	4792                	lw	a5,4(sp)
80001c6e:	4706                	lw	a4,64(sp)
80001c70:	97ba                	add	a5,a5,a4
80001c72:	d83e                	sw	a5,48(sp)
80001c74:	0785                	add	a5,a5,1 # fe100001 <_sp+0x6e0f0001>
80001c76:	ce3e                	sw	a5,28(sp)
80001c78:	fcf040e3          	bgtz	a5,80001c38 <_dtoa_r+0x2e8>
80001c7c:	4785                	li	a5,1
80001c7e:	bf6d                	j	80001c38 <_dtoa_r+0x2e8>
80001c80:	4405                	li	s0,1
80001c82:	da02                	sw	zero,52(sp)
80001c84:	de22                	sw	s0,60(sp)
80001c86:	bf3d                	j	80001bc4 <_dtoa_r+0x274>
80001c88:	4785                	li	a5,1
80001c8a:	d83e                	sw	a5,48(sp)
80001c8c:	ce3e                	sw	a5,28(sp)
80001c8e:	c0be                	sw	a5,64(sp)
80001c90:	b765                	j	80001c38 <_dtoa_r+0x2e8>
80001c92:	0585                	add	a1,a1,1
80001c94:	0706                	sll	a4,a4,0x1
80001c96:	b76d                	j	80001c40 <_dtoa_r+0x2f0>
80001c98:	4782                	lw	a5,0(sp)
80001c9a:	4fdc                	lw	a5,28(a5)
80001c9c:	4752                	lw	a4,20(sp)
80001c9e:	c398                	sw	a4,0(a5)
80001ca0:	47b9                	li	a5,14
80001ca2:	4772                	lw	a4,28(sp)
80001ca4:	18e7ec63          	bltu	a5,a4,80001e3c <_dtoa_r+0x4ec>
80001ca8:	18040a63          	beqz	s0,80001e3c <_dtoa_r+0x4ec>
80001cac:	4792                	lw	a5,4(sp)
80001cae:	08f05263          	blez	a5,80001d32 <_dtoa_r+0x3e2>
80001cb2:	00f7f713          	and	a4,a5,15
80001cb6:	4692                	lw	a3,4(sp)
80001cb8:	070e                	sll	a4,a4,0x3
80001cba:	b8818793          	add	a5,gp,-1144 # 90000550 <__mprec_tens>
80001cbe:	4046d493          	sra	s1,a3,0x4
80001cc2:	97ba                	add	a5,a5,a4
80001cc4:	0104f693          	and	a3,s1,16
80001cc8:	4398                	lw	a4,0(a5)
80001cca:	4409                	li	s0,2
80001ccc:	43dc                	lw	a5,4(a5)
80001cce:	c28d                	beqz	a3,80001cf0 <_dtoa_r+0x3a0>
80001cd0:	b6018693          	add	a3,gp,-1184 # 90000528 <__mprec_bigtens>
80001cd4:	5290                	lw	a2,32(a3)
80001cd6:	4546                	lw	a0,80(sp)
80001cd8:	52d4                	lw	a3,36(a3)
80001cda:	45a6                	lw	a1,72(sp)
80001cdc:	d03e                	sw	a5,32(sp)
80001cde:	c63a                	sw	a4,12(sp)
80001ce0:	29d020ef          	jal	8000477c <__divdf3>
80001ce4:	88bd                	and	s1,s1,15
80001ce6:	dc2a                	sw	a0,56(sp)
80001ce8:	d62e                	sw	a1,44(sp)
80001cea:	440d                	li	s0,3
80001cec:	5782                	lw	a5,32(sp)
80001cee:	4732                	lw	a4,12(sp)
80001cf0:	b6018313          	add	t1,gp,-1184 # 90000528 <__mprec_bigtens>
80001cf4:	ec81                	bnez	s1,80001d0c <_dtoa_r+0x3bc>
80001cf6:	863a                	mv	a2,a4
80001cf8:	86be                	mv	a3,a5
80001cfa:	5762                	lw	a4,56(sp)
80001cfc:	57b2                	lw	a5,44(sp)
80001cfe:	853a                	mv	a0,a4
80001d00:	85be                	mv	a1,a5
80001d02:	27b020ef          	jal	8000477c <__divdf3>
80001d06:	dc2a                	sw	a0,56(sp)
80001d08:	d62e                	sw	a1,44(sp)
80001d0a:	a8b1                	j	80001d66 <_dtoa_r+0x416>
80001d0c:	0014f693          	and	a3,s1,1
80001d10:	ce91                	beqz	a3,80001d2c <_dtoa_r+0x3dc>
80001d12:	00032603          	lw	a2,0(t1)
80001d16:	00432683          	lw	a3,4(t1)
80001d1a:	853a                	mv	a0,a4
80001d1c:	85be                	mv	a1,a5
80001d1e:	c61a                	sw	t1,12(sp)
80001d20:	19a030ef          	jal	80004eba <__muldf3>
80001d24:	0405                	add	s0,s0,1
80001d26:	872a                	mv	a4,a0
80001d28:	87ae                	mv	a5,a1
80001d2a:	4332                	lw	t1,12(sp)
80001d2c:	8485                	sra	s1,s1,0x1
80001d2e:	0321                	add	t1,t1,8
80001d30:	b7d1                	j	80001cf4 <_dtoa_r+0x3a4>
80001d32:	4792                	lw	a5,4(sp)
80001d34:	4409                	li	s0,2
80001d36:	cb85                	beqz	a5,80001d66 <_dtoa_r+0x416>
80001d38:	40f004b3          	neg	s1,a5
80001d3c:	00f4f713          	and	a4,s1,15
80001d40:	070e                	sll	a4,a4,0x3
80001d42:	b8818793          	add	a5,gp,-1144 # 90000550 <__mprec_tens>
80001d46:	97ba                	add	a5,a5,a4
80001d48:	4390                	lw	a2,0(a5)
80001d4a:	43d4                	lw	a3,4(a5)
80001d4c:	4546                	lw	a0,80(sp)
80001d4e:	45a6                	lw	a1,72(sp)
80001d50:	16a030ef          	jal	80004eba <__muldf3>
80001d54:	dc2a                	sw	a0,56(sp)
80001d56:	d62e                	sw	a1,44(sp)
80001d58:	8491                	sra	s1,s1,0x4
80001d5a:	b6018313          	add	t1,gp,-1184 # 90000528 <__mprec_bigtens>
80001d5e:	4781                	li	a5,0
80001d60:	16049263          	bnez	s1,80001ec4 <_dtoa_r+0x574>
80001d64:	f3cd                	bnez	a5,80001d06 <_dtoa_r+0x3b6>
80001d66:	4736                	lw	a4,76(sp)
80001d68:	57e2                	lw	a5,56(sp)
80001d6a:	54b2                	lw	s1,44(sp)
80001d6c:	16070c63          	beqz	a4,80001ee4 <_dtoa_r+0x594>
80001d70:	0fffe717          	auipc	a4,0xfffe
80001d74:	49070713          	add	a4,a4,1168 # 90000200 <_impure_ptr+0x30>
80001d78:	4310                	lw	a2,0(a4)
80001d7a:	4354                	lw	a3,4(a4)
80001d7c:	853e                	mv	a0,a5
80001d7e:	85a6                	mv	a1,s1
80001d80:	c63e                	sw	a5,12(sp)
80001d82:	090030ef          	jal	80004e12 <__ledf2>
80001d86:	14055f63          	bgez	a0,80001ee4 <_dtoa_r+0x594>
80001d8a:	47f2                	lw	a5,28(sp)
80001d8c:	16078063          	beqz	a5,80001eec <_dtoa_r+0x59c>
80001d90:	57c2                	lw	a5,48(sp)
80001d92:	0af05163          	blez	a5,80001e34 <_dtoa_r+0x4e4>
80001d96:	4792                	lw	a5,4(sp)
80001d98:	17fd                	add	a5,a5,-1
80001d9a:	0fffe717          	auipc	a4,0xfffe
80001d9e:	46e70713          	add	a4,a4,1134 # 90000208 <_impure_ptr+0x38>
80001da2:	d03e                	sw	a5,32(sp)
80001da4:	47b2                	lw	a5,12(sp)
80001da6:	853e                	mv	a0,a5
80001da8:	4310                	lw	a2,0(a4)
80001daa:	4354                	lw	a3,4(a4)
80001dac:	85a6                	mv	a1,s1
80001dae:	10c030ef          	jal	80004eba <__muldf3>
80001db2:	dc2a                	sw	a0,56(sp)
80001db4:	d62e                	sw	a1,44(sp)
80001db6:	0405                	add	s0,s0,1
80001db8:	57c2                	lw	a5,48(sp)
80001dba:	5332                	lw	t1,44(sp)
80001dbc:	52e2                	lw	t0,56(sp)
80001dbe:	8522                	mv	a0,s0
80001dc0:	ccbe                	sw	a5,88(sp)
80001dc2:	849a                	mv	s1,t1
80001dc4:	c616                	sw	t0,12(sp)
80001dc6:	3f1030ef          	jal	800059b6 <__floatsidf>
80001dca:	52e2                	lw	t0,56(sp)
80001dcc:	8616                	mv	a2,t0
80001dce:	86a6                	mv	a3,s1
80001dd0:	0ea030ef          	jal	80004eba <__muldf3>
80001dd4:	0fffe717          	auipc	a4,0xfffe
80001dd8:	43c70713          	add	a4,a4,1084 # 90000210 <_impure_ptr+0x40>
80001ddc:	4310                	lw	a2,0(a4)
80001dde:	4354                	lw	a3,4(a4)
80001de0:	3d2020ef          	jal	800041b2 <__adddf3>
80001de4:	fcc00437          	lui	s0,0xfcc00
80001de8:	47e6                	lw	a5,88(sp)
80001dea:	942e                	add	s0,s0,a1
80001dec:	10079463          	bnez	a5,80001ef4 <_dtoa_r+0x5a4>
80001df0:	0fffe797          	auipc	a5,0xfffe
80001df4:	42878793          	add	a5,a5,1064 # 90000218 <_impure_ptr+0x48>
80001df8:	52e2                	lw	t0,56(sp)
80001dfa:	c62a                	sw	a0,12(sp)
80001dfc:	4390                	lw	a2,0(a5)
80001dfe:	43d4                	lw	a3,4(a5)
80001e00:	85a6                	mv	a1,s1
80001e02:	8516                	mv	a0,t0
80001e04:	540030ef          	jal	80005344 <__subdf3>
80001e08:	4732                	lw	a4,12(sp)
80001e0a:	863a                	mv	a2,a4
80001e0c:	86a2                	mv	a3,s0
80001e0e:	d62a                	sw	a0,44(sp)
80001e10:	84ae                	mv	s1,a1
80001e12:	759020ef          	jal	80004d6a <__gedf2>
80001e16:	58a04c63          	bgtz	a0,800023ae <_dtoa_r+0xa5e>
80001e1a:	800007b7          	lui	a5,0x80000
80001e1e:	4732                	lw	a4,12(sp)
80001e20:	8fa1                	xor	a5,a5,s0
80001e22:	5332                	lw	t1,44(sp)
80001e24:	863a                	mv	a2,a4
80001e26:	86be                	mv	a3,a5
80001e28:	851a                	mv	a0,t1
80001e2a:	85a6                	mv	a1,s1
80001e2c:	7e7020ef          	jal	80004e12 <__ledf2>
80001e30:	04054f63          	bltz	a0,80001e8e <_dtoa_r+0x53e>
80001e34:	47c6                	lw	a5,80(sp)
80001e36:	dc3e                	sw	a5,56(sp)
80001e38:	47a6                	lw	a5,72(sp)
80001e3a:	d63e                	sw	a5,44(sp)
80001e3c:	57b6                	lw	a5,108(sp)
80001e3e:	3207cd63          	bltz	a5,80002178 <_dtoa_r+0x828>
80001e42:	4739                	li	a4,14
80001e44:	4692                	lw	a3,4(sp)
80001e46:	32d74963          	blt	a4,a3,80002178 <_dtoa_r+0x828>
80001e4a:	00369713          	sll	a4,a3,0x3
80001e4e:	b8818793          	add	a5,gp,-1144 # 90000550 <__mprec_tens>
80001e52:	97ba                	add	a5,a5,a4
80001e54:	4398                	lw	a4,0(a5)
80001e56:	43dc                	lw	a5,4(a5)
80001e58:	c83e                	sw	a5,16(sp)
80001e5a:	c63a                	sw	a4,12(sp)
80001e5c:	4786                	lw	a5,64(sp)
80001e5e:	2007dd63          	bgez	a5,80002078 <_dtoa_r+0x728>
80001e62:	47f2                	lw	a5,28(sp)
80001e64:	20f04a63          	bgtz	a5,80002078 <_dtoa_r+0x728>
80001e68:	e39d                	bnez	a5,80001e8e <_dtoa_r+0x53e>
80001e6a:	0fffe797          	auipc	a5,0xfffe
80001e6e:	3ae78793          	add	a5,a5,942 # 90000218 <_impure_ptr+0x48>
80001e72:	4390                	lw	a2,0(a5)
80001e74:	43d4                	lw	a3,4(a5)
80001e76:	4532                	lw	a0,12(sp)
80001e78:	45c2                	lw	a1,16(sp)
80001e7a:	040030ef          	jal	80004eba <__muldf3>
80001e7e:	5762                	lw	a4,56(sp)
80001e80:	57b2                	lw	a5,44(sp)
80001e82:	863a                	mv	a2,a4
80001e84:	86be                	mv	a3,a5
80001e86:	6e5020ef          	jal	80004d6a <__gedf2>
80001e8a:	52054063          	bltz	a0,800023aa <_dtoa_r+0xa5a>
80001e8e:	d202                	sw	zero,36(sp)
80001e90:	c602                	sw	zero,12(sp)
80001e92:	4786                	lw	a5,64(sp)
80001e94:	fff7c793          	not	a5,a5
80001e98:	d03e                	sw	a5,32(sp)
80001e9a:	4452                	lw	s0,20(sp)
80001e9c:	4481                	li	s1,0
80001e9e:	5592                	lw	a1,36(sp)
80001ea0:	4502                	lw	a0,0(sp)
80001ea2:	197000ef          	jal	80002838 <_Bfree>
80001ea6:	47b2                	lw	a5,12(sp)
80001ea8:	1a078a63          	beqz	a5,8000205c <_dtoa_r+0x70c>
80001eac:	c499                	beqz	s1,80001eba <_dtoa_r+0x56a>
80001eae:	00f48663          	beq	s1,a5,80001eba <_dtoa_r+0x56a>
80001eb2:	85a6                	mv	a1,s1
80001eb4:	4502                	lw	a0,0(sp)
80001eb6:	183000ef          	jal	80002838 <_Bfree>
80001eba:	45b2                	lw	a1,12(sp)
80001ebc:	4502                	lw	a0,0(sp)
80001ebe:	17b000ef          	jal	80002838 <_Bfree>
80001ec2:	aa69                	j	8000205c <_dtoa_r+0x70c>
80001ec4:	0014f713          	and	a4,s1,1
80001ec8:	cb19                	beqz	a4,80001ede <_dtoa_r+0x58e>
80001eca:	00032603          	lw	a2,0(t1)
80001ece:	00432683          	lw	a3,4(t1)
80001ed2:	c61a                	sw	t1,12(sp)
80001ed4:	7e7020ef          	jal	80004eba <__muldf3>
80001ed8:	0405                	add	s0,s0,1 # fcc00001 <_sp+0x6cbf0001>
80001eda:	4785                	li	a5,1
80001edc:	4332                	lw	t1,12(sp)
80001ede:	8485                	sra	s1,s1,0x1
80001ee0:	0321                	add	t1,t1,8
80001ee2:	bdbd                	j	80001d60 <_dtoa_r+0x410>
80001ee4:	4792                	lw	a5,4(sp)
80001ee6:	d03e                	sw	a5,32(sp)
80001ee8:	47f2                	lw	a5,28(sp)
80001eea:	bdc1                	j	80001dba <_dtoa_r+0x46a>
80001eec:	4792                	lw	a5,4(sp)
80001eee:	d03e                	sw	a5,32(sp)
80001ef0:	4781                	li	a5,0
80001ef2:	b5e1                	j	80001dba <_dtoa_r+0x46a>
80001ef4:	fff78693          	add	a3,a5,-1
80001ef8:	068e                	sll	a3,a3,0x3
80001efa:	b8818713          	add	a4,gp,-1144 # 90000550 <__mprec_tens>
80001efe:	9736                	add	a4,a4,a3
80001f00:	4310                	lw	a2,0(a4)
80001f02:	4354                	lw	a3,4(a4)
80001f04:	4752                	lw	a4,20(sp)
80001f06:	97ba                	add	a5,a5,a4
80001f08:	ccbe                	sw	a5,88(sp)
80001f0a:	57f2                	lw	a5,60(sp)
80001f0c:	cbd5                	beqz	a5,80001fc0 <_dtoa_r+0x670>
80001f0e:	0fffe797          	auipc	a5,0xfffe
80001f12:	31278793          	add	a5,a5,786 # 90000220 <_impure_ptr+0x50>
80001f16:	d62a                	sw	a0,44(sp)
80001f18:	43cc                	lw	a1,4(a5)
80001f1a:	4388                	lw	a0,0(a5)
80001f1c:	dc22                	sw	s0,56(sp)
80001f1e:	05f020ef          	jal	8000477c <__divdf3>
80001f22:	52b2                	lw	t0,44(sp)
80001f24:	86a2                	mv	a3,s0
80001f26:	8616                	mv	a2,t0
80001f28:	41c030ef          	jal	80005344 <__subdf3>
80001f2c:	d62a                	sw	a0,44(sp)
80001f2e:	dc2e                	sw	a1,56(sp)
80001f30:	4452                	lw	s0,20(sp)
80001f32:	85a6                	mv	a1,s1
80001f34:	4532                	lw	a0,12(sp)
80001f36:	21b030ef          	jal	80005950 <__fixdfsi>
80001f3a:	d0aa                	sw	a0,96(sp)
80001f3c:	27b030ef          	jal	800059b6 <__floatsidf>
80001f40:	862a                	mv	a2,a0
80001f42:	86ae                	mv	a3,a1
80001f44:	4532                	lw	a0,12(sp)
80001f46:	85a6                	mv	a1,s1
80001f48:	3fc030ef          	jal	80005344 <__subdf3>
80001f4c:	5786                	lw	a5,96(sp)
80001f4e:	0405                	add	s0,s0,1
80001f50:	03078793          	add	a5,a5,48
80001f54:	fef40fa3          	sb	a5,-1(s0)
80001f58:	5632                	lw	a2,44(sp)
80001f5a:	56e2                	lw	a3,56(sp)
80001f5c:	84aa                	mv	s1,a0
80001f5e:	c62e                	sw	a1,12(sp)
80001f60:	6b3020ef          	jal	80004e12 <__ledf2>
80001f64:	0e054c63          	bltz	a0,8000205c <_dtoa_r+0x70c>
80001f68:	0fffe797          	auipc	a5,0xfffe
80001f6c:	29878793          	add	a5,a5,664 # 90000200 <_impure_ptr+0x30>
80001f70:	8626                	mv	a2,s1
80001f72:	46b2                	lw	a3,12(sp)
80001f74:	4388                	lw	a0,0(a5)
80001f76:	43cc                	lw	a1,4(a5)
80001f78:	3cc030ef          	jal	80005344 <__subdf3>
80001f7c:	5632                	lw	a2,44(sp)
80001f7e:	56e2                	lw	a3,56(sp)
80001f80:	693020ef          	jal	80004e12 <__ledf2>
80001f84:	18054d63          	bltz	a0,8000211e <_dtoa_r+0x7ce>
80001f88:	47e6                	lw	a5,88(sp)
80001f8a:	eaf405e3          	beq	s0,a5,80001e34 <_dtoa_r+0x4e4>
80001f8e:	0fffe797          	auipc	a5,0xfffe
80001f92:	27a78793          	add	a5,a5,634 # 90000208 <_impure_ptr+0x38>
80001f96:	4390                	lw	a2,0(a5)
80001f98:	43d4                	lw	a3,4(a5)
80001f9a:	5532                	lw	a0,44(sp)
80001f9c:	55e2                	lw	a1,56(sp)
80001f9e:	71d020ef          	jal	80004eba <__muldf3>
80001fa2:	0fffe797          	auipc	a5,0xfffe
80001fa6:	26678793          	add	a5,a5,614 # 90000208 <_impure_ptr+0x38>
80001faa:	d62a                	sw	a0,44(sp)
80001fac:	dc2e                	sw	a1,56(sp)
80001fae:	8526                	mv	a0,s1
80001fb0:	45b2                	lw	a1,12(sp)
80001fb2:	4390                	lw	a2,0(a5)
80001fb4:	43d4                	lw	a3,4(a5)
80001fb6:	705020ef          	jal	80004eba <__muldf3>
80001fba:	c62a                	sw	a0,12(sp)
80001fbc:	84ae                	mv	s1,a1
80001fbe:	bf95                	j	80001f32 <_dtoa_r+0x5e2>
80001fc0:	85a2                	mv	a1,s0
80001fc2:	6f9020ef          	jal	80004eba <__muldf3>
80001fc6:	47e6                	lw	a5,88(sp)
80001fc8:	dc2a                	sw	a0,56(sp)
80001fca:	d0ae                	sw	a1,96(sp)
80001fcc:	d63e                	sw	a5,44(sp)
80001fce:	4452                	lw	s0,20(sp)
80001fd0:	85a6                	mv	a1,s1
80001fd2:	4532                	lw	a0,12(sp)
80001fd4:	17d030ef          	jal	80005950 <__fixdfsi>
80001fd8:	d2aa                	sw	a0,100(sp)
80001fda:	1dd030ef          	jal	800059b6 <__floatsidf>
80001fde:	862a                	mv	a2,a0
80001fe0:	86ae                	mv	a3,a1
80001fe2:	4532                	lw	a0,12(sp)
80001fe4:	85a6                	mv	a1,s1
80001fe6:	35e030ef          	jal	80005344 <__subdf3>
80001fea:	5796                	lw	a5,100(sp)
80001fec:	03078793          	add	a5,a5,48
80001ff0:	0405                	add	s0,s0,1
80001ff2:	fef40fa3          	sb	a5,-1(s0)
80001ff6:	c62a                	sw	a0,12(sp)
80001ff8:	47e6                	lw	a5,88(sp)
80001ffa:	84ae                	mv	s1,a1
80001ffc:	06f41363          	bne	s0,a5,80002062 <_dtoa_r+0x712>
80002000:	0fffe797          	auipc	a5,0xfffe
80002004:	22078793          	add	a5,a5,544 # 90000220 <_impure_ptr+0x50>
80002008:	4390                	lw	a2,0(a5)
8000200a:	43d4                	lw	a3,4(a5)
8000200c:	5562                	lw	a0,56(sp)
8000200e:	5586                	lw	a1,96(sp)
80002010:	1a2020ef          	jal	800041b2 <__adddf3>
80002014:	862a                	mv	a2,a0
80002016:	86ae                	mv	a3,a1
80002018:	4532                	lw	a0,12(sp)
8000201a:	85a6                	mv	a1,s1
8000201c:	54f020ef          	jal	80004d6a <__gedf2>
80002020:	0ea04f63          	bgtz	a0,8000211e <_dtoa_r+0x7ce>
80002024:	0fffe797          	auipc	a5,0xfffe
80002028:	1fc78793          	add	a5,a5,508 # 90000220 <_impure_ptr+0x50>
8000202c:	5662                	lw	a2,56(sp)
8000202e:	5686                	lw	a3,96(sp)
80002030:	4388                	lw	a0,0(a5)
80002032:	43cc                	lw	a1,4(a5)
80002034:	310030ef          	jal	80005344 <__subdf3>
80002038:	862a                	mv	a2,a0
8000203a:	86ae                	mv	a3,a1
8000203c:	4532                	lw	a0,12(sp)
8000203e:	85a6                	mv	a1,s1
80002040:	5d3020ef          	jal	80004e12 <__ledf2>
80002044:	de0558e3          	bgez	a0,80001e34 <_dtoa_r+0x4e4>
80002048:	03000793          	li	a5,48
8000204c:	5432                	lw	s0,44(sp)
8000204e:	fff40713          	add	a4,s0,-1
80002052:	d63a                	sw	a4,44(sp)
80002054:	fff44703          	lbu	a4,-1(s0)
80002058:	fef70ae3          	beq	a4,a5,8000204c <_dtoa_r+0x6fc>
8000205c:	5782                	lw	a5,32(sp)
8000205e:	c23e                	sw	a5,4(sp)
80002060:	a869                	j	800020fa <_dtoa_r+0x7aa>
80002062:	0fffe797          	auipc	a5,0xfffe
80002066:	1a678793          	add	a5,a5,422 # 90000208 <_impure_ptr+0x38>
8000206a:	4390                	lw	a2,0(a5)
8000206c:	43d4                	lw	a3,4(a5)
8000206e:	64d020ef          	jal	80004eba <__muldf3>
80002072:	c62a                	sw	a0,12(sp)
80002074:	84ae                	mv	s1,a1
80002076:	bfa9                	j	80001fd0 <_dtoa_r+0x680>
80002078:	46d2                	lw	a3,20(sp)
8000207a:	4672                	lw	a2,28(sp)
8000207c:	00168493          	add	s1,a3,1
80002080:	96b2                	add	a3,a3,a2
80002082:	5762                	lw	a4,56(sp)
80002084:	57b2                	lw	a5,44(sp)
80002086:	ce36                	sw	a3,28(sp)
80002088:	853a                	mv	a0,a4
8000208a:	85be                	mv	a1,a5
8000208c:	4632                	lw	a2,12(sp)
8000208e:	46c2                	lw	a3,16(sp)
80002090:	d23a                	sw	a4,36(sp)
80002092:	d03e                	sw	a5,32(sp)
80002094:	6e8020ef          	jal	8000477c <__divdf3>
80002098:	0b9030ef          	jal	80005950 <__fixdfsi>
8000209c:	cc2a                	sw	a0,24(sp)
8000209e:	119030ef          	jal	800059b6 <__floatsidf>
800020a2:	4632                	lw	a2,12(sp)
800020a4:	46c2                	lw	a3,16(sp)
800020a6:	615020ef          	jal	80004eba <__muldf3>
800020aa:	5712                	lw	a4,36(sp)
800020ac:	5782                	lw	a5,32(sp)
800020ae:	86ae                	mv	a3,a1
800020b0:	862a                	mv	a2,a0
800020b2:	85be                	mv	a1,a5
800020b4:	853a                	mv	a0,a4
800020b6:	28e030ef          	jal	80005344 <__subdf3>
800020ba:	46e2                	lw	a3,24(sp)
800020bc:	03068693          	add	a3,a3,48
800020c0:	fed48fa3          	sb	a3,-1(s1)
800020c4:	46f2                	lw	a3,28(sp)
800020c6:	8426                	mv	s0,s1
800020c8:	08969463          	bne	a3,s1,80002150 <_dtoa_r+0x800>
800020cc:	862a                	mv	a2,a0
800020ce:	86ae                	mv	a3,a1
800020d0:	0e2020ef          	jal	800041b2 <__adddf3>
800020d4:	4632                	lw	a2,12(sp)
800020d6:	46c2                	lw	a3,16(sp)
800020d8:	ce2a                	sw	a0,28(sp)
800020da:	84ae                	mv	s1,a1
800020dc:	48f020ef          	jal	80004d6a <__gedf2>
800020e0:	02a04d63          	bgtz	a0,8000211a <_dtoa_r+0x7ca>
800020e4:	47f2                	lw	a5,28(sp)
800020e6:	4632                	lw	a2,12(sp)
800020e8:	46c2                	lw	a3,16(sp)
800020ea:	853e                	mv	a0,a5
800020ec:	85a6                	mv	a1,s1
800020ee:	403020ef          	jal	80004cf0 <__eqdf2>
800020f2:	e501                	bnez	a0,800020fa <_dtoa_r+0x7aa>
800020f4:	47e2                	lw	a5,24(sp)
800020f6:	8b85                	and	a5,a5,1
800020f8:	e38d                	bnez	a5,8000211a <_dtoa_r+0x7ca>
800020fa:	45a2                	lw	a1,8(sp)
800020fc:	4502                	lw	a0,0(sp)
800020fe:	73a000ef          	jal	80002838 <_Bfree>
80002102:	4792                	lw	a5,4(sp)
80002104:	0785                	add	a5,a5,1
80002106:	00040023          	sb	zero,0(s0)
8000210a:	4756                	lw	a4,84(sp)
8000210c:	c31c                	sw	a5,0(a4)
8000210e:	478a                	lw	a5,128(sp)
80002110:	90078ce3          	beqz	a5,80001a28 <_dtoa_r+0xd8>
80002114:	c380                	sw	s0,0(a5)
80002116:	913ff06f          	j	80001a28 <_dtoa_r+0xd8>
8000211a:	4792                	lw	a5,4(sp)
8000211c:	d03e                	sw	a5,32(sp)
8000211e:	87a2                	mv	a5,s0
80002120:	03900713          	li	a4,57
80002124:	843e                	mv	s0,a5
80002126:	fff7c683          	lbu	a3,-1(a5)
8000212a:	17fd                	add	a5,a5,-1
8000212c:	00e69c63          	bne	a3,a4,80002144 <_dtoa_r+0x7f4>
80002130:	46d2                	lw	a3,20(sp)
80002132:	fef699e3          	bne	a3,a5,80002124 <_dtoa_r+0x7d4>
80002136:	5702                	lw	a4,32(sp)
80002138:	0705                	add	a4,a4,1
8000213a:	d03a                	sw	a4,32(sp)
8000213c:	03000713          	li	a4,48
80002140:	00e68023          	sb	a4,0(a3)
80002144:	0007c703          	lbu	a4,0(a5)
80002148:	0705                	add	a4,a4,1
8000214a:	00e78023          	sb	a4,0(a5)
8000214e:	b739                	j	8000205c <_dtoa_r+0x70c>
80002150:	0fffe797          	auipc	a5,0xfffe
80002154:	0b878793          	add	a5,a5,184 # 90000208 <_impure_ptr+0x38>
80002158:	4390                	lw	a2,0(a5)
8000215a:	43d4                	lw	a3,4(a5)
8000215c:	55f020ef          	jal	80004eba <__muldf3>
80002160:	4601                	li	a2,0
80002162:	4681                	li	a3,0
80002164:	d02a                	sw	a0,32(sp)
80002166:	cc2e                	sw	a1,24(sp)
80002168:	389020ef          	jal	80004cf0 <__eqdf2>
8000216c:	0485                	add	s1,s1,1
8000216e:	47e2                	lw	a5,24(sp)
80002170:	5702                	lw	a4,32(sp)
80002172:	f0051be3          	bnez	a0,80002088 <_dtoa_r+0x738>
80002176:	b751                	j	800020fa <_dtoa_r+0x7aa>
80002178:	5772                	lw	a4,60(sp)
8000217a:	1c070663          	beqz	a4,80002346 <_dtoa_r+0x9f6>
8000217e:	4705                	li	a4,1
80002180:	56d2                	lw	a3,52(sp)
80002182:	18d74663          	blt	a4,a3,8000230e <_dtoa_r+0x9be>
80002186:	4776                	lw	a4,92(sp)
80002188:	43378793          	add	a5,a5,1075
8000218c:	e709                	bnez	a4,80002196 <_dtoa_r+0x846>
8000218e:	03600793          	li	a5,54
80002192:	5726                	lw	a4,104(sp)
80002194:	8f99                	sub	a5,a5,a4
80002196:	5492                	lw	s1,36(sp)
80002198:	4462                	lw	s0,24(sp)
8000219a:	4762                	lw	a4,24(sp)
8000219c:	973e                	add	a4,a4,a5
8000219e:	cc3a                	sw	a4,24(sp)
800021a0:	5722                	lw	a4,40(sp)
800021a2:	97ba                	add	a5,a5,a4
800021a4:	4585                	li	a1,1
800021a6:	4502                	lw	a0,0(sp)
800021a8:	d43e                	sw	a5,40(sp)
800021aa:	051000ef          	jal	800029fa <__i2b>
800021ae:	c62a                	sw	a0,12(sp)
800021b0:	c00d                	beqz	s0,800021d2 <_dtoa_r+0x882>
800021b2:	57a2                	lw	a5,40(sp)
800021b4:	00f05f63          	blez	a5,800021d2 <_dtoa_r+0x882>
800021b8:	5722                	lw	a4,40(sp)
800021ba:	87a2                	mv	a5,s0
800021bc:	00875363          	bge	a4,s0,800021c2 <_dtoa_r+0x872>
800021c0:	87ba                	mv	a5,a4
800021c2:	4762                	lw	a4,24(sp)
800021c4:	8f1d                	sub	a4,a4,a5
800021c6:	cc3a                	sw	a4,24(sp)
800021c8:	5722                	lw	a4,40(sp)
800021ca:	8c1d                	sub	s0,s0,a5
800021cc:	40f707b3          	sub	a5,a4,a5
800021d0:	d43e                	sw	a5,40(sp)
800021d2:	5792                	lw	a5,36(sp)
800021d4:	c3a1                	beqz	a5,80002214 <_dtoa_r+0x8c4>
800021d6:	57f2                	lw	a5,60(sp)
800021d8:	16078b63          	beqz	a5,8000234e <_dtoa_r+0x9fe>
800021dc:	c095                	beqz	s1,80002200 <_dtoa_r+0x8b0>
800021de:	8626                	mv	a2,s1
800021e0:	45b2                	lw	a1,12(sp)
800021e2:	4502                	lw	a0,0(sp)
800021e4:	1cb000ef          	jal	80002bae <__pow5mult>
800021e8:	85aa                	mv	a1,a0
800021ea:	c62a                	sw	a0,12(sp)
800021ec:	4622                	lw	a2,8(sp)
800021ee:	4502                	lw	a0,0(sp)
800021f0:	041000ef          	jal	80002a30 <__multiply>
800021f4:	d02a                	sw	a0,32(sp)
800021f6:	45a2                	lw	a1,8(sp)
800021f8:	4502                	lw	a0,0(sp)
800021fa:	2d3d                	jal	80002838 <_Bfree>
800021fc:	5782                	lw	a5,32(sp)
800021fe:	c43e                	sw	a5,8(sp)
80002200:	5792                	lw	a5,36(sp)
80002202:	40978633          	sub	a2,a5,s1
80002206:	00978763          	beq	a5,s1,80002214 <_dtoa_r+0x8c4>
8000220a:	45a2                	lw	a1,8(sp)
8000220c:	4502                	lw	a0,0(sp)
8000220e:	1a1000ef          	jal	80002bae <__pow5mult>
80002212:	c42a                	sw	a0,8(sp)
80002214:	4585                	li	a1,1
80002216:	4502                	lw	a0,0(sp)
80002218:	7e2000ef          	jal	800029fa <__i2b>
8000221c:	d22a                	sw	a0,36(sp)
8000221e:	4796                	lw	a5,68(sp)
80002220:	3a078663          	beqz	a5,800025cc <_dtoa_r+0xc7c>
80002224:	863e                	mv	a2,a5
80002226:	85aa                	mv	a1,a0
80002228:	4502                	lw	a0,0(sp)
8000222a:	185000ef          	jal	80002bae <__pow5mult>
8000222e:	d22a                	sw	a0,36(sp)
80002230:	4785                	li	a5,1
80002232:	5752                	lw	a4,52(sp)
80002234:	4481                	li	s1,0
80002236:	02e7c863          	blt	a5,a4,80002266 <_dtoa_r+0x916>
8000223a:	57e2                	lw	a5,56(sp)
8000223c:	4481                	li	s1,0
8000223e:	e38d                	bnez	a5,80002260 <_dtoa_r+0x910>
80002240:	57b2                	lw	a5,44(sp)
80002242:	07b2                	sll	a5,a5,0xc
80002244:	ef91                	bnez	a5,80002260 <_dtoa_r+0x910>
80002246:	5732                	lw	a4,44(sp)
80002248:	01475793          	srl	a5,a4,0x14
8000224c:	7ff7f793          	and	a5,a5,2047
80002250:	cb81                	beqz	a5,80002260 <_dtoa_r+0x910>
80002252:	47e2                	lw	a5,24(sp)
80002254:	0785                	add	a5,a5,1
80002256:	cc3e                	sw	a5,24(sp)
80002258:	57a2                	lw	a5,40(sp)
8000225a:	0785                	add	a5,a5,1
8000225c:	d43e                	sw	a5,40(sp)
8000225e:	4485                	li	s1,1
80002260:	4796                	lw	a5,68(sp)
80002262:	4505                	li	a0,1
80002264:	cf91                	beqz	a5,80002280 <_dtoa_r+0x930>
80002266:	5792                	lw	a5,36(sp)
80002268:	4b9c                	lw	a5,16(a5)
8000226a:	078d                	add	a5,a5,3
8000226c:	5712                	lw	a4,36(sp)
8000226e:	078a                	sll	a5,a5,0x2
80002270:	97ba                	add	a5,a5,a4
80002272:	43c8                	lw	a0,4(a5)
80002274:	6d6000ef          	jal	8000294a <__hi0bits>
80002278:	02000793          	li	a5,32
8000227c:	40a78533          	sub	a0,a5,a0
80002280:	57a2                	lw	a5,40(sp)
80002282:	953e                	add	a0,a0,a5
80002284:	897d                	and	a0,a0,31
80002286:	c971                	beqz	a0,8000235a <_dtoa_r+0xa0a>
80002288:	02000793          	li	a5,32
8000228c:	8f89                	sub	a5,a5,a0
8000228e:	4711                	li	a4,4
80002290:	0cf75163          	bge	a4,a5,80002352 <_dtoa_r+0xa02>
80002294:	47f1                	li	a5,28
80002296:	8f89                	sub	a5,a5,a0
80002298:	4762                	lw	a4,24(sp)
8000229a:	973e                	add	a4,a4,a5
8000229c:	cc3a                	sw	a4,24(sp)
8000229e:	5722                	lw	a4,40(sp)
800022a0:	943e                	add	s0,s0,a5
800022a2:	97ba                	add	a5,a5,a4
800022a4:	d43e                	sw	a5,40(sp)
800022a6:	47e2                	lw	a5,24(sp)
800022a8:	00f05863          	blez	a5,800022b8 <_dtoa_r+0x968>
800022ac:	863e                	mv	a2,a5
800022ae:	45a2                	lw	a1,8(sp)
800022b0:	4502                	lw	a0,0(sp)
800022b2:	1bf000ef          	jal	80002c70 <__lshift>
800022b6:	c42a                	sw	a0,8(sp)
800022b8:	57a2                	lw	a5,40(sp)
800022ba:	00f05863          	blez	a5,800022ca <_dtoa_r+0x97a>
800022be:	863e                	mv	a2,a5
800022c0:	5592                	lw	a1,36(sp)
800022c2:	4502                	lw	a0,0(sp)
800022c4:	1ad000ef          	jal	80002c70 <__lshift>
800022c8:	d22a                	sw	a0,36(sp)
800022ca:	47b6                	lw	a5,76(sp)
800022cc:	cbc9                	beqz	a5,8000235e <_dtoa_r+0xa0e>
800022ce:	5592                	lw	a1,36(sp)
800022d0:	4522                	lw	a0,8(sp)
800022d2:	297000ef          	jal	80002d68 <__mcmp>
800022d6:	08055463          	bgez	a0,8000235e <_dtoa_r+0xa0e>
800022da:	4792                	lw	a5,4(sp)
800022dc:	17fd                	add	a5,a5,-1
800022de:	4681                	li	a3,0
800022e0:	4629                	li	a2,10
800022e2:	45a2                	lw	a1,8(sp)
800022e4:	4502                	lw	a0,0(sp)
800022e6:	d03e                	sw	a5,32(sp)
800022e8:	237d                	jal	80002896 <__multadd>
800022ea:	c42a                	sw	a0,8(sp)
800022ec:	57f2                	lw	a5,60(sp)
800022ee:	2e078563          	beqz	a5,800025d8 <_dtoa_r+0xc88>
800022f2:	4681                	li	a3,0
800022f4:	4629                	li	a2,10
800022f6:	45b2                	lw	a1,12(sp)
800022f8:	4502                	lw	a0,0(sp)
800022fa:	2b71                	jal	80002896 <__multadd>
800022fc:	c62a                	sw	a0,12(sp)
800022fe:	57c2                	lw	a5,48(sp)
80002300:	0cf04163          	bgtz	a5,800023c2 <_dtoa_r+0xa72>
80002304:	4789                	li	a5,2
80002306:	5752                	lw	a4,52(sp)
80002308:	06e7c663          	blt	a5,a4,80002374 <_dtoa_r+0xa24>
8000230c:	a85d                	j	800023c2 <_dtoa_r+0xa72>
8000230e:	47f2                	lw	a5,28(sp)
80002310:	fff78493          	add	s1,a5,-1
80002314:	5792                	lw	a5,36(sp)
80002316:	0097cd63          	blt	a5,s1,80002330 <_dtoa_r+0x9e0>
8000231a:	409784b3          	sub	s1,a5,s1
8000231e:	47f2                	lw	a5,28(sp)
80002320:	e607dce3          	bgez	a5,80002198 <_dtoa_r+0x848>
80002324:	47e2                	lw	a5,24(sp)
80002326:	4772                	lw	a4,28(sp)
80002328:	40e78433          	sub	s0,a5,a4
8000232c:	4781                	li	a5,0
8000232e:	b5b5                	j	8000219a <_dtoa_r+0x84a>
80002330:	5792                	lw	a5,36(sp)
80002332:	40f487b3          	sub	a5,s1,a5
80002336:	4716                	lw	a4,68(sp)
80002338:	97ba                	add	a5,a5,a4
8000233a:	c2be                	sw	a5,68(sp)
8000233c:	d226                	sw	s1,36(sp)
8000233e:	4462                	lw	s0,24(sp)
80002340:	47f2                	lw	a5,28(sp)
80002342:	4481                	li	s1,0
80002344:	bd99                	j	8000219a <_dtoa_r+0x84a>
80002346:	5492                	lw	s1,36(sp)
80002348:	4462                	lw	s0,24(sp)
8000234a:	c602                	sw	zero,12(sp)
8000234c:	b595                	j	800021b0 <_dtoa_r+0x860>
8000234e:	5612                	lw	a2,36(sp)
80002350:	bd6d                	j	8000220a <_dtoa_r+0x8ba>
80002352:	f4e78ae3          	beq	a5,a4,800022a6 <_dtoa_r+0x956>
80002356:	07f1                	add	a5,a5,28
80002358:	b781                	j	80002298 <_dtoa_r+0x948>
8000235a:	4781                	li	a5,0
8000235c:	bfed                	j	80002356 <_dtoa_r+0xa06>
8000235e:	47f2                	lw	a5,28(sp)
80002360:	04f04a63          	bgtz	a5,800023b4 <_dtoa_r+0xa64>
80002364:	4792                	lw	a5,4(sp)
80002366:	d03e                	sw	a5,32(sp)
80002368:	47f2                	lw	a5,28(sp)
8000236a:	d83e                	sw	a5,48(sp)
8000236c:	4789                	li	a5,2
8000236e:	5752                	lw	a4,52(sp)
80002370:	04e7d663          	bge	a5,a4,800023bc <_dtoa_r+0xa6c>
80002374:	57c2                	lw	a5,48(sp)
80002376:	b0079ee3          	bnez	a5,80001e92 <_dtoa_r+0x542>
8000237a:	5592                	lw	a1,36(sp)
8000237c:	4681                	li	a3,0
8000237e:	4615                	li	a2,5
80002380:	4502                	lw	a0,0(sp)
80002382:	2b11                	jal	80002896 <__multadd>
80002384:	d22a                	sw	a0,36(sp)
80002386:	85aa                	mv	a1,a0
80002388:	4522                	lw	a0,8(sp)
8000238a:	1df000ef          	jal	80002d68 <__mcmp>
8000238e:	b0a052e3          	blez	a0,80001e92 <_dtoa_r+0x542>
80002392:	47d2                	lw	a5,20(sp)
80002394:	00178413          	add	s0,a5,1
80002398:	4752                	lw	a4,20(sp)
8000239a:	03100793          	li	a5,49
8000239e:	00f70023          	sb	a5,0(a4)
800023a2:	5782                	lw	a5,32(sp)
800023a4:	0785                	add	a5,a5,1
800023a6:	d03e                	sw	a5,32(sp)
800023a8:	bcd5                	j	80001e9c <_dtoa_r+0x54c>
800023aa:	4792                	lw	a5,4(sp)
800023ac:	d03e                	sw	a5,32(sp)
800023ae:	d202                	sw	zero,36(sp)
800023b0:	c602                	sw	zero,12(sp)
800023b2:	b7c5                	j	80002392 <_dtoa_r+0xa42>
800023b4:	4792                	lw	a5,4(sp)
800023b6:	d03e                	sw	a5,32(sp)
800023b8:	47f2                	lw	a5,28(sp)
800023ba:	d83e                	sw	a5,48(sp)
800023bc:	57f2                	lw	a5,60(sp)
800023be:	22078063          	beqz	a5,800025de <_dtoa_r+0xc8e>
800023c2:	00805863          	blez	s0,800023d2 <_dtoa_r+0xa82>
800023c6:	8622                	mv	a2,s0
800023c8:	45b2                	lw	a1,12(sp)
800023ca:	4502                	lw	a0,0(sp)
800023cc:	0a5000ef          	jal	80002c70 <__lshift>
800023d0:	c62a                	sw	a0,12(sp)
800023d2:	4532                	lw	a0,12(sp)
800023d4:	cc8d                	beqz	s1,8000240e <_dtoa_r+0xabe>
800023d6:	414c                	lw	a1,4(a0)
800023d8:	4502                	lw	a0,0(sp)
800023da:	2e65                	jal	80002792 <_Balloc>
800023dc:	842a                	mv	s0,a0
800023de:	e911                	bnez	a0,800023f2 <_dtoa_r+0xaa2>
800023e0:	0fffe697          	auipc	a3,0xfffe
800023e4:	0d468693          	add	a3,a3,212 # 900004b4 <_impure_ptr+0x2e4>
800023e8:	4601                	li	a2,0
800023ea:	2ef00593          	li	a1,751
800023ee:	d9aff06f          	j	80001988 <_dtoa_r+0x38>
800023f2:	47b2                	lw	a5,12(sp)
800023f4:	4b90                	lw	a2,16(a5)
800023f6:	0609                	add	a2,a2,2
800023f8:	060a                	sll	a2,a2,0x2
800023fa:	00c78593          	add	a1,a5,12
800023fe:	0531                	add	a0,a0,12
80002400:	422010ef          	jal	80003822 <memcpy>
80002404:	4605                	li	a2,1
80002406:	85a2                	mv	a1,s0
80002408:	4502                	lw	a0,0(sp)
8000240a:	067000ef          	jal	80002c70 <__lshift>
8000240e:	47d2                	lw	a5,20(sp)
80002410:	0785                	add	a5,a5,1
80002412:	c23e                	sw	a5,4(sp)
80002414:	5742                	lw	a4,48(sp)
80002416:	47d2                	lw	a5,20(sp)
80002418:	97ba                	add	a5,a5,a4
8000241a:	44b2                	lw	s1,12(sp)
8000241c:	d63e                	sw	a5,44(sp)
8000241e:	c62a                	sw	a0,12(sp)
80002420:	4792                	lw	a5,4(sp)
80002422:	17fd                	add	a5,a5,-1
80002424:	5592                	lw	a1,36(sp)
80002426:	4522                	lw	a0,8(sp)
80002428:	cc3e                	sw	a5,24(sp)
8000242a:	bf0ff0ef          	jal	8000181a <quorem>
8000242e:	03050793          	add	a5,a0,48
80002432:	ce2a                	sw	a0,28(sp)
80002434:	85a6                	mv	a1,s1
80002436:	4522                	lw	a0,8(sp)
80002438:	d83e                	sw	a5,48(sp)
8000243a:	12f000ef          	jal	80002d68 <__mcmp>
8000243e:	d42a                	sw	a0,40(sp)
80002440:	5592                	lw	a1,36(sp)
80002442:	4632                	lw	a2,12(sp)
80002444:	4502                	lw	a0,0(sp)
80002446:	159000ef          	jal	80002d9e <__mdiff>
8000244a:	4558                	lw	a4,12(a0)
8000244c:	85aa                	mv	a1,a0
8000244e:	4685                	li	a3,1
80002450:	57c2                	lw	a5,48(sp)
80002452:	eb09                	bnez	a4,80002464 <_dtoa_r+0xb14>
80002454:	d82a                	sw	a0,48(sp)
80002456:	4522                	lw	a0,8(sp)
80002458:	de3e                	sw	a5,60(sp)
8000245a:	10f000ef          	jal	80002d68 <__mcmp>
8000245e:	86aa                	mv	a3,a0
80002460:	57f2                	lw	a5,60(sp)
80002462:	55c2                	lw	a1,48(sp)
80002464:	4502                	lw	a0,0(sp)
80002466:	de36                	sw	a3,60(sp)
80002468:	d83e                	sw	a5,48(sp)
8000246a:	26f9                	jal	80002838 <_Bfree>
8000246c:	57e2                	lw	a5,56(sp)
8000246e:	0017f613          	and	a2,a5,1
80002472:	56f2                	lw	a3,60(sp)
80002474:	57d2                	lw	a5,52(sp)
80002476:	00f6e733          	or	a4,a3,a5
8000247a:	8f51                	or	a4,a4,a2
8000247c:	4412                	lw	s0,4(sp)
8000247e:	57c2                	lw	a5,48(sp)
80002480:	ef19                	bnez	a4,8000249e <_dtoa_r+0xb4e>
80002482:	03900713          	li	a4,57
80002486:	04e78b63          	beq	a5,a4,800024dc <_dtoa_r+0xb8c>
8000248a:	5722                	lw	a4,40(sp)
8000248c:	00e05563          	blez	a4,80002496 <_dtoa_r+0xb46>
80002490:	47f2                	lw	a5,28(sp)
80002492:	03178793          	add	a5,a5,49
80002496:	4762                	lw	a4,24(sp)
80002498:	00f70023          	sb	a5,0(a4)
8000249c:	b409                	j	80001e9e <_dtoa_r+0x54e>
8000249e:	5722                	lw	a4,40(sp)
800024a0:	00074763          	bltz	a4,800024ae <_dtoa_r+0xb5e>
800024a4:	5752                	lw	a4,52(sp)
800024a6:	55a2                	lw	a1,40(sp)
800024a8:	8f4d                	or	a4,a4,a1
800024aa:	8f51                	or	a4,a4,a2
800024ac:	eb31                	bnez	a4,80002500 <_dtoa_r+0xbb0>
800024ae:	fed054e3          	blez	a3,80002496 <_dtoa_r+0xb46>
800024b2:	4605                	li	a2,1
800024b4:	45a2                	lw	a1,8(sp)
800024b6:	4502                	lw	a0,0(sp)
800024b8:	c23e                	sw	a5,4(sp)
800024ba:	7b6000ef          	jal	80002c70 <__lshift>
800024be:	5592                	lw	a1,36(sp)
800024c0:	c42a                	sw	a0,8(sp)
800024c2:	0a7000ef          	jal	80002d68 <__mcmp>
800024c6:	4792                	lw	a5,4(sp)
800024c8:	00a04663          	bgtz	a0,800024d4 <_dtoa_r+0xb84>
800024cc:	f569                	bnez	a0,80002496 <_dtoa_r+0xb46>
800024ce:	0017f713          	and	a4,a5,1
800024d2:	d371                	beqz	a4,80002496 <_dtoa_r+0xb46>
800024d4:	03900713          	li	a4,57
800024d8:	fae79ce3          	bne	a5,a4,80002490 <_dtoa_r+0xb40>
800024dc:	03900793          	li	a5,57
800024e0:	4762                	lw	a4,24(sp)
800024e2:	00f70023          	sb	a5,0(a4)
800024e6:	87a2                	mv	a5,s0
800024e8:	03900693          	li	a3,57
800024ec:	843e                	mv	s0,a5
800024ee:	fff44703          	lbu	a4,-1(s0)
800024f2:	17fd                	add	a5,a5,-1
800024f4:	0ad70563          	beq	a4,a3,8000259e <_dtoa_r+0xc4e>
800024f8:	0705                	add	a4,a4,1
800024fa:	00e78023          	sb	a4,0(a5)
800024fe:	b245                	j	80001e9e <_dtoa_r+0x54e>
80002500:	00d05863          	blez	a3,80002510 <_dtoa_r+0xbc0>
80002504:	03900713          	li	a4,57
80002508:	fce78ae3          	beq	a5,a4,800024dc <_dtoa_r+0xb8c>
8000250c:	0785                	add	a5,a5,1
8000250e:	b761                	j	80002496 <_dtoa_r+0xb46>
80002510:	4712                	lw	a4,4(sp)
80002512:	fef70fa3          	sb	a5,-1(a4)
80002516:	4692                	lw	a3,4(sp)
80002518:	5732                	lw	a4,44(sp)
8000251a:	04d70763          	beq	a4,a3,80002568 <_dtoa_r+0xc18>
8000251e:	4681                	li	a3,0
80002520:	4629                	li	a2,10
80002522:	45a2                	lw	a1,8(sp)
80002524:	4502                	lw	a0,0(sp)
80002526:	2e85                	jal	80002896 <__multadd>
80002528:	c42a                	sw	a0,8(sp)
8000252a:	47b2                	lw	a5,12(sp)
8000252c:	4681                	li	a3,0
8000252e:	4629                	li	a2,10
80002530:	85a6                	mv	a1,s1
80002532:	4502                	lw	a0,0(sp)
80002534:	00f49963          	bne	s1,a5,80002546 <_dtoa_r+0xbf6>
80002538:	2eb9                	jal	80002896 <__multadd>
8000253a:	84aa                	mv	s1,a0
8000253c:	c62a                	sw	a0,12(sp)
8000253e:	4792                	lw	a5,4(sp)
80002540:	0785                	add	a5,a5,1
80002542:	c23e                	sw	a5,4(sp)
80002544:	bdf1                	j	80002420 <_dtoa_r+0xad0>
80002546:	2e81                	jal	80002896 <__multadd>
80002548:	84aa                	mv	s1,a0
8000254a:	4681                	li	a3,0
8000254c:	4629                	li	a2,10
8000254e:	45b2                	lw	a1,12(sp)
80002550:	4502                	lw	a0,0(sp)
80002552:	2691                	jal	80002896 <__multadd>
80002554:	c62a                	sw	a0,12(sp)
80002556:	b7e5                	j	8000253e <_dtoa_r+0xbee>
80002558:	5742                	lw	a4,48(sp)
8000255a:	4405                	li	s0,1
8000255c:	00e05363          	blez	a4,80002562 <_dtoa_r+0xc12>
80002560:	843a                	mv	s0,a4
80002562:	4752                	lw	a4,20(sp)
80002564:	943a                	add	s0,s0,a4
80002566:	4481                	li	s1,0
80002568:	45a2                	lw	a1,8(sp)
8000256a:	4605                	li	a2,1
8000256c:	4502                	lw	a0,0(sp)
8000256e:	c23e                	sw	a5,4(sp)
80002570:	700000ef          	jal	80002c70 <__lshift>
80002574:	5592                	lw	a1,36(sp)
80002576:	c42a                	sw	a0,8(sp)
80002578:	7f0000ef          	jal	80002d68 <__mcmp>
8000257c:	f6a045e3          	bgtz	a0,800024e6 <_dtoa_r+0xb96>
80002580:	e501                	bnez	a0,80002588 <_dtoa_r+0xc38>
80002582:	4792                	lw	a5,4(sp)
80002584:	8b85                	and	a5,a5,1
80002586:	f3a5                	bnez	a5,800024e6 <_dtoa_r+0xb96>
80002588:	87a2                	mv	a5,s0
8000258a:	03000713          	li	a4,48
8000258e:	843e                	mv	s0,a5
80002590:	fff7c683          	lbu	a3,-1(a5)
80002594:	17fd                	add	a5,a5,-1
80002596:	fee68ce3          	beq	a3,a4,8000258e <_dtoa_r+0xc3e>
8000259a:	905ff06f          	j	80001e9e <_dtoa_r+0x54e>
8000259e:	4752                	lw	a4,20(sp)
800025a0:	f4f716e3          	bne	a4,a5,800024ec <_dtoa_r+0xb9c>
800025a4:	5782                	lw	a5,32(sp)
800025a6:	0785                	add	a5,a5,1
800025a8:	d03e                	sw	a5,32(sp)
800025aa:	03100793          	li	a5,49
800025ae:	b5ed                	j	80002498 <_dtoa_r+0xb48>
800025b0:	0fffe797          	auipc	a5,0xfffe
800025b4:	e8c78793          	add	a5,a5,-372 # 9000043c <_impure_ptr+0x26c>
800025b8:	ca3e                	sw	a5,20(sp)
800025ba:	470a                	lw	a4,128(sp)
800025bc:	0fffe797          	auipc	a5,0xfffe
800025c0:	e8878793          	add	a5,a5,-376 # 90000444 <_impure_ptr+0x274>
800025c4:	c6071063          	bnez	a4,80001a24 <_dtoa_r+0xd4>
800025c8:	c60ff06f          	j	80001a28 <_dtoa_r+0xd8>
800025cc:	4505                	li	a0,1
800025ce:	57d2                	lw	a5,52(sp)
800025d0:	4481                	li	s1,0
800025d2:	caf547e3          	blt	a0,a5,80002280 <_dtoa_r+0x930>
800025d6:	b195                	j	8000223a <_dtoa_r+0x8ea>
800025d8:	57c2                	lw	a5,48(sp)
800025da:	d8f059e3          	blez	a5,8000236c <_dtoa_r+0xa1c>
800025de:	4401                	li	s0,0
800025e0:	5592                	lw	a1,36(sp)
800025e2:	4522                	lw	a0,8(sp)
800025e4:	a36ff0ef          	jal	8000181a <quorem>
800025e8:	4752                	lw	a4,20(sp)
800025ea:	9722                	add	a4,a4,s0
800025ec:	03050793          	add	a5,a0,48
800025f0:	00f70023          	sb	a5,0(a4)
800025f4:	0405                	add	s0,s0,1
800025f6:	5742                	lw	a4,48(sp)
800025f8:	f6e450e3          	bge	s0,a4,80002558 <_dtoa_r+0xc08>
800025fc:	4681                	li	a3,0
800025fe:	4629                	li	a2,10
80002600:	45a2                	lw	a1,8(sp)
80002602:	4502                	lw	a0,0(sp)
80002604:	2c49                	jal	80002896 <__multadd>
80002606:	c42a                	sw	a0,8(sp)
80002608:	bfe1                	j	800025e0 <_dtoa_r+0xc90>

8000260a <malloc>:
malloc():
8000260a:	85aa                	mv	a1,a0
8000260c:	0fffe517          	auipc	a0,0xfffe
80002610:	bc452503          	lw	a0,-1084(a0) # 900001d0 <_impure_ptr>
80002614:	a891                	j	80002668 <_malloc_r>

80002616 <sbrk_aligned>:
sbrk_aligned():
80002616:	1141                	add	sp,sp,-16
80002618:	c226                	sw	s1,4(sp)
8000261a:	efc18493          	add	s1,gp,-260 # 900008c4 <__malloc_sbrk_start>
8000261e:	c422                	sw	s0,8(sp)
80002620:	c606                	sw	ra,12(sp)
80002622:	c02a                	sw	a0,0(sp)
80002624:	4098                	lw	a4,0(s1)
80002626:	842e                	mv	s0,a1
80002628:	e709                	bnez	a4,80002632 <sbrk_aligned+0x1c>
8000262a:	4581                	li	a1,0
8000262c:	0f4010ef          	jal	80003720 <_sbrk_r>
80002630:	c088                	sw	a0,0(s1)
80002632:	85a2                	mv	a1,s0
80002634:	4502                	lw	a0,0(sp)
80002636:	0ea010ef          	jal	80003720 <_sbrk_r>
8000263a:	54fd                	li	s1,-1
8000263c:	00951963          	bne	a0,s1,8000264e <sbrk_aligned+0x38>
80002640:	547d                	li	s0,-1
80002642:	8522                	mv	a0,s0
80002644:	40b2                	lw	ra,12(sp)
80002646:	4422                	lw	s0,8(sp)
80002648:	4492                	lw	s1,4(sp)
8000264a:	0141                	add	sp,sp,16
8000264c:	8082                	ret
8000264e:	00350413          	add	s0,a0,3
80002652:	9871                	and	s0,s0,-4
80002654:	fe8507e3          	beq	a0,s0,80002642 <sbrk_aligned+0x2c>
80002658:	40a405b3          	sub	a1,s0,a0
8000265c:	4502                	lw	a0,0(sp)
8000265e:	0c2010ef          	jal	80003720 <_sbrk_r>
80002662:	fe9510e3          	bne	a0,s1,80002642 <sbrk_aligned+0x2c>
80002666:	bfe9                	j	80002640 <sbrk_aligned+0x2a>

80002668 <_malloc_r>:
_malloc_r():
80002668:	00358793          	add	a5,a1,3
8000266c:	1131                	add	sp,sp,-20
8000266e:	9bf1                	and	a5,a5,-4
80002670:	c426                	sw	s1,8(sp)
80002672:	c806                	sw	ra,16(sp)
80002674:	c622                	sw	s0,12(sp)
80002676:	c02a                	sw	a0,0(sp)
80002678:	00878493          	add	s1,a5,8
8000267c:	4731                	li	a4,12
8000267e:	06e4fb63          	bgeu	s1,a4,800026f4 <_malloc_r+0x8c>
80002682:	84ba                	mv	s1,a4
80002684:	06b4ea63          	bltu	s1,a1,800026f8 <_malloc_r+0x90>
80002688:	4502                	lw	a0,0(sp)
8000268a:	28e5                	jal	80002782 <__malloc_lock>
8000268c:	f0018313          	add	t1,gp,-256 # 900008c8 <__malloc_free_list>
80002690:	00032703          	lw	a4,0(t1)
80002694:	843a                	mv	s0,a4
80002696:	e82d                	bnez	s0,80002708 <_malloc_r+0xa0>
80002698:	85a6                	mv	a1,s1
8000269a:	4502                	lw	a0,0(sp)
8000269c:	3fad                	jal	80002616 <sbrk_aligned>
8000269e:	577d                	li	a4,-1
800026a0:	842a                	mv	s0,a0
800026a2:	f0018313          	add	t1,gp,-256 # 900008c8 <__malloc_free_list>
800026a6:	0ce51963          	bne	a0,a4,80002778 <_malloc_r+0x110>
800026aa:	00032403          	lw	s0,0(t1)
800026ae:	8722                	mv	a4,s0
800026b0:	eb4d                	bnez	a4,80002762 <_malloc_r+0xfa>
800026b2:	cc4d                	beqz	s0,8000276c <_malloc_r+0x104>
800026b4:	4018                	lw	a4,0(s0)
800026b6:	9722                	add	a4,a4,s0
800026b8:	4581                	li	a1,0
800026ba:	4502                	lw	a0,0(sp)
800026bc:	c23a                	sw	a4,4(sp)
800026be:	062010ef          	jal	80003720 <_sbrk_r>
800026c2:	4712                	lw	a4,4(sp)
800026c4:	0aa71463          	bne	a4,a0,8000276c <_malloc_r+0x104>
800026c8:	400c                	lw	a1,0(s0)
800026ca:	8c8d                	sub	s1,s1,a1
800026cc:	85a6                	mv	a1,s1
800026ce:	4502                	lw	a0,0(sp)
800026d0:	3799                	jal	80002616 <sbrk_aligned>
800026d2:	57fd                	li	a5,-1
800026d4:	08f50c63          	beq	a0,a5,8000276c <_malloc_r+0x104>
800026d8:	401c                	lw	a5,0(s0)
800026da:	97a6                	add	a5,a5,s1
800026dc:	f0018313          	add	t1,gp,-256 # 900008c8 <__malloc_free_list>
800026e0:	c01c                	sw	a5,0(s0)
800026e2:	00032783          	lw	a5,0(t1)
800026e6:	cbd9                	beqz	a5,8000277c <_malloc_r+0x114>
800026e8:	43d8                	lw	a4,4(a5)
800026ea:	06871f63          	bne	a4,s0,80002768 <_malloc_r+0x100>
800026ee:	0007a223          	sw	zero,4(a5)
800026f2:	a825                	j	8000272a <_malloc_r+0xc2>
800026f4:	f804d8e3          	bgez	s1,80002684 <_malloc_r+0x1c>
800026f8:	4782                	lw	a5,0(sp)
800026fa:	c398                	sw	a4,0(a5)
800026fc:	4501                	li	a0,0
800026fe:	40c2                	lw	ra,16(sp)
80002700:	4432                	lw	s0,12(sp)
80002702:	44a2                	lw	s1,8(sp)
80002704:	0151                	add	sp,sp,20
80002706:	8082                	ret
80002708:	4010                	lw	a2,0(s0)
8000270a:	8e05                	sub	a2,a2,s1
8000270c:	04064863          	bltz	a2,8000275c <_malloc_r+0xf4>
80002710:	46ad                	li	a3,11
80002712:	02c6fd63          	bgeu	a3,a2,8000274c <_malloc_r+0xe4>
80002716:	c004                	sw	s1,0(s0)
80002718:	009406b3          	add	a3,s0,s1
8000271c:	02871663          	bne	a4,s0,80002748 <_malloc_r+0xe0>
80002720:	00d32023          	sw	a3,0(t1)
80002724:	405c                	lw	a5,4(s0)
80002726:	c290                	sw	a2,0(a3)
80002728:	c2dc                	sw	a5,4(a3)
8000272a:	4502                	lw	a0,0(sp)
8000272c:	28b9                	jal	8000278a <__malloc_unlock>
8000272e:	00b40513          	add	a0,s0,11
80002732:	00440793          	add	a5,s0,4
80002736:	9961                	and	a0,a0,-8
80002738:	40f50733          	sub	a4,a0,a5
8000273c:	fcf501e3          	beq	a0,a5,800026fe <_malloc_r+0x96>
80002740:	943a                	add	s0,s0,a4
80002742:	8f89                	sub	a5,a5,a0
80002744:	c01c                	sw	a5,0(s0)
80002746:	bf65                	j	800026fe <_malloc_r+0x96>
80002748:	c354                	sw	a3,4(a4)
8000274a:	bfe9                	j	80002724 <_malloc_r+0xbc>
8000274c:	405c                	lw	a5,4(s0)
8000274e:	00871563          	bne	a4,s0,80002758 <_malloc_r+0xf0>
80002752:	00f32023          	sw	a5,0(t1)
80002756:	bfd1                	j	8000272a <_malloc_r+0xc2>
80002758:	c35c                	sw	a5,4(a4)
8000275a:	bfc1                	j	8000272a <_malloc_r+0xc2>
8000275c:	8722                	mv	a4,s0
8000275e:	4040                	lw	s0,4(s0)
80002760:	bf1d                	j	80002696 <_malloc_r+0x2e>
80002762:	843a                	mv	s0,a4
80002764:	4358                	lw	a4,4(a4)
80002766:	b7a9                	j	800026b0 <_malloc_r+0x48>
80002768:	87ba                	mv	a5,a4
8000276a:	bfb5                	j	800026e6 <_malloc_r+0x7e>
8000276c:	4702                	lw	a4,0(sp)
8000276e:	47b1                	li	a5,12
80002770:	c31c                	sw	a5,0(a4)
80002772:	853a                	mv	a0,a4
80002774:	2819                	jal	8000278a <__malloc_unlock>
80002776:	b759                	j	800026fc <_malloc_r+0x94>
80002778:	c104                	sw	s1,0(a0)
8000277a:	bf45                	j	8000272a <_malloc_r+0xc2>
8000277c:	00002223          	sw	zero,4(zero) # 4 <__SMP_CPU_CNT+0x3>
80002780:	9002                	ebreak

80002782 <__malloc_lock>:
__malloc_lock():
80002782:	f0818513          	add	a0,gp,-248 # 900008d0 <__lock___malloc_recursive_mutex>
80002786:	7f10006f          	j	80003776 <__retarget_lock_acquire_recursive>

8000278a <__malloc_unlock>:
__malloc_unlock():
8000278a:	f0818513          	add	a0,gp,-248 # 900008d0 <__lock___malloc_recursive_mutex>
8000278e:	7eb0006f          	j	80003778 <__retarget_lock_release_recursive>

80002792 <_Balloc>:
_Balloc():
80002792:	1141                	add	sp,sp,-16
80002794:	c422                	sw	s0,8(sp)
80002796:	c226                	sw	s1,4(sp)
80002798:	c606                	sw	ra,12(sp)
8000279a:	4d5c                	lw	a5,28(a0)
8000279c:	84aa                	mv	s1,a0
8000279e:	842e                	mv	s0,a1
800027a0:	eb95                	bnez	a5,800027d4 <_Balloc+0x42>
800027a2:	4541                	li	a0,16
800027a4:	359d                	jal	8000260a <malloc>
800027a6:	ccc8                	sw	a0,28(s1)
800027a8:	ed11                	bnez	a0,800027c4 <_Balloc+0x32>
800027aa:	0fffe697          	auipc	a3,0xfffe
800027ae:	ca268693          	add	a3,a3,-862 # 9000044c <_impure_ptr+0x27c>
800027b2:	4601                	li	a2,0
800027b4:	06b00593          	li	a1,107
800027b8:	0fffe517          	auipc	a0,0xfffe
800027bc:	d1050513          	add	a0,a0,-752 # 900004c8 <_impure_ptr+0x2f8>
800027c0:	192010ef          	jal	80003952 <__assert_func>
800027c4:	00052223          	sw	zero,4(a0)
800027c8:	00052423          	sw	zero,8(a0)
800027cc:	00052023          	sw	zero,0(a0)
800027d0:	00052623          	sw	zero,12(a0)
800027d4:	4cdc                	lw	a5,28(s1)
800027d6:	47d8                	lw	a4,12(a5)
800027d8:	c71d                	beqz	a4,80002806 <_Balloc+0x74>
800027da:	4cdc                	lw	a5,28(s1)
800027dc:	00241713          	sll	a4,s0,0x2
800027e0:	47dc                	lw	a5,12(a5)
800027e2:	97ba                	add	a5,a5,a4
800027e4:	4388                	lw	a0,0(a5)
800027e6:	e131                	bnez	a0,8000282a <_Balloc+0x98>
800027e8:	4585                	li	a1,1
800027ea:	008597b3          	sll	a5,a1,s0
800027ee:	00578613          	add	a2,a5,5
800027f2:	060a                	sll	a2,a2,0x2
800027f4:	8526                	mv	a0,s1
800027f6:	c03e                	sw	a5,0(sp)
800027f8:	196010ef          	jal	8000398e <_calloc_r>
800027fc:	c10d                	beqz	a0,8000281e <_Balloc+0x8c>
800027fe:	4782                	lw	a5,0(sp)
80002800:	c140                	sw	s0,4(a0)
80002802:	c51c                	sw	a5,8(a0)
80002804:	a02d                	j	8000282e <_Balloc+0x9c>
80002806:	02100613          	li	a2,33
8000280a:	4591                	li	a1,4
8000280c:	8526                	mv	a0,s1
8000280e:	c03e                	sw	a5,0(sp)
80002810:	17e010ef          	jal	8000398e <_calloc_r>
80002814:	4782                	lw	a5,0(sp)
80002816:	c7c8                	sw	a0,12(a5)
80002818:	4cdc                	lw	a5,28(s1)
8000281a:	47dc                	lw	a5,12(a5)
8000281c:	ffdd                	bnez	a5,800027da <_Balloc+0x48>
8000281e:	4501                	li	a0,0
80002820:	40b2                	lw	ra,12(sp)
80002822:	4422                	lw	s0,8(sp)
80002824:	4492                	lw	s1,4(sp)
80002826:	0141                	add	sp,sp,16
80002828:	8082                	ret
8000282a:	4118                	lw	a4,0(a0)
8000282c:	c398                	sw	a4,0(a5)
8000282e:	00052823          	sw	zero,16(a0)
80002832:	00052623          	sw	zero,12(a0)
80002836:	b7ed                	j	80002820 <_Balloc+0x8e>

80002838 <_Bfree>:
_Bfree():
80002838:	1151                	add	sp,sp,-12
8000283a:	c222                	sw	s0,4(sp)
8000283c:	c026                	sw	s1,0(sp)
8000283e:	c406                	sw	ra,8(sp)
80002840:	4d5c                	lw	a5,28(a0)
80002842:	84aa                	mv	s1,a0
80002844:	842e                	mv	s0,a1
80002846:	eb95                	bnez	a5,8000287a <_Bfree+0x42>
80002848:	4541                	li	a0,16
8000284a:	33c1                	jal	8000260a <malloc>
8000284c:	ccc8                	sw	a0,28(s1)
8000284e:	ed11                	bnez	a0,8000286a <_Bfree+0x32>
80002850:	0fffe697          	auipc	a3,0xfffe
80002854:	bfc68693          	add	a3,a3,-1028 # 9000044c <_impure_ptr+0x27c>
80002858:	4601                	li	a2,0
8000285a:	08f00593          	li	a1,143
8000285e:	0fffe517          	auipc	a0,0xfffe
80002862:	c6a50513          	add	a0,a0,-918 # 900004c8 <_impure_ptr+0x2f8>
80002866:	0ec010ef          	jal	80003952 <__assert_func>
8000286a:	00052223          	sw	zero,4(a0)
8000286e:	00052423          	sw	zero,8(a0)
80002872:	00052023          	sw	zero,0(a0)
80002876:	00052623          	sw	zero,12(a0)
8000287a:	c809                	beqz	s0,8000288c <_Bfree+0x54>
8000287c:	4cdc                	lw	a5,28(s1)
8000287e:	4058                	lw	a4,4(s0)
80002880:	070a                	sll	a4,a4,0x2
80002882:	47dc                	lw	a5,12(a5)
80002884:	97ba                	add	a5,a5,a4
80002886:	4398                	lw	a4,0(a5)
80002888:	c018                	sw	a4,0(s0)
8000288a:	c380                	sw	s0,0(a5)
8000288c:	40a2                	lw	ra,8(sp)
8000288e:	4412                	lw	s0,4(sp)
80002890:	4482                	lw	s1,0(sp)
80002892:	0131                	add	sp,sp,12
80002894:	8082                	ret

80002896 <__multadd>:
__multadd():
80002896:	1121                	add	sp,sp,-24
80002898:	c822                	sw	s0,16(sp)
8000289a:	c626                	sw	s1,12(sp)
8000289c:	c02a                	sw	a0,0(sp)
8000289e:	842e                	mv	s0,a1
800028a0:	4984                	lw	s1,16(a1)
800028a2:	ca06                	sw	ra,20(sp)
800028a4:	05d1                	add	a1,a1,20
800028a6:	4501                	li	a0,0
800028a8:	419c                	lw	a5,0(a1)
800028aa:	01079313          	sll	t1,a5,0x10
800028ae:	01035313          	srl	t1,t1,0x10
800028b2:	02c30333          	mul	t1,t1,a2
800028b6:	83c1                	srl	a5,a5,0x10
800028b8:	0505                	add	a0,a0,1
800028ba:	02c787b3          	mul	a5,a5,a2
800028be:	9336                	add	t1,t1,a3
800028c0:	01035693          	srl	a3,t1,0x10
800028c4:	0342                	sll	t1,t1,0x10
800028c6:	01035313          	srl	t1,t1,0x10
800028ca:	97b6                	add	a5,a5,a3
800028cc:	0107d693          	srl	a3,a5,0x10
800028d0:	07c2                	sll	a5,a5,0x10
800028d2:	979a                	add	a5,a5,t1
800028d4:	c19c                	sw	a5,0(a1)
800028d6:	0591                	add	a1,a1,4
800028d8:	fc9548e3          	blt	a0,s1,800028a8 <__multadd+0x12>
800028dc:	c2ad                	beqz	a3,8000293e <__multadd+0xa8>
800028de:	441c                	lw	a5,8(s0)
800028e0:	04f4c763          	blt	s1,a5,8000292e <__multadd+0x98>
800028e4:	404c                	lw	a1,4(s0)
800028e6:	0585                	add	a1,a1,1
800028e8:	4502                	lw	a0,0(sp)
800028ea:	c236                	sw	a3,4(sp)
800028ec:	355d                	jal	80002792 <_Balloc>
800028ee:	87aa                	mv	a5,a0
800028f0:	4692                	lw	a3,4(sp)
800028f2:	ed11                	bnez	a0,8000290e <__multadd+0x78>
800028f4:	0fffe697          	auipc	a3,0xfffe
800028f8:	bc068693          	add	a3,a3,-1088 # 900004b4 <_impure_ptr+0x2e4>
800028fc:	4601                	li	a2,0
800028fe:	0ba00593          	li	a1,186
80002902:	0fffe517          	auipc	a0,0xfffe
80002906:	bc650513          	add	a0,a0,-1082 # 900004c8 <_impure_ptr+0x2f8>
8000290a:	048010ef          	jal	80003952 <__assert_func>
8000290e:	4810                	lw	a2,16(s0)
80002910:	0609                	add	a2,a2,2
80002912:	00c40593          	add	a1,s0,12
80002916:	060a                	sll	a2,a2,0x2
80002918:	0531                	add	a0,a0,12
8000291a:	c436                	sw	a3,8(sp)
8000291c:	c23e                	sw	a5,4(sp)
8000291e:	705000ef          	jal	80003822 <memcpy>
80002922:	85a2                	mv	a1,s0
80002924:	4502                	lw	a0,0(sp)
80002926:	3f09                	jal	80002838 <_Bfree>
80002928:	4792                	lw	a5,4(sp)
8000292a:	843e                	mv	s0,a5
8000292c:	46a2                	lw	a3,8(sp)
8000292e:	00448793          	add	a5,s1,4
80002932:	078a                	sll	a5,a5,0x2
80002934:	97a2                	add	a5,a5,s0
80002936:	c3d4                	sw	a3,4(a5)
80002938:	00148713          	add	a4,s1,1
8000293c:	c818                	sw	a4,16(s0)
8000293e:	8522                	mv	a0,s0
80002940:	40d2                	lw	ra,20(sp)
80002942:	4442                	lw	s0,16(sp)
80002944:	44b2                	lw	s1,12(sp)
80002946:	0161                	add	sp,sp,24
80002948:	8082                	ret

8000294a <__hi0bits>:
__hi0bits():
8000294a:	87aa                	mv	a5,a0
8000294c:	6741                	lui	a4,0x10
8000294e:	4501                	li	a0,0
80002950:	00e7f463          	bgeu	a5,a4,80002958 <__hi0bits+0xe>
80002954:	07c2                	sll	a5,a5,0x10
80002956:	4541                	li	a0,16
80002958:	01000737          	lui	a4,0x1000
8000295c:	00e7f463          	bgeu	a5,a4,80002964 <__hi0bits+0x1a>
80002960:	0521                	add	a0,a0,8
80002962:	07a2                	sll	a5,a5,0x8
80002964:	10000737          	lui	a4,0x10000
80002968:	00e7f463          	bgeu	a5,a4,80002970 <__hi0bits+0x26>
8000296c:	0511                	add	a0,a0,4
8000296e:	0792                	sll	a5,a5,0x4
80002970:	40000737          	lui	a4,0x40000
80002974:	00e7f463          	bgeu	a5,a4,8000297c <__hi0bits+0x32>
80002978:	0509                	add	a0,a0,2
8000297a:	078a                	sll	a5,a5,0x2
8000297c:	0007c963          	bltz	a5,8000298e <__hi0bits+0x44>
80002980:	00179713          	sll	a4,a5,0x1
80002984:	0505                	add	a0,a0,1
80002986:	00074463          	bltz	a4,8000298e <__hi0bits+0x44>
8000298a:	02000513          	li	a0,32
8000298e:	8082                	ret

80002990 <__lo0bits>:
__lo0bits():
80002990:	411c                	lw	a5,0(a0)
80002992:	0077f693          	and	a3,a5,7
80002996:	872a                	mv	a4,a0
80002998:	c285                	beqz	a3,800029b8 <__lo0bits+0x28>
8000299a:	0017f693          	and	a3,a5,1
8000299e:	4501                	li	a0,0
800029a0:	eea1                	bnez	a3,800029f8 <__lo0bits+0x68>
800029a2:	0027f693          	and	a3,a5,2
800029a6:	c689                	beqz	a3,800029b0 <__lo0bits+0x20>
800029a8:	8385                	srl	a5,a5,0x1
800029aa:	c31c                	sw	a5,0(a4)
800029ac:	4505                	li	a0,1
800029ae:	8082                	ret
800029b0:	8389                	srl	a5,a5,0x2
800029b2:	c31c                	sw	a5,0(a4)
800029b4:	4509                	li	a0,2
800029b6:	8082                	ret
800029b8:	01079693          	sll	a3,a5,0x10
800029bc:	82c1                	srl	a3,a3,0x10
800029be:	4501                	li	a0,0
800029c0:	e299                	bnez	a3,800029c6 <__lo0bits+0x36>
800029c2:	83c1                	srl	a5,a5,0x10
800029c4:	4541                	li	a0,16
800029c6:	0ff7f693          	zext.b	a3,a5
800029ca:	e299                	bnez	a3,800029d0 <__lo0bits+0x40>
800029cc:	0521                	add	a0,a0,8
800029ce:	83a1                	srl	a5,a5,0x8
800029d0:	00f7f693          	and	a3,a5,15
800029d4:	e299                	bnez	a3,800029da <__lo0bits+0x4a>
800029d6:	0511                	add	a0,a0,4
800029d8:	8391                	srl	a5,a5,0x4
800029da:	0037f693          	and	a3,a5,3
800029de:	e299                	bnez	a3,800029e4 <__lo0bits+0x54>
800029e0:	0509                	add	a0,a0,2
800029e2:	8389                	srl	a5,a5,0x2
800029e4:	0017f693          	and	a3,a5,1
800029e8:	e681                	bnez	a3,800029f0 <__lo0bits+0x60>
800029ea:	8385                	srl	a5,a5,0x1
800029ec:	0505                	add	a0,a0,1
800029ee:	c399                	beqz	a5,800029f4 <__lo0bits+0x64>
800029f0:	c31c                	sw	a5,0(a4)
800029f2:	8082                	ret
800029f4:	02000513          	li	a0,32
800029f8:	8082                	ret

800029fa <__i2b>:
__i2b():
800029fa:	1161                	add	sp,sp,-8
800029fc:	c022                	sw	s0,0(sp)
800029fe:	842e                	mv	s0,a1
80002a00:	4585                	li	a1,1
80002a02:	c206                	sw	ra,4(sp)
80002a04:	3379                	jal	80002792 <_Balloc>
80002a06:	ed11                	bnez	a0,80002a22 <__i2b+0x28>
80002a08:	0fffe697          	auipc	a3,0xfffe
80002a0c:	aac68693          	add	a3,a3,-1364 # 900004b4 <_impure_ptr+0x2e4>
80002a10:	4601                	li	a2,0
80002a12:	14500593          	li	a1,325
80002a16:	0fffe517          	auipc	a0,0xfffe
80002a1a:	ab250513          	add	a0,a0,-1358 # 900004c8 <_impure_ptr+0x2f8>
80002a1e:	735000ef          	jal	80003952 <__assert_func>
80002a22:	4705                	li	a4,1
80002a24:	c940                	sw	s0,20(a0)
80002a26:	4092                	lw	ra,4(sp)
80002a28:	4402                	lw	s0,0(sp)
80002a2a:	c918                	sw	a4,16(a0)
80002a2c:	0121                	add	sp,sp,8
80002a2e:	8082                	ret

80002a30 <__multiply>:
__multiply():
80002a30:	1101                	add	sp,sp,-32
80002a32:	ca26                	sw	s1,20(sp)
80002a34:	ce06                	sw	ra,28(sp)
80002a36:	cc22                	sw	s0,24(sp)
80002a38:	4994                	lw	a3,16(a1)
80002a3a:	4a18                	lw	a4,16(a2)
80002a3c:	87ae                	mv	a5,a1
80002a3e:	84b2                	mv	s1,a2
80002a40:	00e6c463          	blt	a3,a4,80002a48 <__multiply+0x18>
80002a44:	84ae                	mv	s1,a1
80002a46:	87b2                	mv	a5,a2
80002a48:	4b98                	lw	a4,16(a5)
80002a4a:	4890                	lw	a2,16(s1)
80002a4c:	00e60433          	add	s0,a2,a4
80002a50:	4494                	lw	a3,8(s1)
80002a52:	40cc                	lw	a1,4(s1)
80002a54:	0086a6b3          	slt	a3,a3,s0
80002a58:	95b6                	add	a1,a1,a3
80002a5a:	c63e                	sw	a5,12(sp)
80002a5c:	c43a                	sw	a4,8(sp)
80002a5e:	c032                	sw	a2,0(sp)
80002a60:	3b0d                	jal	80002792 <_Balloc>
80002a62:	c22a                	sw	a0,4(sp)
80002a64:	4602                	lw	a2,0(sp)
80002a66:	4722                	lw	a4,8(sp)
80002a68:	47b2                	lw	a5,12(sp)
80002a6a:	ed11                	bnez	a0,80002a86 <__multiply+0x56>
80002a6c:	0fffe697          	auipc	a3,0xfffe
80002a70:	a4868693          	add	a3,a3,-1464 # 900004b4 <_impure_ptr+0x2e4>
80002a74:	4601                	li	a2,0
80002a76:	16200593          	li	a1,354
80002a7a:	0fffe517          	auipc	a0,0xfffe
80002a7e:	a4e50513          	add	a0,a0,-1458 # 900004c8 <_impure_ptr+0x2f8>
80002a82:	6d1000ef          	jal	80003952 <__assert_func>
80002a86:	4692                	lw	a3,4(sp)
80002a88:	06d1                	add	a3,a3,20
80002a8a:	00241513          	sll	a0,s0,0x2
80002a8e:	9536                	add	a0,a0,a3
80002a90:	85b6                	mv	a1,a3
80002a92:	04a5eb63          	bltu	a1,a0,80002ae8 <__multiply+0xb8>
80002a96:	01448593          	add	a1,s1,20
80002a9a:	060a                	sll	a2,a2,0x2
80002a9c:	962e                	add	a2,a2,a1
80002a9e:	070a                	sll	a4,a4,0x2
80002aa0:	c62e                	sw	a1,12(sp)
80002aa2:	01478593          	add	a1,a5,20
80002aa6:	00e587b3          	add	a5,a1,a4
80002aaa:	4711                	li	a4,4
80002aac:	c83e                	sw	a5,16(sp)
80002aae:	c032                	sw	a2,0(sp)
80002ab0:	01548793          	add	a5,s1,21
80002ab4:	c43a                	sw	a4,8(sp)
80002ab6:	00f66963          	bltu	a2,a5,80002ac8 <__multiply+0x98>
80002aba:	409604b3          	sub	s1,a2,s1
80002abe:	14ad                	add	s1,s1,-21
80002ac0:	98f1                	and	s1,s1,-4
80002ac2:	00448793          	add	a5,s1,4
80002ac6:	c43e                	sw	a5,8(sp)
80002ac8:	47c2                	lw	a5,16(sp)
80002aca:	02f5e363          	bltu	a1,a5,80002af0 <__multiply+0xc0>
80002ace:	00805563          	blez	s0,80002ad8 <__multiply+0xa8>
80002ad2:	1571                	add	a0,a0,-4
80002ad4:	411c                	lw	a5,0(a0)
80002ad6:	cbf1                	beqz	a5,80002baa <__multiply+0x17a>
80002ad8:	4792                	lw	a5,4(sp)
80002ada:	cb80                	sw	s0,16(a5)
80002adc:	40f2                	lw	ra,28(sp)
80002ade:	4462                	lw	s0,24(sp)
80002ae0:	44d2                	lw	s1,20(sp)
80002ae2:	853e                	mv	a0,a5
80002ae4:	6105                	add	sp,sp,32
80002ae6:	8082                	ret
80002ae8:	0005a023          	sw	zero,0(a1)
80002aec:	0591                	add	a1,a1,4
80002aee:	b755                	j	80002a92 <__multiply+0x62>
80002af0:	0005d383          	lhu	t2,0(a1)
80002af4:	04038d63          	beqz	t2,80002b4e <__multiply+0x11e>
80002af8:	8336                	mv	t1,a3
80002afa:	4632                	lw	a2,12(sp)
80002afc:	4281                	li	t0,0
80002afe:	4218                	lw	a4,0(a2)
80002b00:	01071793          	sll	a5,a4,0x10
80002b04:	83c1                	srl	a5,a5,0x10
80002b06:	027787b3          	mul	a5,a5,t2
80002b0a:	8341                	srl	a4,a4,0x10
80002b0c:	00032483          	lw	s1,0(t1)
80002b10:	04c2                	sll	s1,s1,0x10
80002b12:	80c1                	srl	s1,s1,0x10
80002b14:	0611                	add	a2,a2,4
80002b16:	0311                	add	t1,t1,4
80002b18:	02770733          	mul	a4,a4,t2
80002b1c:	97a6                	add	a5,a5,s1
80002b1e:	ffc32483          	lw	s1,-4(t1)
80002b22:	9796                	add	a5,a5,t0
80002b24:	0104d293          	srl	t0,s1,0x10
80002b28:	92ba                	add	t0,t0,a4
80002b2a:	0107d713          	srl	a4,a5,0x10
80002b2e:	9716                	add	a4,a4,t0
80002b30:	07c2                	sll	a5,a5,0x10
80002b32:	83c1                	srl	a5,a5,0x10
80002b34:	01075293          	srl	t0,a4,0x10
80002b38:	0742                	sll	a4,a4,0x10
80002b3a:	8f5d                	or	a4,a4,a5
80002b3c:	fee32e23          	sw	a4,-4(t1)
80002b40:	4782                	lw	a5,0(sp)
80002b42:	faf66ee3          	bltu	a2,a5,80002afe <__multiply+0xce>
80002b46:	47a2                	lw	a5,8(sp)
80002b48:	97b6                	add	a5,a5,a3
80002b4a:	0057a023          	sw	t0,0(a5)
80002b4e:	0025d283          	lhu	t0,2(a1)
80002b52:	04028963          	beqz	t0,80002ba4 <__multiply+0x174>
80002b56:	429c                	lw	a5,0(a3)
80002b58:	4632                	lw	a2,12(sp)
80002b5a:	8336                	mv	t1,a3
80002b5c:	4381                	li	t2,0
80002b5e:	00065703          	lhu	a4,0(a2)
80002b62:	00235483          	lhu	s1,2(t1)
80002b66:	07c2                	sll	a5,a5,0x10
80002b68:	02570733          	mul	a4,a4,t0
80002b6c:	83c1                	srl	a5,a5,0x10
80002b6e:	0611                	add	a2,a2,4
80002b70:	0311                	add	t1,t1,4
80002b72:	9726                	add	a4,a4,s1
80002b74:	971e                	add	a4,a4,t2
80002b76:	01071393          	sll	t2,a4,0x10
80002b7a:	00f3e3b3          	or	t2,t2,a5
80002b7e:	fe732e23          	sw	t2,-4(t1)
80002b82:	ffe65383          	lhu	t2,-2(a2)
80002b86:	00035783          	lhu	a5,0(t1)
80002b8a:	8341                	srl	a4,a4,0x10
80002b8c:	025383b3          	mul	t2,t2,t0
80002b90:	979e                	add	a5,a5,t2
80002b92:	97ba                	add	a5,a5,a4
80002b94:	4702                	lw	a4,0(sp)
80002b96:	0107d393          	srl	t2,a5,0x10
80002b9a:	fce662e3          	bltu	a2,a4,80002b5e <__multiply+0x12e>
80002b9e:	4722                	lw	a4,8(sp)
80002ba0:	9736                	add	a4,a4,a3
80002ba2:	c31c                	sw	a5,0(a4)
80002ba4:	0591                	add	a1,a1,4
80002ba6:	0691                	add	a3,a3,4
80002ba8:	b705                	j	80002ac8 <__multiply+0x98>
80002baa:	147d                	add	s0,s0,-1
80002bac:	b70d                	j	80002ace <__multiply+0x9e>

80002bae <__pow5mult>:
__pow5mult():
80002bae:	1121                	add	sp,sp,-24
80002bb0:	c822                	sw	s0,16(sp)
80002bb2:	c626                	sw	s1,12(sp)
80002bb4:	ca06                	sw	ra,20(sp)
80002bb6:	c02e                	sw	a1,0(sp)
80002bb8:	00367793          	and	a5,a2,3
80002bbc:	84aa                	mv	s1,a0
80002bbe:	8432                	mv	s0,a2
80002bc0:	cb91                	beqz	a5,80002bd4 <__pow5mult+0x26>
80002bc2:	17fd                	add	a5,a5,-1
80002bc4:	b5018713          	add	a4,gp,-1200 # 90000518 <p05.0>
80002bc8:	078a                	sll	a5,a5,0x2
80002bca:	97ba                	add	a5,a5,a4
80002bcc:	4681                	li	a3,0
80002bce:	4390                	lw	a2,0(a5)
80002bd0:	31d9                	jal	80002896 <__multadd>
80002bd2:	c02a                	sw	a0,0(sp)
80002bd4:	8409                	sra	s0,s0,0x2
80002bd6:	c459                	beqz	s0,80002c64 <__pow5mult+0xb6>
80002bd8:	4cdc                	lw	a5,28(s1)
80002bda:	eb9d                	bnez	a5,80002c10 <__pow5mult+0x62>
80002bdc:	4541                	li	a0,16
80002bde:	a2dff0ef          	jal	8000260a <malloc>
80002be2:	ccc8                	sw	a0,28(s1)
80002be4:	ed11                	bnez	a0,80002c00 <__pow5mult+0x52>
80002be6:	0fffe697          	auipc	a3,0xfffe
80002bea:	86668693          	add	a3,a3,-1946 # 9000044c <_impure_ptr+0x27c>
80002bee:	4601                	li	a2,0
80002bf0:	1b300593          	li	a1,435
80002bf4:	0fffe517          	auipc	a0,0xfffe
80002bf8:	8d450513          	add	a0,a0,-1836 # 900004c8 <_impure_ptr+0x2f8>
80002bfc:	557000ef          	jal	80003952 <__assert_func>
80002c00:	00052223          	sw	zero,4(a0)
80002c04:	00052423          	sw	zero,8(a0)
80002c08:	00052023          	sw	zero,0(a0)
80002c0c:	00052623          	sw	zero,12(a0)
80002c10:	4cdc                	lw	a5,28(s1)
80002c12:	4790                	lw	a2,8(a5)
80002c14:	ea19                	bnez	a2,80002c2a <__pow5mult+0x7c>
80002c16:	27100593          	li	a1,625
80002c1a:	8526                	mv	a0,s1
80002c1c:	c23e                	sw	a5,4(sp)
80002c1e:	3bf1                	jal	800029fa <__i2b>
80002c20:	4792                	lw	a5,4(sp)
80002c22:	c788                	sw	a0,8(a5)
80002c24:	862a                	mv	a2,a0
80002c26:	00052023          	sw	zero,0(a0)
80002c2a:	00147793          	and	a5,s0,1
80002c2e:	cf89                	beqz	a5,80002c48 <__pow5mult+0x9a>
80002c30:	4582                	lw	a1,0(sp)
80002c32:	8526                	mv	a0,s1
80002c34:	c432                	sw	a2,8(sp)
80002c36:	3bed                	jal	80002a30 <__multiply>
80002c38:	c22a                	sw	a0,4(sp)
80002c3a:	4582                	lw	a1,0(sp)
80002c3c:	8526                	mv	a0,s1
80002c3e:	bfbff0ef          	jal	80002838 <_Bfree>
80002c42:	4792                	lw	a5,4(sp)
80002c44:	c03e                	sw	a5,0(sp)
80002c46:	4622                	lw	a2,8(sp)
80002c48:	8405                	sra	s0,s0,0x1
80002c4a:	cc09                	beqz	s0,80002c64 <__pow5mult+0xb6>
80002c4c:	4208                	lw	a0,0(a2)
80002c4e:	e909                	bnez	a0,80002c60 <__pow5mult+0xb2>
80002c50:	85b2                	mv	a1,a2
80002c52:	8526                	mv	a0,s1
80002c54:	c232                	sw	a2,4(sp)
80002c56:	3be9                	jal	80002a30 <__multiply>
80002c58:	4612                	lw	a2,4(sp)
80002c5a:	c208                	sw	a0,0(a2)
80002c5c:	00052023          	sw	zero,0(a0)
80002c60:	862a                	mv	a2,a0
80002c62:	b7e1                	j	80002c2a <__pow5mult+0x7c>
80002c64:	40d2                	lw	ra,20(sp)
80002c66:	4442                	lw	s0,16(sp)
80002c68:	4502                	lw	a0,0(sp)
80002c6a:	44b2                	lw	s1,12(sp)
80002c6c:	0161                	add	sp,sp,24
80002c6e:	8082                	ret

80002c70 <__lshift>:
__lshift():
80002c70:	1101                	add	sp,sp,-32
80002c72:	ca26                	sw	s1,20(sp)
80002c74:	84ae                	mv	s1,a1
80002c76:	40565793          	sra	a5,a2,0x5
80002c7a:	0104a383          	lw	t2,16(s1)
80002c7e:	93be                	add	t2,t2,a5
80002c80:	ce06                	sw	ra,28(sp)
80002c82:	cc22                	sw	s0,24(sp)
80002c84:	c02a                	sw	a0,0(sp)
80002c86:	41cc                	lw	a1,4(a1)
80002c88:	00138293          	add	t0,t2,1
80002c8c:	4498                	lw	a4,8(s1)
80002c8e:	02574c63          	blt	a4,t0,80002cc6 <__lshift+0x56>
80002c92:	4502                	lw	a0,0(sp)
80002c94:	c832                	sw	a2,16(sp)
80002c96:	c63e                	sw	a5,12(sp)
80002c98:	c416                	sw	t0,8(sp)
80002c9a:	c21e                	sw	t2,4(sp)
80002c9c:	af7ff0ef          	jal	80002792 <_Balloc>
80002ca0:	842a                	mv	s0,a0
80002ca2:	4392                	lw	t2,4(sp)
80002ca4:	42a2                	lw	t0,8(sp)
80002ca6:	47b2                	lw	a5,12(sp)
80002ca8:	4642                	lw	a2,16(sp)
80002caa:	e10d                	bnez	a0,80002ccc <__lshift+0x5c>
80002cac:	0fffe697          	auipc	a3,0xfffe
80002cb0:	80868693          	add	a3,a3,-2040 # 900004b4 <_impure_ptr+0x2e4>
80002cb4:	4601                	li	a2,0
80002cb6:	1de00593          	li	a1,478
80002cba:	0fffe517          	auipc	a0,0xfffe
80002cbe:	80e50513          	add	a0,a0,-2034 # 900004c8 <_impure_ptr+0x2f8>
80002cc2:	491000ef          	jal	80003952 <__assert_func>
80002cc6:	0585                	add	a1,a1,1
80002cc8:	0706                	sll	a4,a4,0x1
80002cca:	b7d1                	j	80002c8e <__lshift+0x1e>
80002ccc:	01450713          	add	a4,a0,20
80002cd0:	85ba                	mv	a1,a4
80002cd2:	4681                	li	a3,0
80002cd4:	06f6ce63          	blt	a3,a5,80002d50 <__lshift+0xe0>
80002cd8:	fff7c693          	not	a3,a5
80002cdc:	86fd                	sra	a3,a3,0x1f
80002cde:	8ff5                	and	a5,a5,a3
80002ce0:	078a                	sll	a5,a5,0x2
80002ce2:	4894                	lw	a3,16(s1)
80002ce4:	973e                	add	a4,a4,a5
80002ce6:	068a                	sll	a3,a3,0x2
80002ce8:	01448793          	add	a5,s1,20
80002cec:	8a7d                	and	a2,a2,31
80002cee:	96be                	add	a3,a3,a5
80002cf0:	c62d                	beqz	a2,80002d5a <__lshift+0xea>
80002cf2:	02000593          	li	a1,32
80002cf6:	40c58333          	sub	t1,a1,a2
80002cfa:	80ba                	mv	ra,a4
80002cfc:	4581                	li	a1,0
80002cfe:	4388                	lw	a0,0(a5)
80002d00:	00c51533          	sll	a0,a0,a2
80002d04:	8d4d                	or	a0,a0,a1
80002d06:	00a0a023          	sw	a0,0(ra)
80002d0a:	438c                	lw	a1,0(a5)
80002d0c:	0791                	add	a5,a5,4
80002d0e:	0065d5b3          	srl	a1,a1,t1
80002d12:	0091                	add	ra,ra,4
80002d14:	fed7e5e3          	bltu	a5,a3,80002cfe <__lshift+0x8e>
80002d18:	01548613          	add	a2,s1,21
80002d1c:	4791                	li	a5,4
80002d1e:	00c6e763          	bltu	a3,a2,80002d2c <__lshift+0xbc>
80002d22:	409687b3          	sub	a5,a3,s1
80002d26:	17ad                	add	a5,a5,-21
80002d28:	9bf1                	and	a5,a5,-4
80002d2a:	0791                	add	a5,a5,4
80002d2c:	97ba                	add	a5,a5,a4
80002d2e:	c38c                	sw	a1,0(a5)
80002d30:	c199                	beqz	a1,80002d36 <__lshift+0xc6>
80002d32:	00238293          	add	t0,t2,2
80002d36:	12fd                	add	t0,t0,-1
80002d38:	4502                	lw	a0,0(sp)
80002d3a:	00542823          	sw	t0,16(s0)
80002d3e:	85a6                	mv	a1,s1
80002d40:	af9ff0ef          	jal	80002838 <_Bfree>
80002d44:	8522                	mv	a0,s0
80002d46:	40f2                	lw	ra,28(sp)
80002d48:	4462                	lw	s0,24(sp)
80002d4a:	44d2                	lw	s1,20(sp)
80002d4c:	6105                	add	sp,sp,32
80002d4e:	8082                	ret
80002d50:	0005a023          	sw	zero,0(a1)
80002d54:	0685                	add	a3,a3,1
80002d56:	0591                	add	a1,a1,4
80002d58:	bfb5                	j	80002cd4 <__lshift+0x64>
80002d5a:	4390                	lw	a2,0(a5)
80002d5c:	c310                	sw	a2,0(a4)
80002d5e:	0791                	add	a5,a5,4
80002d60:	0711                	add	a4,a4,4 # 40000004 <__HEAP_SIZE+0x3ffff804>
80002d62:	fed7ece3          	bltu	a5,a3,80002d5a <__lshift+0xea>
80002d66:	bfc1                	j	80002d36 <__lshift+0xc6>

80002d68 <__mcmp>:
__mcmp():
80002d68:	4914                	lw	a3,16(a0)
80002d6a:	4998                	lw	a4,16(a1)
80002d6c:	87aa                	mv	a5,a0
80002d6e:	40e68533          	sub	a0,a3,a4
80002d72:	02e69563          	bne	a3,a4,80002d9c <__mcmp+0x34>
80002d76:	070a                	sll	a4,a4,0x2
80002d78:	07d1                	add	a5,a5,20
80002d7a:	05d1                	add	a1,a1,20
80002d7c:	00e786b3          	add	a3,a5,a4
80002d80:	95ba                	add	a1,a1,a4
80002d82:	16f1                	add	a3,a3,-4
80002d84:	15f1                	add	a1,a1,-4
80002d86:	4290                	lw	a2,0(a3)
80002d88:	4198                	lw	a4,0(a1)
80002d8a:	00e60763          	beq	a2,a4,80002d98 <__mcmp+0x30>
80002d8e:	4505                	li	a0,1
80002d90:	00e67663          	bgeu	a2,a4,80002d9c <__mcmp+0x34>
80002d94:	557d                	li	a0,-1
80002d96:	8082                	ret
80002d98:	fed7e5e3          	bltu	a5,a3,80002d82 <__mcmp+0x1a>
80002d9c:	8082                	ret

80002d9e <__mdiff>:
__mdiff():
80002d9e:	1121                	add	sp,sp,-24
80002da0:	c626                	sw	s1,12(sp)
80002da2:	84ae                	mv	s1,a1
80002da4:	c02a                	sw	a0,0(sp)
80002da6:	85b2                	mv	a1,a2
80002da8:	8526                	mv	a0,s1
80002daa:	c822                	sw	s0,16(sp)
80002dac:	ca06                	sw	ra,20(sp)
80002dae:	8432                	mv	s0,a2
80002db0:	3f65                	jal	80002d68 <__mcmp>
80002db2:	ed05                	bnez	a0,80002dea <__mdiff+0x4c>
80002db4:	4581                	li	a1,0
80002db6:	4502                	lw	a0,0(sp)
80002db8:	9dbff0ef          	jal	80002792 <_Balloc>
80002dbc:	ed11                	bnez	a0,80002dd8 <__mdiff+0x3a>
80002dbe:	0fffd697          	auipc	a3,0xfffd
80002dc2:	6f668693          	add	a3,a3,1782 # 900004b4 <_impure_ptr+0x2e4>
80002dc6:	4601                	li	a2,0
80002dc8:	23700593          	li	a1,567
80002dcc:	0fffd517          	auipc	a0,0xfffd
80002dd0:	6fc50513          	add	a0,a0,1788 # 900004c8 <_impure_ptr+0x2f8>
80002dd4:	37f000ef          	jal	80003952 <__assert_func>
80002dd8:	4785                	li	a5,1
80002dda:	c91c                	sw	a5,16(a0)
80002ddc:	00052a23          	sw	zero,20(a0)
80002de0:	40d2                	lw	ra,20(sp)
80002de2:	4442                	lw	s0,16(sp)
80002de4:	44b2                	lw	s1,12(sp)
80002de6:	0161                	add	sp,sp,24
80002de8:	8082                	ret
80002dea:	4781                	li	a5,0
80002dec:	00055663          	bgez	a0,80002df8 <__mdiff+0x5a>
80002df0:	87a6                	mv	a5,s1
80002df2:	84a2                	mv	s1,s0
80002df4:	843e                	mv	s0,a5
80002df6:	4785                	li	a5,1
80002df8:	40cc                	lw	a1,4(s1)
80002dfa:	4502                	lw	a0,0(sp)
80002dfc:	c23e                	sw	a5,4(sp)
80002dfe:	995ff0ef          	jal	80002792 <_Balloc>
80002e02:	4792                	lw	a5,4(sp)
80002e04:	e909                	bnez	a0,80002e16 <__mdiff+0x78>
80002e06:	0fffd697          	auipc	a3,0xfffd
80002e0a:	6ae68693          	add	a3,a3,1710 # 900004b4 <_impure_ptr+0x2e4>
80002e0e:	4601                	li	a2,0
80002e10:	24500593          	li	a1,581
80002e14:	bf65                	j	80002dcc <__mdiff+0x2e>
80002e16:	488c                	lw	a1,16(s1)
80002e18:	c55c                	sw	a5,12(a0)
80002e1a:	01448313          	add	t1,s1,20
80002e1e:	00259793          	sll	a5,a1,0x2
80002e22:	979a                	add	a5,a5,t1
80002e24:	4818                	lw	a4,16(s0)
80002e26:	070a                	sll	a4,a4,0x2
80002e28:	c03e                	sw	a5,0(sp)
80002e2a:	01440793          	add	a5,s0,20
80002e2e:	97ba                	add	a5,a5,a4
80002e30:	01450713          	add	a4,a0,20
80002e34:	c43a                	sw	a4,8(sp)
80002e36:	4651                	li	a2,20
80002e38:	4281                	li	t0,0
80002e3a:	00c48733          	add	a4,s1,a2
80002e3e:	00072383          	lw	t2,0(a4)
80002e42:	00c40733          	add	a4,s0,a2
80002e46:	4318                	lw	a4,0(a4)
80002e48:	c23a                	sw	a4,4(sp)
80002e4a:	00415683          	lhu	a3,4(sp)
80002e4e:	01039713          	sll	a4,t2,0x10
80002e52:	8341                	srl	a4,a4,0x10
80002e54:	40d706b3          	sub	a3,a4,a3
80002e58:	4712                	lw	a4,4(sp)
80002e5a:	9696                	add	a3,a3,t0
80002e5c:	0103d393          	srl	t2,t2,0x10
80002e60:	8341                	srl	a4,a4,0x10
80002e62:	4106d293          	sra	t0,a3,0x10
80002e66:	40e38733          	sub	a4,t2,a4
80002e6a:	9716                	add	a4,a4,t0
80002e6c:	06c2                	sll	a3,a3,0x10
80002e6e:	41075293          	sra	t0,a4,0x10
80002e72:	82c1                	srl	a3,a3,0x10
80002e74:	0742                	sll	a4,a4,0x10
80002e76:	00c503b3          	add	t2,a0,a2
80002e7a:	8ed9                	or	a3,a3,a4
80002e7c:	0611                	add	a2,a2,4
80002e7e:	00d3a023          	sw	a3,0(t2)
80002e82:	00860733          	add	a4,a2,s0
80002e86:	faf76ae3          	bltu	a4,a5,80002e3a <__mdiff+0x9c>
80002e8a:	01540693          	add	a3,s0,21
80002e8e:	4711                	li	a4,4
80002e90:	00d7e663          	bltu	a5,a3,80002e9c <__mdiff+0xfe>
80002e94:	8f81                	sub	a5,a5,s0
80002e96:	17ad                	add	a5,a5,-21
80002e98:	9bf1                	and	a5,a5,-4
80002e9a:	973e                	add	a4,a4,a5
80002e9c:	47a2                	lw	a5,8(sp)
80002e9e:	933a                	add	t1,t1,a4
80002ea0:	97ba                	add	a5,a5,a4
80002ea2:	83be                	mv	t2,a5
80002ea4:	861a                	mv	a2,t1
80002ea6:	4702                	lw	a4,0(sp)
80002ea8:	02e66463          	bltu	a2,a4,80002ed0 <__mdiff+0x132>
80002eac:	ffd30713          	add	a4,t1,-3
80002eb0:	4602                	lw	a2,0(sp)
80002eb2:	4681                	li	a3,0
80002eb4:	00e66863          	bltu	a2,a4,80002ec4 <__mdiff+0x126>
80002eb8:	00360713          	add	a4,a2,3
80002ebc:	40670733          	sub	a4,a4,t1
80002ec0:	ffc77693          	and	a3,a4,-4
80002ec4:	97b6                	add	a5,a5,a3
80002ec6:	17f1                	add	a5,a5,-4
80002ec8:	4398                	lw	a4,0(a5)
80002eca:	cb0d                	beqz	a4,80002efc <__mdiff+0x15e>
80002ecc:	c90c                	sw	a1,16(a0)
80002ece:	bf09                	j	80002de0 <__mdiff+0x42>
80002ed0:	4214                	lw	a3,0(a2)
80002ed2:	01069713          	sll	a4,a3,0x10
80002ed6:	8341                	srl	a4,a4,0x10
80002ed8:	8416                	mv	s0,t0
80002eda:	9716                	add	a4,a4,t0
80002edc:	8741                	sra	a4,a4,0x10
80002ede:	0106d293          	srl	t0,a3,0x10
80002ee2:	96a2                	add	a3,a3,s0
80002ee4:	9716                	add	a4,a4,t0
80002ee6:	06c2                	sll	a3,a3,0x10
80002ee8:	41075293          	sra	t0,a4,0x10
80002eec:	82c1                	srl	a3,a3,0x10
80002eee:	0742                	sll	a4,a4,0x10
80002ef0:	8ed9                	or	a3,a3,a4
80002ef2:	00d3a023          	sw	a3,0(t2)
80002ef6:	0611                	add	a2,a2,4
80002ef8:	0391                	add	t2,t2,4
80002efa:	b775                	j	80002ea6 <__mdiff+0x108>
80002efc:	15fd                	add	a1,a1,-1
80002efe:	b7e1                	j	80002ec6 <__mdiff+0x128>

80002f00 <__d2b>:
__d2b():
80002f00:	1101                	add	sp,sp,-32
80002f02:	c42e                	sw	a1,8(sp)
80002f04:	4585                	li	a1,1
80002f06:	cc22                	sw	s0,24(sp)
80002f08:	ce06                	sw	ra,28(sp)
80002f0a:	ca26                	sw	s1,20(sp)
80002f0c:	8432                	mv	s0,a2
80002f0e:	c036                	sw	a3,0(sp)
80002f10:	c23a                	sw	a4,4(sp)
80002f12:	881ff0ef          	jal	80002792 <_Balloc>
80002f16:	4322                	lw	t1,8(sp)
80002f18:	ed11                	bnez	a0,80002f34 <__d2b+0x34>
80002f1a:	0fffd697          	auipc	a3,0xfffd
80002f1e:	59a68693          	add	a3,a3,1434 # 900004b4 <_impure_ptr+0x2e4>
80002f22:	4601                	li	a2,0
80002f24:	30f00593          	li	a1,783
80002f28:	0fffd517          	auipc	a0,0xfffd
80002f2c:	5a050513          	add	a0,a0,1440 # 900004c8 <_impure_ptr+0x2f8>
80002f30:	223000ef          	jal	80003952 <__assert_func>
80002f34:	00100737          	lui	a4,0x100
80002f38:	fff70793          	add	a5,a4,-1 # fffff <__HEAP_SIZE+0xff7ff>
80002f3c:	01445613          	srl	a2,s0,0x14
80002f40:	8fe1                	and	a5,a5,s0
80002f42:	7ff67413          	and	s0,a2,2047
80002f46:	84aa                	mv	s1,a0
80002f48:	c011                	beqz	s0,80002f4c <__d2b+0x4c>
80002f4a:	8fd9                	or	a5,a5,a4
80002f4c:	c83e                	sw	a5,16(sp)
80002f4e:	04030c63          	beqz	t1,80002fa6 <__d2b+0xa6>
80002f52:	0068                	add	a0,sp,12
80002f54:	c61a                	sw	t1,12(sp)
80002f56:	a3bff0ef          	jal	80002990 <__lo0bits>
80002f5a:	4742                	lw	a4,16(sp)
80002f5c:	45b2                	lw	a1,12(sp)
80002f5e:	c131                	beqz	a0,80002fa2 <__d2b+0xa2>
80002f60:	02000793          	li	a5,32
80002f64:	8f89                	sub	a5,a5,a0
80002f66:	00f717b3          	sll	a5,a4,a5
80002f6a:	8fcd                	or	a5,a5,a1
80002f6c:	00a75733          	srl	a4,a4,a0
80002f70:	c8dc                	sw	a5,20(s1)
80002f72:	c83a                	sw	a4,16(sp)
80002f74:	47c2                	lw	a5,16(sp)
80002f76:	cc9c                	sw	a5,24(s1)
80002f78:	00f037b3          	snez	a5,a5
80002f7c:	0785                	add	a5,a5,1
80002f7e:	c89c                	sw	a5,16(s1)
80002f80:	cc05                	beqz	s0,80002fb8 <__d2b+0xb8>
80002f82:	bcd40613          	add	a2,s0,-1075
80002f86:	4782                	lw	a5,0(sp)
80002f88:	962a                	add	a2,a2,a0
80002f8a:	c390                	sw	a2,0(a5)
80002f8c:	03500793          	li	a5,53
80002f90:	4712                	lw	a4,4(sp)
80002f92:	8f89                	sub	a5,a5,a0
80002f94:	40f2                	lw	ra,28(sp)
80002f96:	4462                	lw	s0,24(sp)
80002f98:	c31c                	sw	a5,0(a4)
80002f9a:	8526                	mv	a0,s1
80002f9c:	44d2                	lw	s1,20(sp)
80002f9e:	6105                	add	sp,sp,32
80002fa0:	8082                	ret
80002fa2:	c8cc                	sw	a1,20(s1)
80002fa4:	bfc1                	j	80002f74 <__d2b+0x74>
80002fa6:	0808                	add	a0,sp,16
80002fa8:	9e9ff0ef          	jal	80002990 <__lo0bits>
80002fac:	47c2                	lw	a5,16(sp)
80002fae:	c8dc                	sw	a5,20(s1)
80002fb0:	02050513          	add	a0,a0,32
80002fb4:	4785                	li	a5,1
80002fb6:	b7e1                	j	80002f7e <__d2b+0x7e>
80002fb8:	bce50713          	add	a4,a0,-1074
80002fbc:	4682                	lw	a3,0(sp)
80002fbe:	c298                	sw	a4,0(a3)
80002fc0:	00279713          	sll	a4,a5,0x2
80002fc4:	9726                	add	a4,a4,s1
80002fc6:	4b08                	lw	a0,16(a4)
80002fc8:	c03e                	sw	a5,0(sp)
80002fca:	981ff0ef          	jal	8000294a <__hi0bits>
80002fce:	4782                	lw	a5,0(sp)
80002fd0:	0796                	sll	a5,a5,0x5
80002fd2:	bf7d                	j	80002f90 <__d2b+0x90>

80002fd4 <__sfputc_r>:
__sfputc_r():
80002fd4:	461c                	lw	a5,8(a2)
80002fd6:	17fd                	add	a5,a5,-1
80002fd8:	c61c                	sw	a5,8(a2)
80002fda:	0007d963          	bgez	a5,80002fec <__sfputc_r+0x18>
80002fde:	4e18                	lw	a4,24(a2)
80002fe0:	00e7c563          	blt	a5,a4,80002fea <__sfputc_r+0x16>
80002fe4:	47a9                	li	a5,10
80002fe6:	00f59363          	bne	a1,a5,80002fec <__sfputc_r+0x18>
80002fea:	aba9                	j	80003544 <__swbuf_r>
80002fec:	421c                	lw	a5,0(a2)
80002fee:	00178713          	add	a4,a5,1
80002ff2:	c218                	sw	a4,0(a2)
80002ff4:	00b78023          	sb	a1,0(a5)
80002ff8:	852e                	mv	a0,a1
80002ffa:	8082                	ret

80002ffc <__sfputs_r>:
__sfputs_r():
80002ffc:	1131                	add	sp,sp,-20
80002ffe:	c622                	sw	s0,12(sp)
80003000:	c426                	sw	s1,8(sp)
80003002:	c806                	sw	ra,16(sp)
80003004:	c02a                	sw	a0,0(sp)
80003006:	c22e                	sw	a1,4(sp)
80003008:	84b2                	mv	s1,a2
8000300a:	00d60433          	add	s0,a2,a3
8000300e:	00849463          	bne	s1,s0,80003016 <__sfputs_r+0x1a>
80003012:	4501                	li	a0,0
80003014:	a811                	j	80003028 <__sfputs_r+0x2c>
80003016:	0004c583          	lbu	a1,0(s1)
8000301a:	4612                	lw	a2,4(sp)
8000301c:	4502                	lw	a0,0(sp)
8000301e:	3f5d                	jal	80002fd4 <__sfputc_r>
80003020:	577d                	li	a4,-1
80003022:	0485                	add	s1,s1,1
80003024:	fee515e3          	bne	a0,a4,8000300e <__sfputs_r+0x12>
80003028:	40c2                	lw	ra,16(sp)
8000302a:	4432                	lw	s0,12(sp)
8000302c:	44a2                	lw	s1,8(sp)
8000302e:	0151                	add	sp,sp,20
80003030:	8082                	ret

80003032 <_vfiprintf_r>:
_vfiprintf_r():
80003032:	f7810113          	add	sp,sp,-136
80003036:	c122                	sw	s0,128(sp)
80003038:	dea6                	sw	s1,124(sp)
8000303a:	01f10793          	add	a5,sp,31
8000303e:	c306                	sw	ra,132(sp)
80003040:	c02a                	sw	a0,0(sp)
80003042:	c232                	sw	a2,4(sp)
80003044:	c636                	sw	a3,12(sp)
80003046:	842e                	mv	s0,a1
80003048:	ff87f493          	and	s1,a5,-8
8000304c:	c501                	beqz	a0,80003054 <_vfiprintf_r+0x22>
8000304e:	5118                	lw	a4,32(a0)
80003050:	e311                	bnez	a4,80003054 <_vfiprintf_r+0x22>
80003052:	26c1                	jal	80003412 <__sinit>
80003054:	5078                	lw	a4,100(s0)
80003056:	8b05                	and	a4,a4,1
80003058:	eb09                	bnez	a4,8000306a <_vfiprintf_r+0x38>
8000305a:	00c45703          	lhu	a4,12(s0)
8000305e:	20077713          	and	a4,a4,512
80003062:	e701                	bnez	a4,8000306a <_vfiprintf_r+0x38>
80003064:	4c28                	lw	a0,88(s0)
80003066:	710000ef          	jal	80003776 <__retarget_lock_acquire_recursive>
8000306a:	00c45703          	lhu	a4,12(s0)
8000306e:	8b21                	and	a4,a4,8
80003070:	c319                	beqz	a4,80003076 <_vfiprintf_r+0x44>
80003072:	4818                	lw	a4,16(s0)
80003074:	eb05                	bnez	a4,800030a4 <_vfiprintf_r+0x72>
80003076:	85a2                	mv	a1,s0
80003078:	4502                	lw	a0,0(sp)
8000307a:	2bb9                	jal	800035d8 <__swsetup_r>
8000307c:	c505                	beqz	a0,800030a4 <_vfiprintf_r+0x72>
8000307e:	507c                	lw	a5,100(s0)
80003080:	8b85                	and	a5,a5,1
80003082:	cb81                	beqz	a5,80003092 <_vfiprintf_r+0x60>
80003084:	557d                	li	a0,-1
80003086:	409a                	lw	ra,132(sp)
80003088:	440a                	lw	s0,128(sp)
8000308a:	54f6                	lw	s1,124(sp)
8000308c:	08810113          	add	sp,sp,136
80003090:	8082                	ret
80003092:	00c45783          	lhu	a5,12(s0)
80003096:	2007f793          	and	a5,a5,512
8000309a:	f7ed                	bnez	a5,80003084 <_vfiprintf_r+0x52>
8000309c:	4c28                	lw	a0,88(s0)
8000309e:	6da000ef          	jal	80003778 <__retarget_lock_release_recursive>
800030a2:	b7cd                	j	80003084 <_vfiprintf_r+0x52>
800030a4:	02000713          	li	a4,32
800030a8:	00e48ca3          	sb	a4,25(s1)
800030ac:	47b2                	lw	a5,12(sp)
800030ae:	03000713          	li	a4,48
800030b2:	0004aa23          	sw	zero,20(s1)
800030b6:	00e48d23          	sb	a4,26(s1)
800030ba:	ca3e                	sw	a5,20(sp)
800030bc:	4792                	lw	a5,4(sp)
800030be:	02500613          	li	a2,37
800030c2:	0007c683          	lbu	a3,0(a5)
800030c6:	c299                	beqz	a3,800030cc <_vfiprintf_r+0x9a>
800030c8:	0ac69963          	bne	a3,a2,8000317a <_vfiprintf_r+0x148>
800030cc:	4712                	lw	a4,4(sp)
800030ce:	40e786b3          	sub	a3,a5,a4
800030d2:	02e78063          	beq	a5,a4,800030f2 <_vfiprintf_r+0xc0>
800030d6:	863a                	mv	a2,a4
800030d8:	85a2                	mv	a1,s0
800030da:	4502                	lw	a0,0(sp)
800030dc:	c83e                	sw	a5,16(sp)
800030de:	c636                	sw	a3,12(sp)
800030e0:	3f31                	jal	80002ffc <__sfputs_r>
800030e2:	567d                	li	a2,-1
800030e4:	1cc50663          	beq	a0,a2,800032b0 <_vfiprintf_r+0x27e>
800030e8:	48d0                	lw	a2,20(s1)
800030ea:	46b2                	lw	a3,12(sp)
800030ec:	9636                	add	a2,a2,a3
800030ee:	c8d0                	sw	a2,20(s1)
800030f0:	47c2                	lw	a5,16(sp)
800030f2:	0007c683          	lbu	a3,0(a5)
800030f6:	1a068d63          	beqz	a3,800032b0 <_vfiprintf_r+0x27e>
800030fa:	577d                	li	a4,-1
800030fc:	0785                	add	a5,a5,1
800030fe:	0004a023          	sw	zero,0(s1)
80003102:	0004a623          	sw	zero,12(s1)
80003106:	c0d8                	sw	a4,4(s1)
80003108:	0004a423          	sw	zero,8(s1)
8000310c:	040481a3          	sb	zero,67(s1)
80003110:	0404ac23          	sw	zero,88(s1)
80003114:	0007c583          	lbu	a1,0(a5)
80003118:	4615                	li	a2,5
8000311a:	0fffd517          	auipc	a0,0xfffd
8000311e:	4fe50513          	add	a0,a0,1278 # 90000618 <__mprec_tens+0xc8>
80003122:	c23e                	sw	a5,4(sp)
80003124:	e4afe0ef          	jal	8000176e <memchr>
80003128:	4792                	lw	a5,4(sp)
8000312a:	00178713          	add	a4,a5,1
8000312e:	4094                	lw	a3,0(s1)
80003130:	e539                	bnez	a0,8000317e <_vfiprintf_r+0x14c>
80003132:	0106f613          	and	a2,a3,16
80003136:	c609                	beqz	a2,80003140 <_vfiprintf_r+0x10e>
80003138:	02000613          	li	a2,32
8000313c:	04c481a3          	sb	a2,67(s1)
80003140:	0086f613          	and	a2,a3,8
80003144:	c609                	beqz	a2,8000314e <_vfiprintf_r+0x11c>
80003146:	02b00613          	li	a2,43
8000314a:	04c481a3          	sb	a2,67(s1)
8000314e:	0007c583          	lbu	a1,0(a5)
80003152:	02a00613          	li	a2,42
80003156:	04c58063          	beq	a1,a2,80003196 <_vfiprintf_r+0x164>
8000315a:	44d4                	lw	a3,12(s1)
8000315c:	873e                	mv	a4,a5
8000315e:	4581                	li	a1,0
80003160:	4525                	li	a0,9
80003162:	42a9                	li	t0,10
80003164:	00074603          	lbu	a2,0(a4)
80003168:	fd060613          	add	a2,a2,-48
8000316c:	00170313          	add	t1,a4,1
80003170:	06c57963          	bgeu	a0,a2,800031e2 <_vfiprintf_r+0x1b0>
80003174:	c98d                	beqz	a1,800031a6 <_vfiprintf_r+0x174>
80003176:	c4d4                	sw	a3,12(s1)
80003178:	a03d                	j	800031a6 <_vfiprintf_r+0x174>
8000317a:	0785                	add	a5,a5,1
8000317c:	b799                	j	800030c2 <_vfiprintf_r+0x90>
8000317e:	0fffd617          	auipc	a2,0xfffd
80003182:	49a60613          	add	a2,a2,1178 # 90000618 <__mprec_tens+0xc8>
80003186:	8d11                	sub	a0,a0,a2
80003188:	4605                	li	a2,1
8000318a:	00a61633          	sll	a2,a2,a0
8000318e:	8ed1                	or	a3,a3,a2
80003190:	c094                	sw	a3,0(s1)
80003192:	87ba                	mv	a5,a4
80003194:	b741                	j	80003114 <_vfiprintf_r+0xe2>
80003196:	4652                	lw	a2,20(sp)
80003198:	00460593          	add	a1,a2,4
8000319c:	ca2e                	sw	a1,20(sp)
8000319e:	4210                	lw	a2,0(a2)
800031a0:	02064a63          	bltz	a2,800031d4 <_vfiprintf_r+0x1a2>
800031a4:	c4d0                	sw	a2,12(s1)
800031a6:	00074603          	lbu	a2,0(a4)
800031aa:	02e00693          	li	a3,46
800031ae:	06d61063          	bne	a2,a3,8000320e <_vfiprintf_r+0x1dc>
800031b2:	00174603          	lbu	a2,1(a4)
800031b6:	02a00693          	li	a3,42
800031ba:	02d61a63          	bne	a2,a3,800031ee <_vfiprintf_r+0x1bc>
800031be:	46d2                	lw	a3,20(sp)
800031c0:	00468613          	add	a2,a3,4
800031c4:	ca32                	sw	a2,20(sp)
800031c6:	4294                	lw	a3,0(a3)
800031c8:	0709                	add	a4,a4,2
800031ca:	0006d363          	bgez	a3,800031d0 <_vfiprintf_r+0x19e>
800031ce:	56fd                	li	a3,-1
800031d0:	c0d4                	sw	a3,4(s1)
800031d2:	a835                	j	8000320e <_vfiprintf_r+0x1dc>
800031d4:	40c00633          	neg	a2,a2
800031d8:	0026e693          	or	a3,a3,2
800031dc:	c4d0                	sw	a2,12(s1)
800031de:	c094                	sw	a3,0(s1)
800031e0:	b7d9                	j	800031a6 <_vfiprintf_r+0x174>
800031e2:	025686b3          	mul	a3,a3,t0
800031e6:	871a                	mv	a4,t1
800031e8:	4585                	li	a1,1
800031ea:	96b2                	add	a3,a3,a2
800031ec:	bfa5                	j	80003164 <_vfiprintf_r+0x132>
800031ee:	0705                	add	a4,a4,1
800031f0:	0004a223          	sw	zero,4(s1)
800031f4:	4581                	li	a1,0
800031f6:	4681                	li	a3,0
800031f8:	4525                	li	a0,9
800031fa:	42a9                	li	t0,10
800031fc:	00074603          	lbu	a2,0(a4)
80003200:	fd060613          	add	a2,a2,-48
80003204:	00170313          	add	t1,a4,1
80003208:	06c57f63          	bgeu	a0,a2,80003286 <_vfiprintf_r+0x254>
8000320c:	f1f1                	bnez	a1,800031d0 <_vfiprintf_r+0x19e>
8000320e:	00074583          	lbu	a1,0(a4)
80003212:	460d                	li	a2,3
80003214:	0fffd517          	auipc	a0,0xfffd
80003218:	40c50513          	add	a0,a0,1036 # 90000620 <__mprec_tens+0xd0>
8000321c:	c23a                	sw	a4,4(sp)
8000321e:	d50fe0ef          	jal	8000176e <memchr>
80003222:	4712                	lw	a4,4(sp)
80003224:	cd11                	beqz	a0,80003240 <_vfiprintf_r+0x20e>
80003226:	0fffd697          	auipc	a3,0xfffd
8000322a:	3fa68693          	add	a3,a3,1018 # 90000620 <__mprec_tens+0xd0>
8000322e:	8d15                	sub	a0,a0,a3
80003230:	04000613          	li	a2,64
80003234:	4094                	lw	a3,0(s1)
80003236:	00a61633          	sll	a2,a2,a0
8000323a:	8ed1                	or	a3,a3,a2
8000323c:	0705                	add	a4,a4,1
8000323e:	c094                	sw	a3,0(s1)
80003240:	00170793          	add	a5,a4,1
80003244:	00074583          	lbu	a1,0(a4)
80003248:	4619                	li	a2,6
8000324a:	0fffd517          	auipc	a0,0xfffd
8000324e:	3da50513          	add	a0,a0,986 # 90000624 <__mprec_tens+0xd4>
80003252:	c23e                	sw	a5,4(sp)
80003254:	00b48c23          	sb	a1,24(s1)
80003258:	d16fe0ef          	jal	8000176e <memchr>
8000325c:	cd25                	beqz	a0,800032d4 <_vfiprintf_r+0x2a2>
8000325e:	ffffe717          	auipc	a4,0xffffe
80003262:	c7470713          	add	a4,a4,-908 # 80000ed2 <_printf_float>
80003266:	e715                	bnez	a4,80003292 <_vfiprintf_r+0x260>
80003268:	4098                	lw	a4,0(s1)
8000326a:	4652                	lw	a2,20(sp)
8000326c:	10077713          	and	a4,a4,256
80003270:	00860693          	add	a3,a2,8
80003274:	c319                	beqz	a4,8000327a <_vfiprintf_r+0x248>
80003276:	00460693          	add	a3,a2,4
8000327a:	ca36                	sw	a3,20(sp)
8000327c:	48d8                	lw	a4,20(s1)
8000327e:	47a2                	lw	a5,8(sp)
80003280:	973e                	add	a4,a4,a5
80003282:	c8d8                	sw	a4,20(s1)
80003284:	bd25                	j	800030bc <_vfiprintf_r+0x8a>
80003286:	025686b3          	mul	a3,a3,t0
8000328a:	871a                	mv	a4,t1
8000328c:	4585                	li	a1,1
8000328e:	96b2                	add	a3,a3,a2
80003290:	b7b5                	j	800031fc <_vfiprintf_r+0x1ca>
80003292:	0858                	add	a4,sp,20
80003294:	00000697          	auipc	a3,0x0
80003298:	d6868693          	add	a3,a3,-664 # 80002ffc <__sfputs_r>
8000329c:	8622                	mv	a2,s0
8000329e:	85a6                	mv	a1,s1
800032a0:	4502                	lw	a0,0(sp)
800032a2:	c31fd0ef          	jal	80000ed2 <_printf_float>
800032a6:	c42a                	sw	a0,8(sp)
800032a8:	577d                	li	a4,-1
800032aa:	47a2                	lw	a5,8(sp)
800032ac:	fce798e3          	bne	a5,a4,8000327c <_vfiprintf_r+0x24a>
800032b0:	5078                	lw	a4,100(s0)
800032b2:	8b05                	and	a4,a4,1
800032b4:	eb01                	bnez	a4,800032c4 <_vfiprintf_r+0x292>
800032b6:	00c45703          	lhu	a4,12(s0)
800032ba:	20077713          	and	a4,a4,512
800032be:	e319                	bnez	a4,800032c4 <_vfiprintf_r+0x292>
800032c0:	4c28                	lw	a0,88(s0)
800032c2:	295d                	jal	80003778 <__retarget_lock_release_recursive>
800032c4:	00c45703          	lhu	a4,12(s0)
800032c8:	04077713          	and	a4,a4,64
800032cc:	da071ce3          	bnez	a4,80003084 <_vfiprintf_r+0x52>
800032d0:	48c8                	lw	a0,20(s1)
800032d2:	bb55                	j	80003086 <_vfiprintf_r+0x54>
800032d4:	0858                	add	a4,sp,20
800032d6:	00000697          	auipc	a3,0x0
800032da:	d2668693          	add	a3,a3,-730 # 80002ffc <__sfputs_r>
800032de:	8622                	mv	a2,s0
800032e0:	85a6                	mv	a1,s1
800032e2:	4502                	lw	a0,0(sp)
800032e4:	9f8fe0ef          	jal	800014dc <_printf_i>
800032e8:	bf7d                	j	800032a6 <_vfiprintf_r+0x274>

800032ea <std>:
std():
800032ea:	1161                	add	sp,sp,-8
800032ec:	c022                	sw	s0,0(sp)
800032ee:	c206                	sw	ra,4(sp)
800032f0:	842a                	mv	s0,a0
800032f2:	00b51623          	sh	a1,12(a0)
800032f6:	00c51723          	sh	a2,14(a0)
800032fa:	00052023          	sw	zero,0(a0)
800032fe:	00052223          	sw	zero,4(a0)
80003302:	00052423          	sw	zero,8(a0)
80003306:	06052223          	sw	zero,100(a0)
8000330a:	00052823          	sw	zero,16(a0)
8000330e:	00052a23          	sw	zero,20(a0)
80003312:	00052c23          	sw	zero,24(a0)
80003316:	4621                	li	a2,8
80003318:	4581                	li	a1,0
8000331a:	05c50513          	add	a0,a0,92
8000331e:	29b1                	jal	8000377a <memset>
80003320:	00000797          	auipc	a5,0x0
80003324:	17278793          	add	a5,a5,370 # 80003492 <__sread>
80003328:	d05c                	sw	a5,36(s0)
8000332a:	00000797          	auipc	a5,0x0
8000332e:	19878793          	add	a5,a5,408 # 800034c2 <__swrite>
80003332:	d41c                	sw	a5,40(s0)
80003334:	00000797          	auipc	a5,0x0
80003338:	1d478793          	add	a5,a5,468 # 80003508 <__sseek>
8000333c:	d45c                	sw	a5,44(s0)
8000333e:	00000797          	auipc	a5,0x0
80003342:	20078793          	add	a5,a5,512 # 8000353e <__sclose>
80003346:	d81c                	sw	a5,48(s0)
80003348:	d000                	sw	s0,32(s0)
8000334a:	f9018793          	add	a5,gp,-112 # 90000958 <__sf>
8000334e:	00f40a63          	beq	s0,a5,80003362 <std+0x78>
80003352:	ff818793          	add	a5,gp,-8 # 900009c0 <__sf+0x68>
80003356:	00f40663          	beq	s0,a5,80003362 <std+0x78>
8000335a:	06018793          	add	a5,gp,96 # 90000a28 <__global_pointer$+0x60>
8000335e:	00f41863          	bne	s0,a5,8000336e <std+0x84>
80003362:	05840513          	add	a0,s0,88
80003366:	4402                	lw	s0,0(sp)
80003368:	4092                	lw	ra,4(sp)
8000336a:	0121                	add	sp,sp,8
8000336c:	a121                	j	80003774 <__retarget_lock_init_recursive>
8000336e:	4092                	lw	ra,4(sp)
80003370:	4402                	lw	s0,0(sp)
80003372:	0121                	add	sp,sp,8
80003374:	8082                	ret

80003376 <stdio_exit_handler>:
stdio_exit_handler():
80003376:	0fffd617          	auipc	a2,0xfffd
8000337a:	cd660613          	add	a2,a2,-810 # 9000004c <__sglue>
8000337e:	00001597          	auipc	a1,0x1
80003382:	87258593          	add	a1,a1,-1934 # 80003bf0 <_fflush_r>
80003386:	0fffd517          	auipc	a0,0xfffd
8000338a:	c7a50513          	add	a0,a0,-902 # 90000000 <_impure_data>
8000338e:	a07d                	j	8000343c <_fwalk_sglue>

80003390 <cleanup_stdio>:
cleanup_stdio():
80003390:	1161                	add	sp,sp,-8
80003392:	c022                	sw	s0,0(sp)
80003394:	c206                	sw	ra,4(sp)
80003396:	414c                	lw	a1,4(a0)
80003398:	f9018793          	add	a5,gp,-112 # 90000958 <__sf>
8000339c:	842a                	mv	s0,a0
8000339e:	00f58463          	beq	a1,a5,800033a6 <cleanup_stdio+0x16>
800033a2:	04f000ef          	jal	80003bf0 <_fflush_r>
800033a6:	440c                	lw	a1,8(s0)
800033a8:	ff818793          	add	a5,gp,-8 # 900009c0 <__sf+0x68>
800033ac:	00f58563          	beq	a1,a5,800033b6 <cleanup_stdio+0x26>
800033b0:	8522                	mv	a0,s0
800033b2:	03f000ef          	jal	80003bf0 <_fflush_r>
800033b6:	444c                	lw	a1,12(s0)
800033b8:	06018793          	add	a5,gp,96 # 90000a28 <__global_pointer$+0x60>
800033bc:	00f58863          	beq	a1,a5,800033cc <cleanup_stdio+0x3c>
800033c0:	8522                	mv	a0,s0
800033c2:	4402                	lw	s0,0(sp)
800033c4:	4092                	lw	ra,4(sp)
800033c6:	0121                	add	sp,sp,8
800033c8:	0290006f          	j	80003bf0 <_fflush_r>
800033cc:	4092                	lw	ra,4(sp)
800033ce:	4402                	lw	s0,0(sp)
800033d0:	0121                	add	sp,sp,8
800033d2:	8082                	ret

800033d4 <global_stdio_init.part.0>:
global_stdio_init.part.0():
800033d4:	1171                	add	sp,sp,-4
800033d6:	00000797          	auipc	a5,0x0
800033da:	fa078793          	add	a5,a5,-96 # 80003376 <stdio_exit_handler>
800033de:	4601                	li	a2,0
800033e0:	4591                	li	a1,4
800033e2:	f9018513          	add	a0,gp,-112 # 90000958 <__sf>
800033e6:	c006                	sw	ra,0(sp)
800033e8:	f0f1a223          	sw	a5,-252(gp) # 900008cc <__stdio_exit_handler>
800033ec:	3dfd                	jal	800032ea <std>
800033ee:	4605                	li	a2,1
800033f0:	45a5                	li	a1,9
800033f2:	ff818513          	add	a0,gp,-8 # 900009c0 <__sf+0x68>
800033f6:	3dd5                	jal	800032ea <std>
800033f8:	4082                	lw	ra,0(sp)
800033fa:	4609                	li	a2,2
800033fc:	45c9                	li	a1,18
800033fe:	06018513          	add	a0,gp,96 # 90000a28 <__global_pointer$+0x60>
80003402:	0111                	add	sp,sp,4
80003404:	b5dd                	j	800032ea <std>

80003406 <__sfp_lock_acquire>:
__sfp_lock_acquire():
80003406:	f0c18513          	add	a0,gp,-244 # 900008d4 <__lock___sfp_recursive_mutex>
8000340a:	a6b5                	j	80003776 <__retarget_lock_acquire_recursive>

8000340c <__sfp_lock_release>:
__sfp_lock_release():
8000340c:	f0c18513          	add	a0,gp,-244 # 900008d4 <__lock___sfp_recursive_mutex>
80003410:	a6a5                	j	80003778 <__retarget_lock_release_recursive>

80003412 <__sinit>:
__sinit():
80003412:	1161                	add	sp,sp,-8
80003414:	c022                	sw	s0,0(sp)
80003416:	c206                	sw	ra,4(sp)
80003418:	842a                	mv	s0,a0
8000341a:	37f5                	jal	80003406 <__sfp_lock_acquire>
8000341c:	501c                	lw	a5,32(s0)
8000341e:	c789                	beqz	a5,80003428 <__sinit+0x16>
80003420:	4402                	lw	s0,0(sp)
80003422:	4092                	lw	ra,4(sp)
80003424:	0121                	add	sp,sp,8
80003426:	b7dd                	j	8000340c <__sfp_lock_release>
80003428:	00000797          	auipc	a5,0x0
8000342c:	f6878793          	add	a5,a5,-152 # 80003390 <cleanup_stdio>
80003430:	d01c                	sw	a5,32(s0)
80003432:	f041a783          	lw	a5,-252(gp) # 900008cc <__stdio_exit_handler>
80003436:	f7ed                	bnez	a5,80003420 <__sinit+0xe>
80003438:	3f71                	jal	800033d4 <global_stdio_init.part.0>
8000343a:	b7dd                	j	80003420 <__sinit+0xe>

8000343c <_fwalk_sglue>:
_fwalk_sglue():
8000343c:	1111                	add	sp,sp,-28
8000343e:	ca22                	sw	s0,20(sp)
80003440:	c826                	sw	s1,16(sp)
80003442:	cc06                	sw	ra,24(sp)
80003444:	c02a                	sw	a0,0(sp)
80003446:	872e                	mv	a4,a1
80003448:	8432                	mv	s0,a2
8000344a:	4481                	li	s1,0
8000344c:	440c                	lw	a1,8(s0)
8000344e:	4054                	lw	a3,4(s0)
80003450:	16fd                	add	a3,a3,-1
80003452:	0006da63          	bgez	a3,80003466 <_fwalk_sglue+0x2a>
80003456:	4000                	lw	s0,0(s0)
80003458:	f875                	bnez	s0,8000344c <_fwalk_sglue+0x10>
8000345a:	40e2                	lw	ra,24(sp)
8000345c:	4452                	lw	s0,20(sp)
8000345e:	8526                	mv	a0,s1
80003460:	44c2                	lw	s1,16(sp)
80003462:	0171                	add	sp,sp,28
80003464:	8082                	ret
80003466:	00c5d503          	lhu	a0,12(a1)
8000346a:	4605                	li	a2,1
8000346c:	02a67063          	bgeu	a2,a0,8000348c <_fwalk_sglue+0x50>
80003470:	00e59503          	lh	a0,14(a1)
80003474:	567d                	li	a2,-1
80003476:	00c50b63          	beq	a0,a2,8000348c <_fwalk_sglue+0x50>
8000347a:	4502                	lw	a0,0(sp)
8000347c:	c636                	sw	a3,12(sp)
8000347e:	c42e                	sw	a1,8(sp)
80003480:	c23a                	sw	a4,4(sp)
80003482:	9702                	jalr	a4
80003484:	8cc9                	or	s1,s1,a0
80003486:	46b2                	lw	a3,12(sp)
80003488:	45a2                	lw	a1,8(sp)
8000348a:	4712                	lw	a4,4(sp)
8000348c:	06858593          	add	a1,a1,104
80003490:	b7c1                	j	80003450 <_fwalk_sglue+0x14>

80003492 <__sread>:
__sread():
80003492:	1161                	add	sp,sp,-8
80003494:	c022                	sw	s0,0(sp)
80003496:	842e                	mv	s0,a1
80003498:	00e59583          	lh	a1,14(a1)
8000349c:	c206                	sw	ra,4(sp)
8000349e:	2c99                	jal	800036f4 <_read_r>
800034a0:	00054963          	bltz	a0,800034b2 <__sread+0x20>
800034a4:	487c                	lw	a5,84(s0)
800034a6:	97aa                	add	a5,a5,a0
800034a8:	c87c                	sw	a5,84(s0)
800034aa:	4092                	lw	ra,4(sp)
800034ac:	4402                	lw	s0,0(sp)
800034ae:	0121                	add	sp,sp,8
800034b0:	8082                	ret
800034b2:	00c45783          	lhu	a5,12(s0)
800034b6:	777d                	lui	a4,0xfffff
800034b8:	177d                	add	a4,a4,-1 # ffffefff <_sp+0x6ffeefff>
800034ba:	8ff9                	and	a5,a5,a4
800034bc:	00f41623          	sh	a5,12(s0)
800034c0:	b7ed                	j	800034aa <__sread+0x18>

800034c2 <__swrite>:
__swrite():
800034c2:	00c5d703          	lhu	a4,12(a1)
800034c6:	1131                	add	sp,sp,-20
800034c8:	c622                	sw	s0,12(sp)
800034ca:	c426                	sw	s1,8(sp)
800034cc:	c806                	sw	ra,16(sp)
800034ce:	c02a                	sw	a0,0(sp)
800034d0:	c232                	sw	a2,4(sp)
800034d2:	10077713          	and	a4,a4,256
800034d6:	842e                	mv	s0,a1
800034d8:	84b6                	mv	s1,a3
800034da:	c711                	beqz	a4,800034e6 <__swrite+0x24>
800034dc:	00e59583          	lh	a1,14(a1)
800034e0:	4689                	li	a3,2
800034e2:	4601                	li	a2,0
800034e4:	22d5                	jal	800036c8 <_lseek_r>
800034e6:	00c45703          	lhu	a4,12(s0)
800034ea:	76fd                	lui	a3,0xfffff
800034ec:	16fd                	add	a3,a3,-1 # ffffefff <_sp+0x6ffeefff>
800034ee:	00e41583          	lh	a1,14(s0)
800034f2:	8f75                	and	a4,a4,a3
800034f4:	00e41623          	sh	a4,12(s0)
800034f8:	4432                	lw	s0,12(sp)
800034fa:	4612                	lw	a2,4(sp)
800034fc:	4502                	lw	a0,0(sp)
800034fe:	40c2                	lw	ra,16(sp)
80003500:	86a6                	mv	a3,s1
80003502:	44a2                	lw	s1,8(sp)
80003504:	0151                	add	sp,sp,20
80003506:	a489                	j	80003748 <_write_r>

80003508 <__sseek>:
__sseek():
80003508:	1161                	add	sp,sp,-8
8000350a:	c022                	sw	s0,0(sp)
8000350c:	842e                	mv	s0,a1
8000350e:	00e59583          	lh	a1,14(a1)
80003512:	c206                	sw	ra,4(sp)
80003514:	2a55                	jal	800036c8 <_lseek_r>
80003516:	577d                	li	a4,-1
80003518:	00c45783          	lhu	a5,12(s0)
8000351c:	00e51b63          	bne	a0,a4,80003532 <__sseek+0x2a>
80003520:	777d                	lui	a4,0xfffff
80003522:	177d                	add	a4,a4,-1 # ffffefff <_sp+0x6ffeefff>
80003524:	8ff9                	and	a5,a5,a4
80003526:	00f41623          	sh	a5,12(s0)
8000352a:	4092                	lw	ra,4(sp)
8000352c:	4402                	lw	s0,0(sp)
8000352e:	0121                	add	sp,sp,8
80003530:	8082                	ret
80003532:	6705                	lui	a4,0x1
80003534:	8fd9                	or	a5,a5,a4
80003536:	00f41623          	sh	a5,12(s0)
8000353a:	c868                	sw	a0,84(s0)
8000353c:	b7fd                	j	8000352a <__sseek+0x22>

8000353e <__sclose>:
__sclose():
8000353e:	00e59583          	lh	a1,14(a1)
80003542:	aab9                	j	800036a0 <_close_r>

80003544 <__swbuf_r>:
__swbuf_r():
80003544:	1131                	add	sp,sp,-20
80003546:	c622                	sw	s0,12(sp)
80003548:	c426                	sw	s1,8(sp)
8000354a:	c806                	sw	ra,16(sp)
8000354c:	842e                	mv	s0,a1
8000354e:	84aa                	mv	s1,a0
80003550:	85b2                	mv	a1,a2
80003552:	c511                	beqz	a0,8000355e <__swbuf_r+0x1a>
80003554:	511c                	lw	a5,32(a0)
80003556:	e781                	bnez	a5,8000355e <__swbuf_r+0x1a>
80003558:	c032                	sw	a2,0(sp)
8000355a:	3d65                	jal	80003412 <__sinit>
8000355c:	4582                	lw	a1,0(sp)
8000355e:	4d9c                	lw	a5,24(a1)
80003560:	c59c                	sw	a5,8(a1)
80003562:	00c5d783          	lhu	a5,12(a1)
80003566:	8ba1                	and	a5,a5,8
80003568:	c399                	beqz	a5,8000356e <__swbuf_r+0x2a>
8000356a:	499c                	lw	a5,16(a1)
8000356c:	ef89                	bnez	a5,80003586 <__swbuf_r+0x42>
8000356e:	8526                	mv	a0,s1
80003570:	c02e                	sw	a1,0(sp)
80003572:	209d                	jal	800035d8 <__swsetup_r>
80003574:	4582                	lw	a1,0(sp)
80003576:	c901                	beqz	a0,80003586 <__swbuf_r+0x42>
80003578:	547d                	li	s0,-1
8000357a:	8522                	mv	a0,s0
8000357c:	40c2                	lw	ra,16(sp)
8000357e:	4432                	lw	s0,12(sp)
80003580:	44a2                	lw	s1,8(sp)
80003582:	0151                	add	sp,sp,20
80003584:	8082                	ret
80003586:	499c                	lw	a5,16(a1)
80003588:	4188                	lw	a0,0(a1)
8000358a:	8d1d                	sub	a0,a0,a5
8000358c:	49dc                	lw	a5,20(a1)
8000358e:	0ff47713          	zext.b	a4,s0
80003592:	0ff47413          	zext.b	s0,s0
80003596:	00f54963          	blt	a0,a5,800035a8 <__swbuf_r+0x64>
8000359a:	8526                	mv	a0,s1
8000359c:	c23a                	sw	a4,4(sp)
8000359e:	c02e                	sw	a1,0(sp)
800035a0:	2d81                	jal	80003bf0 <_fflush_r>
800035a2:	4582                	lw	a1,0(sp)
800035a4:	4712                	lw	a4,4(sp)
800035a6:	f969                	bnez	a0,80003578 <__swbuf_r+0x34>
800035a8:	459c                	lw	a5,8(a1)
800035aa:	17fd                	add	a5,a5,-1
800035ac:	c59c                	sw	a5,8(a1)
800035ae:	419c                	lw	a5,0(a1)
800035b0:	00178693          	add	a3,a5,1
800035b4:	c194                	sw	a3,0(a1)
800035b6:	00e78023          	sb	a4,0(a5)
800035ba:	0505                	add	a0,a0,1
800035bc:	49dc                	lw	a5,20(a1)
800035be:	00a78963          	beq	a5,a0,800035d0 <__swbuf_r+0x8c>
800035c2:	00c5d783          	lhu	a5,12(a1)
800035c6:	8b85                	and	a5,a5,1
800035c8:	dbcd                	beqz	a5,8000357a <__swbuf_r+0x36>
800035ca:	47a9                	li	a5,10
800035cc:	faf417e3          	bne	s0,a5,8000357a <__swbuf_r+0x36>
800035d0:	8526                	mv	a0,s1
800035d2:	2d39                	jal	80003bf0 <_fflush_r>
800035d4:	d15d                	beqz	a0,8000357a <__swbuf_r+0x36>
800035d6:	b74d                	j	80003578 <__swbuf_r+0x34>

800035d8 <__swsetup_r>:
__swsetup_r():
800035d8:	1151                	add	sp,sp,-12
800035da:	c026                	sw	s1,0(sp)
800035dc:	84aa                	mv	s1,a0
800035de:	0fffd517          	auipc	a0,0xfffd
800035e2:	bf252503          	lw	a0,-1038(a0) # 900001d0 <_impure_ptr>
800035e6:	c222                	sw	s0,4(sp)
800035e8:	c406                	sw	ra,8(sp)
800035ea:	842e                	mv	s0,a1
800035ec:	c501                	beqz	a0,800035f4 <__swsetup_r+0x1c>
800035ee:	511c                	lw	a5,32(a0)
800035f0:	e391                	bnez	a5,800035f4 <__swsetup_r+0x1c>
800035f2:	3505                	jal	80003412 <__sinit>
800035f4:	00c41783          	lh	a5,12(s0)
800035f8:	0087f713          	and	a4,a5,8
800035fc:	eb21                	bnez	a4,8000364c <__swsetup_r+0x74>
800035fe:	0107f713          	and	a4,a5,16
80003602:	eb09                	bnez	a4,80003614 <__swsetup_r+0x3c>
80003604:	4725                	li	a4,9
80003606:	c098                	sw	a4,0(s1)
80003608:	0407e793          	or	a5,a5,64
8000360c:	00f41623          	sh	a5,12(s0)
80003610:	557d                	li	a0,-1
80003612:	a89d                	j	80003688 <__swsetup_r+0xb0>
80003614:	8b91                	and	a5,a5,4
80003616:	c78d                	beqz	a5,80003640 <__swsetup_r+0x68>
80003618:	584c                	lw	a1,52(s0)
8000361a:	c989                	beqz	a1,8000362c <__swsetup_r+0x54>
8000361c:	04440793          	add	a5,s0,68
80003620:	00f58463          	beq	a1,a5,80003628 <__swsetup_r+0x50>
80003624:	8526                	mv	a0,s1
80003626:	2e79                	jal	800039c4 <_free_r>
80003628:	02042a23          	sw	zero,52(s0)
8000362c:	00c45783          	lhu	a5,12(s0)
80003630:	00042223          	sw	zero,4(s0)
80003634:	fdb7f793          	and	a5,a5,-37
80003638:	00f41623          	sh	a5,12(s0)
8000363c:	481c                	lw	a5,16(s0)
8000363e:	c01c                	sw	a5,0(s0)
80003640:	00c45783          	lhu	a5,12(s0)
80003644:	0087e793          	or	a5,a5,8
80003648:	00f41623          	sh	a5,12(s0)
8000364c:	481c                	lw	a5,16(s0)
8000364e:	ef81                	bnez	a5,80003666 <__swsetup_r+0x8e>
80003650:	00c45783          	lhu	a5,12(s0)
80003654:	20000713          	li	a4,512
80003658:	2807f793          	and	a5,a5,640
8000365c:	00e78563          	beq	a5,a4,80003666 <__swsetup_r+0x8e>
80003660:	85a2                	mv	a1,s0
80003662:	8526                	mv	a0,s1
80003664:	2d8d                	jal	80003cd6 <__smakebuf_r>
80003666:	00c41783          	lh	a5,12(s0)
8000366a:	0017f713          	and	a4,a5,1
8000366e:	c315                	beqz	a4,80003692 <__swsetup_r+0xba>
80003670:	4858                	lw	a4,20(s0)
80003672:	40e00733          	neg	a4,a4
80003676:	00042423          	sw	zero,8(s0)
8000367a:	cc18                	sw	a4,24(s0)
8000367c:	4818                	lw	a4,16(s0)
8000367e:	4501                	li	a0,0
80003680:	e701                	bnez	a4,80003688 <__swsetup_r+0xb0>
80003682:	0807f713          	and	a4,a5,128
80003686:	f349                	bnez	a4,80003608 <__swsetup_r+0x30>
80003688:	40a2                	lw	ra,8(sp)
8000368a:	4412                	lw	s0,4(sp)
8000368c:	4482                	lw	s1,0(sp)
8000368e:	0131                	add	sp,sp,12
80003690:	8082                	ret
80003692:	0027f713          	and	a4,a5,2
80003696:	4681                	li	a3,0
80003698:	e311                	bnez	a4,8000369c <__swsetup_r+0xc4>
8000369a:	4854                	lw	a3,20(s0)
8000369c:	c414                	sw	a3,8(s0)
8000369e:	bff9                	j	8000367c <__swsetup_r+0xa4>

800036a0 <_close_r>:
_close_r():
800036a0:	1161                	add	sp,sp,-8
800036a2:	c022                	sw	s0,0(sp)
800036a4:	842a                	mv	s0,a0
800036a6:	852e                	mv	a0,a1
800036a8:	ee01ac23          	sw	zero,-264(gp) # 900008c0 <errno>
800036ac:	c206                	sw	ra,4(sp)
800036ae:	c2bfc0ef          	jal	800002d8 <_close>
800036b2:	57fd                	li	a5,-1
800036b4:	00f51663          	bne	a0,a5,800036c0 <_close_r+0x20>
800036b8:	ef81a783          	lw	a5,-264(gp) # 900008c0 <errno>
800036bc:	c391                	beqz	a5,800036c0 <_close_r+0x20>
800036be:	c01c                	sw	a5,0(s0)
800036c0:	4092                	lw	ra,4(sp)
800036c2:	4402                	lw	s0,0(sp)
800036c4:	0121                	add	sp,sp,8
800036c6:	8082                	ret

800036c8 <_lseek_r>:
_lseek_r():
800036c8:	1161                	add	sp,sp,-8
800036ca:	c022                	sw	s0,0(sp)
800036cc:	842a                	mv	s0,a0
800036ce:	852e                	mv	a0,a1
800036d0:	85b2                	mv	a1,a2
800036d2:	8636                	mv	a2,a3
800036d4:	ee01ac23          	sw	zero,-264(gp) # 900008c0 <errno>
800036d8:	c206                	sw	ra,4(sp)
800036da:	c87fc0ef          	jal	80000360 <_lseek>
800036de:	57fd                	li	a5,-1
800036e0:	00f51663          	bne	a0,a5,800036ec <_lseek_r+0x24>
800036e4:	ef81a783          	lw	a5,-264(gp) # 900008c0 <errno>
800036e8:	c391                	beqz	a5,800036ec <_lseek_r+0x24>
800036ea:	c01c                	sw	a5,0(s0)
800036ec:	4092                	lw	ra,4(sp)
800036ee:	4402                	lw	s0,0(sp)
800036f0:	0121                	add	sp,sp,8
800036f2:	8082                	ret

800036f4 <_read_r>:
_read_r():
800036f4:	1161                	add	sp,sp,-8
800036f6:	c022                	sw	s0,0(sp)
800036f8:	842a                	mv	s0,a0
800036fa:	852e                	mv	a0,a1
800036fc:	85b2                	mv	a1,a2
800036fe:	8636                	mv	a2,a3
80003700:	ee01ac23          	sw	zero,-264(gp) # 900008c0 <errno>
80003704:	c206                	sw	ra,4(sp)
80003706:	c63fc0ef          	jal	80000368 <_read>
8000370a:	57fd                	li	a5,-1
8000370c:	00f51663          	bne	a0,a5,80003718 <_read_r+0x24>
80003710:	ef81a783          	lw	a5,-264(gp) # 900008c0 <errno>
80003714:	c391                	beqz	a5,80003718 <_read_r+0x24>
80003716:	c01c                	sw	a5,0(s0)
80003718:	4092                	lw	ra,4(sp)
8000371a:	4402                	lw	s0,0(sp)
8000371c:	0121                	add	sp,sp,8
8000371e:	8082                	ret

80003720 <_sbrk_r>:
_sbrk_r():
80003720:	1161                	add	sp,sp,-8
80003722:	c022                	sw	s0,0(sp)
80003724:	842a                	mv	s0,a0
80003726:	852e                	mv	a0,a1
80003728:	ee01ac23          	sw	zero,-264(gp) # 900008c0 <errno>
8000372c:	c206                	sw	ra,4(sp)
8000372e:	e07fc0ef          	jal	80000534 <_sbrk>
80003732:	57fd                	li	a5,-1
80003734:	00f51663          	bne	a0,a5,80003740 <_sbrk_r+0x20>
80003738:	ef81a783          	lw	a5,-264(gp) # 900008c0 <errno>
8000373c:	c391                	beqz	a5,80003740 <_sbrk_r+0x20>
8000373e:	c01c                	sw	a5,0(s0)
80003740:	4092                	lw	ra,4(sp)
80003742:	4402                	lw	s0,0(sp)
80003744:	0121                	add	sp,sp,8
80003746:	8082                	ret

80003748 <_write_r>:
_write_r():
80003748:	1161                	add	sp,sp,-8
8000374a:	c022                	sw	s0,0(sp)
8000374c:	842a                	mv	s0,a0
8000374e:	852e                	mv	a0,a1
80003750:	85b2                	mv	a1,a2
80003752:	8636                	mv	a2,a3
80003754:	ee01ac23          	sw	zero,-264(gp) # 900008c0 <errno>
80003758:	c206                	sw	ra,4(sp)
8000375a:	e0bfc0ef          	jal	80000564 <_write>
8000375e:	57fd                	li	a5,-1
80003760:	00f51663          	bne	a0,a5,8000376c <_write_r+0x24>
80003764:	ef81a783          	lw	a5,-264(gp) # 900008c0 <errno>
80003768:	c391                	beqz	a5,8000376c <_write_r+0x24>
8000376a:	c01c                	sw	a5,0(s0)
8000376c:	4092                	lw	ra,4(sp)
8000376e:	4402                	lw	s0,0(sp)
80003770:	0121                	add	sp,sp,8
80003772:	8082                	ret

80003774 <__retarget_lock_init_recursive>:
__retarget_lock_init_recursive():
80003774:	8082                	ret

80003776 <__retarget_lock_acquire_recursive>:
__retarget_lock_acquire_recursive():
80003776:	8082                	ret

80003778 <__retarget_lock_release_recursive>:
__retarget_lock_release_recursive():
80003778:	8082                	ret

8000377a <memset>:
memset():
8000377a:	433d                	li	t1,15
8000377c:	872a                	mv	a4,a0
8000377e:	02c37363          	bgeu	t1,a2,800037a4 <memset+0x2a>
80003782:	00f77793          	and	a5,a4,15
80003786:	efbd                	bnez	a5,80003804 <memset+0x8a>
80003788:	e5ad                	bnez	a1,800037f2 <memset+0x78>
8000378a:	ff067693          	and	a3,a2,-16
8000378e:	8a3d                	and	a2,a2,15
80003790:	96ba                	add	a3,a3,a4
80003792:	c30c                	sw	a1,0(a4)
80003794:	c34c                	sw	a1,4(a4)
80003796:	c70c                	sw	a1,8(a4)
80003798:	c74c                	sw	a1,12(a4)
8000379a:	0741                	add	a4,a4,16 # 1010 <__HEAP_SIZE+0x810>
8000379c:	fed76be3          	bltu	a4,a3,80003792 <memset+0x18>
800037a0:	e211                	bnez	a2,800037a4 <memset+0x2a>
800037a2:	8082                	ret
800037a4:	40c306b3          	sub	a3,t1,a2
800037a8:	068a                	sll	a3,a3,0x2
800037aa:	00000297          	auipc	t0,0x0
800037ae:	9696                	add	a3,a3,t0
800037b0:	00a68067          	jr	10(a3)
800037b4:	00b70723          	sb	a1,14(a4)
800037b8:	00b706a3          	sb	a1,13(a4)
800037bc:	00b70623          	sb	a1,12(a4)
800037c0:	00b705a3          	sb	a1,11(a4)
800037c4:	00b70523          	sb	a1,10(a4)
800037c8:	00b704a3          	sb	a1,9(a4)
800037cc:	00b70423          	sb	a1,8(a4)
800037d0:	00b703a3          	sb	a1,7(a4)
800037d4:	00b70323          	sb	a1,6(a4)
800037d8:	00b702a3          	sb	a1,5(a4)
800037dc:	00b70223          	sb	a1,4(a4)
800037e0:	00b701a3          	sb	a1,3(a4)
800037e4:	00b70123          	sb	a1,2(a4)
800037e8:	00b700a3          	sb	a1,1(a4)
800037ec:	00b70023          	sb	a1,0(a4)
800037f0:	8082                	ret
800037f2:	0ff5f593          	zext.b	a1,a1
800037f6:	00859693          	sll	a3,a1,0x8
800037fa:	8dd5                	or	a1,a1,a3
800037fc:	01059693          	sll	a3,a1,0x10
80003800:	8dd5                	or	a1,a1,a3
80003802:	b761                	j	8000378a <memset+0x10>
80003804:	00279693          	sll	a3,a5,0x2
80003808:	00000297          	auipc	t0,0x0
8000380c:	9696                	add	a3,a3,t0
8000380e:	8286                	mv	t0,ra
80003810:	fa8680e7          	jalr	-88(a3)
80003814:	8096                	mv	ra,t0
80003816:	17c1                	add	a5,a5,-16
80003818:	8f1d                	sub	a4,a4,a5
8000381a:	963e                	add	a2,a2,a5
8000381c:	f8c374e3          	bgeu	t1,a2,800037a4 <memset+0x2a>
80003820:	b7a5                	j	80003788 <memset+0xe>

80003822 <memcpy>:
memcpy():
80003822:	00a5c7b3          	xor	a5,a1,a0
80003826:	8b8d                	and	a5,a5,3
80003828:	00c506b3          	add	a3,a0,a2
8000382c:	e781                	bnez	a5,80003834 <memcpy+0x12>
8000382e:	478d                	li	a5,3
80003830:	02c7e263          	bltu	a5,a2,80003854 <memcpy+0x32>
80003834:	87aa                	mv	a5,a0
80003836:	0ed56263          	bltu	a0,a3,8000391a <memcpy+0xf8>
8000383a:	8082                	ret
8000383c:	0005c703          	lbu	a4,0(a1)
80003840:	0785                	add	a5,a5,1
80003842:	0585                	add	a1,a1,1
80003844:	fee78fa3          	sb	a4,-1(a5)
80003848:	fed79ae3          	bne	a5,a3,8000383c <memcpy+0x1a>
8000384c:	4442                	lw	s0,16(sp)
8000384e:	44b2                	lw	s1,12(sp)
80003850:	0151                	add	sp,sp,20
80003852:	8082                	ret
80003854:	00357793          	and	a5,a0,3
80003858:	efb9                	bnez	a5,800038b6 <memcpy+0x94>
8000385a:	87aa                	mv	a5,a0
8000385c:	ffc6f713          	and	a4,a3,-4
80003860:	40f70333          	sub	t1,a4,a5
80003864:	02000613          	li	a2,32
80003868:	0a665c63          	bge	a2,t1,80003920 <memcpy+0xfe>
8000386c:	1131                	add	sp,sp,-20
8000386e:	c822                	sw	s0,16(sp)
80003870:	c626                	sw	s1,12(sp)
80003872:	c432                	sw	a2,8(sp)
80003874:	40f70633          	sub	a2,a4,a5
80003878:	4422                	lw	s0,8(sp)
8000387a:	04c44063          	blt	s0,a2,800038ba <memcpy+0x98>
8000387e:	863e                	mv	a2,a5
80003880:	832e                	mv	t1,a1
80003882:	06e66f63          	bltu	a2,a4,80003900 <memcpy+0xde>
80003886:	ffd78313          	add	t1,a5,-3
8000388a:	4601                	li	a2,0
8000388c:	00676663          	bltu	a4,t1,80003898 <memcpy+0x76>
80003890:	070d                	add	a4,a4,3
80003892:	8f1d                	sub	a4,a4,a5
80003894:	ffc77613          	and	a2,a4,-4
80003898:	97b2                	add	a5,a5,a2
8000389a:	95b2                	add	a1,a1,a2
8000389c:	fad7f8e3          	bgeu	a5,a3,8000384c <memcpy+0x2a>
800038a0:	b765                	j	80003848 <memcpy+0x26>
800038a2:	0005c703          	lbu	a4,0(a1)
800038a6:	0785                	add	a5,a5,1
800038a8:	0585                	add	a1,a1,1
800038aa:	fee78fa3          	sb	a4,-1(a5)
800038ae:	0037f713          	and	a4,a5,3
800038b2:	fb65                	bnez	a4,800038a2 <memcpy+0x80>
800038b4:	b765                	j	8000385c <memcpy+0x3a>
800038b6:	87aa                	mv	a5,a0
800038b8:	bfdd                	j	800038ae <memcpy+0x8c>
800038ba:	4990                	lw	a2,16(a1)
800038bc:	41c0                	lw	s0,4(a1)
800038be:	c032                	sw	a2,0(sp)
800038c0:	49d0                	lw	a2,20(a1)
800038c2:	c3c0                	sw	s0,4(a5)
800038c4:	c232                	sw	a2,4(sp)
800038c6:	4402                	lw	s0,0(sp)
800038c8:	4184                	lw	s1,0(a1)
800038ca:	0085a383          	lw	t2,8(a1)
800038ce:	00c5a283          	lw	t0,12(a1)
800038d2:	0185a303          	lw	t1,24(a1)
800038d6:	4dd0                	lw	a2,28(a1)
800038d8:	cb80                	sw	s0,16(a5)
800038da:	02458593          	add	a1,a1,36
800038de:	4412                	lw	s0,4(sp)
800038e0:	cfd0                	sw	a2,28(a5)
800038e2:	c384                	sw	s1,0(a5)
800038e4:	0077a423          	sw	t2,8(a5)
800038e8:	0057a623          	sw	t0,12(a5)
800038ec:	cbc0                	sw	s0,20(a5)
800038ee:	0067ac23          	sw	t1,24(a5)
800038f2:	ffc5a603          	lw	a2,-4(a1)
800038f6:	02478793          	add	a5,a5,36
800038fa:	fec7ae23          	sw	a2,-4(a5)
800038fe:	bf9d                	j	80003874 <memcpy+0x52>
80003900:	00032283          	lw	t0,0(t1)
80003904:	00562023          	sw	t0,0(a2)
80003908:	0311                	add	t1,t1,4
8000390a:	0611                	add	a2,a2,4
8000390c:	bf9d                	j	80003882 <memcpy+0x60>
8000390e:	0005c703          	lbu	a4,0(a1)
80003912:	0785                	add	a5,a5,1
80003914:	0585                	add	a1,a1,1
80003916:	fee78fa3          	sb	a4,-1(a5)
8000391a:	fed79ae3          	bne	a5,a3,8000390e <memcpy+0xec>
8000391e:	8082                	ret
80003920:	863e                	mv	a2,a5
80003922:	832e                	mv	t1,a1
80003924:	02e66063          	bltu	a2,a4,80003944 <memcpy+0x122>
80003928:	ffd78313          	add	t1,a5,-3
8000392c:	4601                	li	a2,0
8000392e:	00676663          	bltu	a4,t1,8000393a <memcpy+0x118>
80003932:	070d                	add	a4,a4,3
80003934:	8f1d                	sub	a4,a4,a5
80003936:	ffc77613          	and	a2,a4,-4
8000393a:	97b2                	add	a5,a5,a2
8000393c:	95b2                	add	a1,a1,a2
8000393e:	fcd7eee3          	bltu	a5,a3,8000391a <memcpy+0xf8>
80003942:	8082                	ret
80003944:	00032283          	lw	t0,0(t1)
80003948:	00562023          	sw	t0,0(a2)
8000394c:	0311                	add	t1,t1,4
8000394e:	0611                	add	a2,a2,4
80003950:	bfd1                	j	80003924 <memcpy+0x102>

80003952 <__assert_func>:
__assert_func():
80003952:	0fffd797          	auipc	a5,0xfffd
80003956:	87e7a783          	lw	a5,-1922(a5) # 900001d0 <_impure_ptr>
8000395a:	1161                	add	sp,sp,-8
8000395c:	8332                	mv	t1,a2
8000395e:	c206                	sw	ra,4(sp)
80003960:	82aa                	mv	t0,a0
80003962:	872e                	mv	a4,a1
80003964:	47c8                	lw	a0,12(a5)
80003966:	8636                	mv	a2,a3
80003968:	0fffd797          	auipc	a5,0xfffd
8000396c:	cd478793          	add	a5,a5,-812 # 9000063c <__mprec_tens+0xec>
80003970:	00031763          	bnez	t1,8000397e <__assert_func+0x2c>
80003974:	0fffd797          	auipc	a5,0xfffd
80003978:	a3078793          	add	a5,a5,-1488 # 900003a4 <_impure_ptr+0x1d4>
8000397c:	833e                	mv	t1,a5
8000397e:	c01a                	sw	t1,0(sp)
80003980:	8696                	mv	a3,t0
80003982:	0fffd597          	auipc	a1,0xfffd
80003986:	cca58593          	add	a1,a1,-822 # 9000064c <__mprec_tens+0xfc>
8000398a:	24d9                	jal	80003c50 <fiprintf>
8000398c:	2135                	jal	80003db8 <abort>

8000398e <_calloc_r>:
_calloc_r():
8000398e:	02c5b733          	mulhu	a4,a1,a2
80003992:	1151                	add	sp,sp,-12
80003994:	c406                	sw	ra,8(sp)
80003996:	c222                	sw	s0,4(sp)
80003998:	02c58633          	mul	a2,a1,a2
8000399c:	cb09                	beqz	a4,800039ae <_calloc_r+0x20>
8000399e:	4731                	li	a4,12
800039a0:	c118                	sw	a4,0(a0)
800039a2:	4401                	li	s0,0
800039a4:	8522                	mv	a0,s0
800039a6:	40a2                	lw	ra,8(sp)
800039a8:	4412                	lw	s0,4(sp)
800039aa:	0131                	add	sp,sp,12
800039ac:	8082                	ret
800039ae:	85b2                	mv	a1,a2
800039b0:	c032                	sw	a2,0(sp)
800039b2:	cb7fe0ef          	jal	80002668 <_malloc_r>
800039b6:	842a                	mv	s0,a0
800039b8:	d575                	beqz	a0,800039a4 <_calloc_r+0x16>
800039ba:	4602                	lw	a2,0(sp)
800039bc:	4581                	li	a1,0
800039be:	dbdff0ef          	jal	8000377a <memset>
800039c2:	b7cd                	j	800039a4 <_calloc_r+0x16>

800039c4 <_free_r>:
_free_r():
800039c4:	c1c5                	beqz	a1,80003a64 <_free_r+0xa0>
800039c6:	1151                	add	sp,sp,-12
800039c8:	c222                	sw	s0,4(sp)
800039ca:	c406                	sw	ra,8(sp)
800039cc:	ffc5a783          	lw	a5,-4(a1)
800039d0:	ffc58413          	add	s0,a1,-4
800039d4:	0007d363          	bgez	a5,800039da <_free_r+0x16>
800039d8:	943e                	add	s0,s0,a5
800039da:	c02a                	sw	a0,0(sp)
800039dc:	da7fe0ef          	jal	80002782 <__malloc_lock>
800039e0:	f0018713          	add	a4,gp,-256 # 900008c8 <__malloc_free_list>
800039e4:	431c                	lw	a5,0(a4)
800039e6:	4502                	lw	a0,0(sp)
800039e8:	eb89                	bnez	a5,800039fa <_free_r+0x36>
800039ea:	00042223          	sw	zero,4(s0)
800039ee:	c300                	sw	s0,0(a4)
800039f0:	4412                	lw	s0,4(sp)
800039f2:	40a2                	lw	ra,8(sp)
800039f4:	0131                	add	sp,sp,12
800039f6:	d95fe06f          	j	8000278a <__malloc_unlock>
800039fa:	00f47d63          	bgeu	s0,a5,80003a14 <_free_r+0x50>
800039fe:	4010                	lw	a2,0(s0)
80003a00:	00c406b3          	add	a3,s0,a2
80003a04:	00d79663          	bne	a5,a3,80003a10 <_free_r+0x4c>
80003a08:	4394                	lw	a3,0(a5)
80003a0a:	96b2                	add	a3,a3,a2
80003a0c:	c014                	sw	a3,0(s0)
80003a0e:	43dc                	lw	a5,4(a5)
80003a10:	c05c                	sw	a5,4(s0)
80003a12:	bff1                	j	800039ee <_free_r+0x2a>
80003a14:	873e                	mv	a4,a5
80003a16:	43dc                	lw	a5,4(a5)
80003a18:	c399                	beqz	a5,80003a1e <_free_r+0x5a>
80003a1a:	fef47de3          	bgeu	s0,a5,80003a14 <_free_r+0x50>
80003a1e:	4314                	lw	a3,0(a4)
80003a20:	00d70633          	add	a2,a4,a3
80003a24:	00861f63          	bne	a2,s0,80003a42 <_free_r+0x7e>
80003a28:	4010                	lw	a2,0(s0)
80003a2a:	96b2                	add	a3,a3,a2
80003a2c:	c314                	sw	a3,0(a4)
80003a2e:	00d70633          	add	a2,a4,a3
80003a32:	fac79fe3          	bne	a5,a2,800039f0 <_free_r+0x2c>
80003a36:	4390                	lw	a2,0(a5)
80003a38:	96b2                	add	a3,a3,a2
80003a3a:	43dc                	lw	a5,4(a5)
80003a3c:	c314                	sw	a3,0(a4)
80003a3e:	c35c                	sw	a5,4(a4)
80003a40:	bf45                	j	800039f0 <_free_r+0x2c>
80003a42:	00c47563          	bgeu	s0,a2,80003a4c <_free_r+0x88>
80003a46:	47b1                	li	a5,12
80003a48:	c11c                	sw	a5,0(a0)
80003a4a:	b75d                	j	800039f0 <_free_r+0x2c>
80003a4c:	4010                	lw	a2,0(s0)
80003a4e:	00c406b3          	add	a3,s0,a2
80003a52:	00d79663          	bne	a5,a3,80003a5e <_free_r+0x9a>
80003a56:	4394                	lw	a3,0(a5)
80003a58:	96b2                	add	a3,a3,a2
80003a5a:	c014                	sw	a3,0(s0)
80003a5c:	43dc                	lw	a5,4(a5)
80003a5e:	c05c                	sw	a5,4(s0)
80003a60:	c340                	sw	s0,4(a4)
80003a62:	b779                	j	800039f0 <_free_r+0x2c>
80003a64:	8082                	ret

80003a66 <__ascii_mbtowc>:
__ascii_mbtowc():
80003a66:	ed99                	bnez	a1,80003a84 <__ascii_mbtowc+0x1e>
80003a68:	1171                	add	sp,sp,-4
80003a6a:	4501                	li	a0,0
80003a6c:	ca11                	beqz	a2,80003a80 <__ascii_mbtowc+0x1a>
80003a6e:	5579                	li	a0,-2
80003a70:	ca81                	beqz	a3,80003a80 <__ascii_mbtowc+0x1a>
80003a72:	00064783          	lbu	a5,0(a2)
80003a76:	00064503          	lbu	a0,0(a2)
80003a7a:	c03e                	sw	a5,0(sp)
80003a7c:	00a03533          	snez	a0,a0
80003a80:	0111                	add	sp,sp,4
80003a82:	8082                	ret
80003a84:	4501                	li	a0,0
80003a86:	ca19                	beqz	a2,80003a9c <__ascii_mbtowc+0x36>
80003a88:	5579                	li	a0,-2
80003a8a:	ca89                	beqz	a3,80003a9c <__ascii_mbtowc+0x36>
80003a8c:	00064783          	lbu	a5,0(a2)
80003a90:	c19c                	sw	a5,0(a1)
80003a92:	00064503          	lbu	a0,0(a2)
80003a96:	00a03533          	snez	a0,a0
80003a9a:	8082                	ret
80003a9c:	8082                	ret

80003a9e <__ascii_wctomb>:
__ascii_wctomb():
80003a9e:	cd91                	beqz	a1,80003aba <__ascii_wctomb+0x1c>
80003aa0:	0ff00793          	li	a5,255
80003aa4:	00c7f763          	bgeu	a5,a2,80003ab2 <__ascii_wctomb+0x14>
80003aa8:	08a00793          	li	a5,138
80003aac:	c11c                	sw	a5,0(a0)
80003aae:	557d                	li	a0,-1
80003ab0:	8082                	ret
80003ab2:	00c58023          	sb	a2,0(a1)
80003ab6:	4505                	li	a0,1
80003ab8:	8082                	ret
80003aba:	4501                	li	a0,0
80003abc:	8082                	ret

80003abe <__sflush_r>:
__sflush_r():
80003abe:	00c59703          	lh	a4,12(a1)
80003ac2:	1131                	add	sp,sp,-20
80003ac4:	c622                	sw	s0,12(sp)
80003ac6:	c806                	sw	ra,16(sp)
80003ac8:	c426                	sw	s1,8(sp)
80003aca:	00877693          	and	a3,a4,8
80003ace:	87aa                	mv	a5,a0
80003ad0:	842e                	mv	s0,a1
80003ad2:	eae9                	bnez	a3,80003ba4 <__sflush_r+0xe6>
80003ad4:	41d4                	lw	a3,4(a1)
80003ad6:	00d04563          	bgtz	a3,80003ae0 <__sflush_r+0x22>
80003ada:	41b4                	lw	a3,64(a1)
80003adc:	0ad05d63          	blez	a3,80003b96 <__sflush_r+0xd8>
80003ae0:	02c42303          	lw	t1,44(s0)
80003ae4:	0a030963          	beqz	t1,80003b96 <__sflush_r+0xd8>
80003ae8:	4384                	lw	s1,0(a5)
80003aea:	01371693          	sll	a3,a4,0x13
80003aee:	0007a023          	sw	zero,0(a5)
80003af2:	500c                	lw	a1,32(s0)
80003af4:	0606de63          	bgez	a3,80003b70 <__sflush_r+0xb2>
80003af8:	4870                	lw	a2,84(s0)
80003afa:	00c45703          	lhu	a4,12(s0)
80003afe:	8b11                	and	a4,a4,4
80003b00:	c719                	beqz	a4,80003b0e <__sflush_r+0x50>
80003b02:	4058                	lw	a4,4(s0)
80003b04:	8e19                	sub	a2,a2,a4
80003b06:	5858                	lw	a4,52(s0)
80003b08:	c319                	beqz	a4,80003b0e <__sflush_r+0x50>
80003b0a:	4038                	lw	a4,64(s0)
80003b0c:	8e19                	sub	a2,a2,a4
80003b0e:	5458                	lw	a4,44(s0)
80003b10:	4681                	li	a3,0
80003b12:	853e                	mv	a0,a5
80003b14:	500c                	lw	a1,32(s0)
80003b16:	c03e                	sw	a5,0(sp)
80003b18:	9702                	jalr	a4
80003b1a:	56fd                	li	a3,-1
80003b1c:	00c45703          	lhu	a4,12(s0)
80003b20:	4782                	lw	a5,0(sp)
80003b22:	00d51d63          	bne	a0,a3,80003b3c <__sflush_r+0x7e>
80003b26:	4390                	lw	a2,0(a5)
80003b28:	46f5                	li	a3,29
80003b2a:	06c6e863          	bltu	a3,a2,80003b9a <__sflush_r+0xdc>
80003b2e:	204006b7          	lui	a3,0x20400
80003b32:	0685                	add	a3,a3,1 # 20400001 <__HEAP_SIZE+0x203ff801>
80003b34:	00c6d6b3          	srl	a3,a3,a2
80003b38:	8a85                	and	a3,a3,1
80003b3a:	c2a5                	beqz	a3,80003b9a <__sflush_r+0xdc>
80003b3c:	4814                	lw	a3,16(s0)
80003b3e:	c014                	sw	a3,0(s0)
80003b40:	00042223          	sw	zero,4(s0)
80003b44:	01371693          	sll	a3,a4,0x13
80003b48:	0006d863          	bgez	a3,80003b58 <__sflush_r+0x9a>
80003b4c:	577d                	li	a4,-1
80003b4e:	00e51463          	bne	a0,a4,80003b56 <__sflush_r+0x98>
80003b52:	4398                	lw	a4,0(a5)
80003b54:	e311                	bnez	a4,80003b58 <__sflush_r+0x9a>
80003b56:	c868                	sw	a0,84(s0)
80003b58:	c384                	sw	s1,0(a5)
80003b5a:	584c                	lw	a1,52(s0)
80003b5c:	cd8d                	beqz	a1,80003b96 <__sflush_r+0xd8>
80003b5e:	04440713          	add	a4,s0,68
80003b62:	00e58463          	beq	a1,a4,80003b6a <__sflush_r+0xac>
80003b66:	853e                	mv	a0,a5
80003b68:	3db1                	jal	800039c4 <_free_r>
80003b6a:	02042a23          	sw	zero,52(s0)
80003b6e:	a025                	j	80003b96 <__sflush_r+0xd8>
80003b70:	4601                	li	a2,0
80003b72:	853e                	mv	a0,a5
80003b74:	4685                	li	a3,1
80003b76:	c03e                	sw	a5,0(sp)
80003b78:	9302                	jalr	t1
80003b7a:	577d                	li	a4,-1
80003b7c:	862a                	mv	a2,a0
80003b7e:	4782                	lw	a5,0(sp)
80003b80:	f6e51de3          	bne	a0,a4,80003afa <__sflush_r+0x3c>
80003b84:	4398                	lw	a4,0(a5)
80003b86:	db35                	beqz	a4,80003afa <__sflush_r+0x3c>
80003b88:	46f5                	li	a3,29
80003b8a:	00d70563          	beq	a4,a3,80003b94 <__sflush_r+0xd6>
80003b8e:	46d9                	li	a3,22
80003b90:	04d71163          	bne	a4,a3,80003bd2 <__sflush_r+0x114>
80003b94:	c384                	sw	s1,0(a5)
80003b96:	4501                	li	a0,0
80003b98:	a0a1                	j	80003be0 <__sflush_r+0x122>
80003b9a:	04076793          	or	a5,a4,64
80003b9e:	07c2                	sll	a5,a5,0x10
80003ba0:	87c1                	sra	a5,a5,0x10
80003ba2:	a825                	j	80003bda <__sflush_r+0x11c>
80003ba4:	4990                	lw	a2,16(a1)
80003ba6:	da65                	beqz	a2,80003b96 <__sflush_r+0xd8>
80003ba8:	4184                	lw	s1,0(a1)
80003baa:	8b0d                	and	a4,a4,3
80003bac:	c190                	sw	a2,0(a1)
80003bae:	8c91                	sub	s1,s1,a2
80003bb0:	4681                	li	a3,0
80003bb2:	e311                	bnez	a4,80003bb6 <__sflush_r+0xf8>
80003bb4:	49d4                	lw	a3,20(a1)
80003bb6:	c414                	sw	a3,8(s0)
80003bb8:	fc905fe3          	blez	s1,80003b96 <__sflush_r+0xd8>
80003bbc:	853e                	mv	a0,a5
80003bbe:	5418                	lw	a4,40(s0)
80003bc0:	86a6                	mv	a3,s1
80003bc2:	500c                	lw	a1,32(s0)
80003bc4:	c232                	sw	a2,4(sp)
80003bc6:	c03e                	sw	a5,0(sp)
80003bc8:	9702                	jalr	a4
80003bca:	4782                	lw	a5,0(sp)
80003bcc:	4612                	lw	a2,4(sp)
80003bce:	00a04e63          	bgtz	a0,80003bea <__sflush_r+0x12c>
80003bd2:	00c41783          	lh	a5,12(s0)
80003bd6:	0407e793          	or	a5,a5,64
80003bda:	00f41623          	sh	a5,12(s0)
80003bde:	557d                	li	a0,-1
80003be0:	40c2                	lw	ra,16(sp)
80003be2:	4432                	lw	s0,12(sp)
80003be4:	44a2                	lw	s1,8(sp)
80003be6:	0151                	add	sp,sp,20
80003be8:	8082                	ret
80003bea:	962a                	add	a2,a2,a0
80003bec:	8c89                	sub	s1,s1,a0
80003bee:	b7e9                	j	80003bb8 <__sflush_r+0xfa>

80003bf0 <_fflush_r>:
_fflush_r():
80003bf0:	1151                	add	sp,sp,-12
80003bf2:	c406                	sw	ra,8(sp)
80003bf4:	c222                	sw	s0,4(sp)
80003bf6:	c026                	sw	s1,0(sp)
80003bf8:	499c                	lw	a5,16(a1)
80003bfa:	eb81                	bnez	a5,80003c0a <_fflush_r+0x1a>
80003bfc:	4481                	li	s1,0
80003bfe:	40a2                	lw	ra,8(sp)
80003c00:	4412                	lw	s0,4(sp)
80003c02:	8526                	mv	a0,s1
80003c04:	4482                	lw	s1,0(sp)
80003c06:	0131                	add	sp,sp,12
80003c08:	8082                	ret
80003c0a:	84aa                	mv	s1,a0
80003c0c:	842e                	mv	s0,a1
80003c0e:	c509                	beqz	a0,80003c18 <_fflush_r+0x28>
80003c10:	511c                	lw	a5,32(a0)
80003c12:	e399                	bnez	a5,80003c18 <_fflush_r+0x28>
80003c14:	ffeff0ef          	jal	80003412 <__sinit>
80003c18:	00c41783          	lh	a5,12(s0)
80003c1c:	d3e5                	beqz	a5,80003bfc <_fflush_r+0xc>
80003c1e:	5078                	lw	a4,100(s0)
80003c20:	8b05                	and	a4,a4,1
80003c22:	e719                	bnez	a4,80003c30 <_fflush_r+0x40>
80003c24:	2007f793          	and	a5,a5,512
80003c28:	e781                	bnez	a5,80003c30 <_fflush_r+0x40>
80003c2a:	4c28                	lw	a0,88(s0)
80003c2c:	b4bff0ef          	jal	80003776 <__retarget_lock_acquire_recursive>
80003c30:	8526                	mv	a0,s1
80003c32:	85a2                	mv	a1,s0
80003c34:	3569                	jal	80003abe <__sflush_r>
80003c36:	507c                	lw	a5,100(s0)
80003c38:	8b85                	and	a5,a5,1
80003c3a:	84aa                	mv	s1,a0
80003c3c:	f3e9                	bnez	a5,80003bfe <_fflush_r+0xe>
80003c3e:	00c45783          	lhu	a5,12(s0)
80003c42:	2007f793          	and	a5,a5,512
80003c46:	ffc5                	bnez	a5,80003bfe <_fflush_r+0xe>
80003c48:	4c28                	lw	a0,88(s0)
80003c4a:	b2fff0ef          	jal	80003778 <__retarget_lock_release_recursive>
80003c4e:	bf45                	j	80003bfe <_fflush_r+0xe>

80003c50 <fiprintf>:
fprintf():
80003c50:	1121                	add	sp,sp,-24
80003c52:	c432                	sw	a2,8(sp)
80003c54:	862e                	mv	a2,a1
80003c56:	85aa                	mv	a1,a0
80003c58:	0fffc517          	auipc	a0,0xfffc
80003c5c:	57852503          	lw	a0,1400(a0) # 900001d0 <_impure_ptr>
80003c60:	c636                	sw	a3,12(sp)
80003c62:	0034                	add	a3,sp,8
80003c64:	c206                	sw	ra,4(sp)
80003c66:	c83a                	sw	a4,16(sp)
80003c68:	ca3e                	sw	a5,20(sp)
80003c6a:	c036                	sw	a3,0(sp)
80003c6c:	bc6ff0ef          	jal	80003032 <_vfiprintf_r>
80003c70:	4092                	lw	ra,4(sp)
80003c72:	0161                	add	sp,sp,24
80003c74:	8082                	ret

80003c76 <__swhatbuf_r>:
__swhatbuf_r():
80003c76:	87ae                	mv	a5,a1
80003c78:	00e59583          	lh	a1,14(a1)
80003c7c:	7159                	add	sp,sp,-112
80003c7e:	d2a6                	sw	s1,100(sp)
80003c80:	d686                	sw	ra,108(sp)
80003c82:	d4a2                	sw	s0,104(sp)
80003c84:	84b2                	mv	s1,a2
80003c86:	0205d163          	bgez	a1,80003ca8 <__swhatbuf_r+0x32>
80003c8a:	00c7d783          	lhu	a5,12(a5)
80003c8e:	0807f793          	and	a5,a5,128
80003c92:	ef95                	bnez	a5,80003cce <__swhatbuf_r+0x58>
80003c94:	40000713          	li	a4,1024
80003c98:	c29c                	sw	a5,0(a3)
80003c9a:	c098                	sw	a4,0(s1)
80003c9c:	50b6                	lw	ra,108(sp)
80003c9e:	5426                	lw	s0,104(sp)
80003ca0:	5496                	lw	s1,100(sp)
80003ca2:	4501                	li	a0,0
80003ca4:	6165                	add	sp,sp,112
80003ca6:	8082                	ret
80003ca8:	00f10413          	add	s0,sp,15
80003cac:	9861                	and	s0,s0,-8
80003cae:	8622                	mv	a2,s0
80003cb0:	c236                	sw	a3,4(sp)
80003cb2:	c03e                	sw	a5,0(sp)
80003cb4:	284d                	jal	80003d66 <_fstat_r>
80003cb6:	4782                	lw	a5,0(sp)
80003cb8:	4692                	lw	a3,4(sp)
80003cba:	fc0548e3          	bltz	a0,80003c8a <__swhatbuf_r+0x14>
80003cbe:	673d                	lui	a4,0xf
80003cc0:	405c                	lw	a5,4(s0)
80003cc2:	8ff9                	and	a5,a5,a4
80003cc4:	7779                	lui	a4,0xffffe
80003cc6:	97ba                	add	a5,a5,a4
80003cc8:	0017b793          	seqz	a5,a5
80003ccc:	b7e1                	j	80003c94 <__swhatbuf_r+0x1e>
80003cce:	4781                	li	a5,0
80003cd0:	04000713          	li	a4,64
80003cd4:	b7d1                	j	80003c98 <__swhatbuf_r+0x22>

80003cd6 <__smakebuf_r>:
__smakebuf_r():
80003cd6:	00c5d703          	lhu	a4,12(a1)
80003cda:	1111                	add	sp,sp,-28
80003cdc:	ca22                	sw	s0,20(sp)
80003cde:	cc06                	sw	ra,24(sp)
80003ce0:	c826                	sw	s1,16(sp)
80003ce2:	c02a                	sw	a0,0(sp)
80003ce4:	8b09                	and	a4,a4,2
80003ce6:	842e                	mv	s0,a1
80003ce8:	cf01                	beqz	a4,80003d00 <__smakebuf_r+0x2a>
80003cea:	04740713          	add	a4,s0,71
80003cee:	c018                	sw	a4,0(s0)
80003cf0:	c818                	sw	a4,16(s0)
80003cf2:	4705                	li	a4,1
80003cf4:	c858                	sw	a4,20(s0)
80003cf6:	40e2                	lw	ra,24(sp)
80003cf8:	4452                	lw	s0,20(sp)
80003cfa:	44c2                	lw	s1,16(sp)
80003cfc:	0171                	add	sp,sp,28
80003cfe:	8082                	ret
80003d00:	0074                	add	a3,sp,12
80003d02:	0030                	add	a2,sp,8
80003d04:	3f8d                	jal	80003c76 <__swhatbuf_r>
80003d06:	45a2                	lw	a1,8(sp)
80003d08:	84aa                	mv	s1,a0
80003d0a:	4502                	lw	a0,0(sp)
80003d0c:	c22e                	sw	a1,4(sp)
80003d0e:	95bfe0ef          	jal	80002668 <_malloc_r>
80003d12:	4592                	lw	a1,4(sp)
80003d14:	ed01                	bnez	a0,80003d2c <__smakebuf_r+0x56>
80003d16:	00c41703          	lh	a4,12(s0)
80003d1a:	20077693          	and	a3,a4,512
80003d1e:	fee1                	bnez	a3,80003cf6 <__smakebuf_r+0x20>
80003d20:	9b71                	and	a4,a4,-4
80003d22:	00276713          	or	a4,a4,2
80003d26:	00e41623          	sh	a4,12(s0)
80003d2a:	b7c1                	j	80003cea <__smakebuf_r+0x14>
80003d2c:	00c45703          	lhu	a4,12(s0)
80003d30:	c008                	sw	a0,0(s0)
80003d32:	c808                	sw	a0,16(s0)
80003d34:	08076713          	or	a4,a4,128
80003d38:	00e41623          	sh	a4,12(s0)
80003d3c:	c84c                	sw	a1,20(s0)
80003d3e:	4732                	lw	a4,12(sp)
80003d40:	cf09                	beqz	a4,80003d5a <__smakebuf_r+0x84>
80003d42:	00e41583          	lh	a1,14(s0)
80003d46:	4502                	lw	a0,0(sp)
80003d48:	20a1                	jal	80003d90 <_isatty_r>
80003d4a:	c901                	beqz	a0,80003d5a <__smakebuf_r+0x84>
80003d4c:	00c45703          	lhu	a4,12(s0)
80003d50:	9b71                	and	a4,a4,-4
80003d52:	00176713          	or	a4,a4,1
80003d56:	00e41623          	sh	a4,12(s0)
80003d5a:	00c45703          	lhu	a4,12(s0)
80003d5e:	8f45                	or	a4,a4,s1
80003d60:	00e41623          	sh	a4,12(s0)
80003d64:	bf49                	j	80003cf6 <__smakebuf_r+0x20>

80003d66 <_fstat_r>:
_fstat_r():
80003d66:	1161                	add	sp,sp,-8
80003d68:	c022                	sw	s0,0(sp)
80003d6a:	842a                	mv	s0,a0
80003d6c:	852e                	mv	a0,a1
80003d6e:	85b2                	mv	a1,a2
80003d70:	ee01ac23          	sw	zero,-264(gp) # 900008c0 <errno>
80003d74:	c206                	sw	ra,4(sp)
80003d76:	db2fc0ef          	jal	80000328 <_fstat>
80003d7a:	57fd                	li	a5,-1
80003d7c:	00f51663          	bne	a0,a5,80003d88 <_fstat_r+0x22>
80003d80:	ef81a783          	lw	a5,-264(gp) # 900008c0 <errno>
80003d84:	c391                	beqz	a5,80003d88 <_fstat_r+0x22>
80003d86:	c01c                	sw	a5,0(s0)
80003d88:	4092                	lw	ra,4(sp)
80003d8a:	4402                	lw	s0,0(sp)
80003d8c:	0121                	add	sp,sp,8
80003d8e:	8082                	ret

80003d90 <_isatty_r>:
_isatty_r():
80003d90:	1161                	add	sp,sp,-8
80003d92:	c022                	sw	s0,0(sp)
80003d94:	842a                	mv	s0,a0
80003d96:	852e                	mv	a0,a1
80003d98:	ee01ac23          	sw	zero,-264(gp) # 900008c0 <errno>
80003d9c:	c206                	sw	ra,4(sp)
80003d9e:	daefc0ef          	jal	8000034c <_isatty>
80003da2:	57fd                	li	a5,-1
80003da4:	00f51663          	bne	a0,a5,80003db0 <_isatty_r+0x20>
80003da8:	ef81a783          	lw	a5,-264(gp) # 900008c0 <errno>
80003dac:	c391                	beqz	a5,80003db0 <_isatty_r+0x20>
80003dae:	c01c                	sw	a5,0(s0)
80003db0:	4092                	lw	ra,4(sp)
80003db2:	4402                	lw	s0,0(sp)
80003db4:	0121                	add	sp,sp,8
80003db6:	8082                	ret

80003db8 <abort>:
abort():
80003db8:	1171                	add	sp,sp,-4
80003dba:	4519                	li	a0,6
80003dbc:	c006                	sw	ra,0(sp)
80003dbe:	209d                	jal	80003e24 <raise>
80003dc0:	4505                	li	a0,1
80003dc2:	d22fc0ef          	jal	800002e4 <_exit>

80003dc6 <_raise_r>:
_raise_r():
80003dc6:	1151                	add	sp,sp,-12
80003dc8:	c222                	sw	s0,4(sp)
80003dca:	c406                	sw	ra,8(sp)
80003dcc:	47fd                	li	a5,31
80003dce:	842a                	mv	s0,a0
80003dd0:	00b7f963          	bgeu	a5,a1,80003de2 <_raise_r+0x1c>
80003dd4:	47d9                	li	a5,22
80003dd6:	c11c                	sw	a5,0(a0)
80003dd8:	557d                	li	a0,-1
80003dda:	40a2                	lw	ra,8(sp)
80003ddc:	4412                	lw	s0,4(sp)
80003dde:	0131                	add	sp,sp,12
80003de0:	8082                	ret
80003de2:	5d5c                	lw	a5,60(a0)
80003de4:	862e                	mv	a2,a1
80003de6:	c791                	beqz	a5,80003df2 <_raise_r+0x2c>
80003de8:	00259713          	sll	a4,a1,0x2
80003dec:	97ba                	add	a5,a5,a4
80003dee:	4398                	lw	a4,0(a5)
80003df0:	eb19                	bnez	a4,80003e06 <_raise_r+0x40>
80003df2:	8522                	mv	a0,s0
80003df4:	c032                	sw	a2,0(sp)
80003df6:	2095                	jal	80003e5a <_getpid_r>
80003df8:	85aa                	mv	a1,a0
80003dfa:	8522                	mv	a0,s0
80003dfc:	4412                	lw	s0,4(sp)
80003dfe:	4602                	lw	a2,0(sp)
80003e00:	40a2                	lw	ra,8(sp)
80003e02:	0131                	add	sp,sp,12
80003e04:	a035                	j	80003e30 <_kill_r>
80003e06:	4505                	li	a0,1
80003e08:	00a70c63          	beq	a4,a0,80003e20 <_raise_r+0x5a>
80003e0c:	56fd                	li	a3,-1
80003e0e:	00d71563          	bne	a4,a3,80003e18 <_raise_r+0x52>
80003e12:	47d9                	li	a5,22
80003e14:	c01c                	sw	a5,0(s0)
80003e16:	b7d1                	j	80003dda <_raise_r+0x14>
80003e18:	0007a023          	sw	zero,0(a5)
80003e1c:	852e                	mv	a0,a1
80003e1e:	9702                	jalr	a4
80003e20:	4501                	li	a0,0
80003e22:	bf65                	j	80003dda <_raise_r+0x14>

80003e24 <raise>:
raise():
80003e24:	85aa                	mv	a1,a0
80003e26:	0fffc517          	auipc	a0,0xfffc
80003e2a:	3aa52503          	lw	a0,938(a0) # 900001d0 <_impure_ptr>
80003e2e:	bf61                	j	80003dc6 <_raise_r>

80003e30 <_kill_r>:
_kill_r():
80003e30:	1161                	add	sp,sp,-8
80003e32:	c022                	sw	s0,0(sp)
80003e34:	842a                	mv	s0,a0
80003e36:	852e                	mv	a0,a1
80003e38:	85b2                	mv	a1,a2
80003e3a:	ee01ac23          	sw	zero,-264(gp) # 900008c0 <errno>
80003e3e:	c206                	sw	ra,4(sp)
80003e40:	d14fc0ef          	jal	80000354 <_kill>
80003e44:	57fd                	li	a5,-1
80003e46:	00f51663          	bne	a0,a5,80003e52 <_kill_r+0x22>
80003e4a:	ef81a783          	lw	a5,-264(gp) # 900008c0 <errno>
80003e4e:	c391                	beqz	a5,80003e52 <_kill_r+0x22>
80003e50:	c01c                	sw	a5,0(s0)
80003e52:	4092                	lw	ra,4(sp)
80003e54:	4402                	lw	s0,0(sp)
80003e56:	0121                	add	sp,sp,8
80003e58:	8082                	ret

80003e5a <_getpid_r>:
_getpid_r():
80003e5a:	ceafc06f          	j	80000344 <_getpid>

80003e5e <__udivdi3>:
__udivdi3():
80003e5e:	832a                	mv	t1,a0
80003e60:	82ae                	mv	t0,a1
80003e62:	20069063          	bnez	a3,80004062 <__udivdi3+0x204>
80003e66:	872a                	mv	a4,a0
80003e68:	87b2                	mv	a5,a2
80003e6a:	df418513          	add	a0,gp,-524 # 900007bc <__clz_tab>
80003e6e:	0ac5fe63          	bgeu	a1,a2,80003f2a <__udivdi3+0xcc>
80003e72:	66c1                	lui	a3,0x10
80003e74:	0ad67463          	bgeu	a2,a3,80003f1c <__udivdi3+0xbe>
80003e78:	10063693          	sltiu	a3,a2,256
80003e7c:	0016b693          	seqz	a3,a3
80003e80:	068e                	sll	a3,a3,0x3
80003e82:	00d653b3          	srl	t2,a2,a3
80003e86:	951e                	add	a0,a0,t2
80003e88:	00054503          	lbu	a0,0(a0)
80003e8c:	96aa                	add	a3,a3,a0
80003e8e:	02000393          	li	t2,32
80003e92:	40d38533          	sub	a0,t2,a3
80003e96:	00d38b63          	beq	t2,a3,80003eac <__udivdi3+0x4e>
80003e9a:	00a295b3          	sll	a1,t0,a0
80003e9e:	00d356b3          	srl	a3,t1,a3
80003ea2:	00a617b3          	sll	a5,a2,a0
80003ea6:	8dd5                	or	a1,a1,a3
80003ea8:	00a31733          	sll	a4,t1,a0
80003eac:	0107d313          	srl	t1,a5,0x10
80003eb0:	0265d3b3          	divu	t2,a1,t1
80003eb4:	01079613          	sll	a2,a5,0x10
80003eb8:	8241                	srl	a2,a2,0x10
80003eba:	01075693          	srl	a3,a4,0x10
80003ebe:	0265f5b3          	remu	a1,a1,t1
80003ec2:	851e                	mv	a0,t2
80003ec4:	027602b3          	mul	t0,a2,t2
80003ec8:	05c2                	sll	a1,a1,0x10
80003eca:	8ecd                	or	a3,a3,a1
80003ecc:	0056fc63          	bgeu	a3,t0,80003ee4 <__udivdi3+0x86>
80003ed0:	96be                	add	a3,a3,a5
80003ed2:	fff38513          	add	a0,t2,-1
80003ed6:	00f6e763          	bltu	a3,a5,80003ee4 <__udivdi3+0x86>
80003eda:	0056f563          	bgeu	a3,t0,80003ee4 <__udivdi3+0x86>
80003ede:	ffe38513          	add	a0,t2,-2
80003ee2:	96be                	add	a3,a3,a5
80003ee4:	405686b3          	sub	a3,a3,t0
80003ee8:	0266d5b3          	divu	a1,a3,t1
80003eec:	0742                	sll	a4,a4,0x10
80003eee:	8341                	srl	a4,a4,0x10
80003ef0:	0266f6b3          	remu	a3,a3,t1
80003ef4:	02b60633          	mul	a2,a2,a1
80003ef8:	06c2                	sll	a3,a3,0x10
80003efa:	8f55                	or	a4,a4,a3
80003efc:	86ae                	mv	a3,a1
80003efe:	00c77b63          	bgeu	a4,a2,80003f14 <__udivdi3+0xb6>
80003f02:	973e                	add	a4,a4,a5
80003f04:	fff58693          	add	a3,a1,-1
80003f08:	00f76663          	bltu	a4,a5,80003f14 <__udivdi3+0xb6>
80003f0c:	00c77463          	bgeu	a4,a2,80003f14 <__udivdi3+0xb6>
80003f10:	ffe58693          	add	a3,a1,-2
80003f14:	0542                	sll	a0,a0,0x10
80003f16:	8d55                	or	a0,a0,a3
80003f18:	4581                	li	a1,0
80003f1a:	8082                	ret
80003f1c:	010003b7          	lui	t2,0x1000
80003f20:	46e1                	li	a3,24
80003f22:	f67670e3          	bgeu	a2,t2,80003e82 <__udivdi3+0x24>
80003f26:	46c1                	li	a3,16
80003f28:	bfa9                	j	80003e82 <__udivdi3+0x24>
80003f2a:	4681                	li	a3,0
80003f2c:	ca09                	beqz	a2,80003f3e <__udivdi3+0xe0>
80003f2e:	66c1                	lui	a3,0x10
80003f30:	08d67d63          	bgeu	a2,a3,80003fca <__udivdi3+0x16c>
80003f34:	10063693          	sltiu	a3,a2,256
80003f38:	0016b693          	seqz	a3,a3
80003f3c:	068e                	sll	a3,a3,0x3
80003f3e:	00d655b3          	srl	a1,a2,a3
80003f42:	952e                	add	a0,a0,a1
80003f44:	00054583          	lbu	a1,0(a0)
80003f48:	96ae                	add	a3,a3,a1
80003f4a:	02000593          	li	a1,32
80003f4e:	40d58533          	sub	a0,a1,a3
80003f52:	08d59363          	bne	a1,a3,80003fd8 <__udivdi3+0x17a>
80003f56:	40c28633          	sub	a2,t0,a2
80003f5a:	4585                	li	a1,1
80003f5c:	0107d313          	srl	t1,a5,0x10
80003f60:	026653b3          	divu	t2,a2,t1
80003f64:	01079693          	sll	a3,a5,0x10
80003f68:	82c1                	srl	a3,a3,0x10
80003f6a:	01075513          	srl	a0,a4,0x10
80003f6e:	02667633          	remu	a2,a2,t1
80003f72:	027682b3          	mul	t0,a3,t2
80003f76:	0642                	sll	a2,a2,0x10
80003f78:	8e49                	or	a2,a2,a0
80003f7a:	851e                	mv	a0,t2
80003f7c:	00567c63          	bgeu	a2,t0,80003f94 <__udivdi3+0x136>
80003f80:	963e                	add	a2,a2,a5
80003f82:	fff38513          	add	a0,t2,-1 # ffffff <__HEAP_SIZE+0xfff7ff>
80003f86:	00f66763          	bltu	a2,a5,80003f94 <__udivdi3+0x136>
80003f8a:	00567563          	bgeu	a2,t0,80003f94 <__udivdi3+0x136>
80003f8e:	ffe38513          	add	a0,t2,-2
80003f92:	963e                	add	a2,a2,a5
80003f94:	40560633          	sub	a2,a2,t0
80003f98:	026652b3          	divu	t0,a2,t1
80003f9c:	0742                	sll	a4,a4,0x10
80003f9e:	8341                	srl	a4,a4,0x10
80003fa0:	02667633          	remu	a2,a2,t1
80003fa4:	025686b3          	mul	a3,a3,t0
80003fa8:	0642                	sll	a2,a2,0x10
80003faa:	8f51                	or	a4,a4,a2
80003fac:	8616                	mv	a2,t0
80003fae:	00d77b63          	bgeu	a4,a3,80003fc4 <__udivdi3+0x166>
80003fb2:	973e                	add	a4,a4,a5
80003fb4:	fff28613          	add	a2,t0,-1 # 80003807 <memset+0x8d>
80003fb8:	00f76663          	bltu	a4,a5,80003fc4 <__udivdi3+0x166>
80003fbc:	00d77463          	bgeu	a4,a3,80003fc4 <__udivdi3+0x166>
80003fc0:	ffe28613          	add	a2,t0,-2
80003fc4:	0542                	sll	a0,a0,0x10
80003fc6:	8d51                	or	a0,a0,a2
80003fc8:	8082                	ret
80003fca:	010005b7          	lui	a1,0x1000
80003fce:	46e1                	li	a3,24
80003fd0:	f6b677e3          	bgeu	a2,a1,80003f3e <__udivdi3+0xe0>
80003fd4:	46c1                	li	a3,16
80003fd6:	b7a5                	j	80003f3e <__udivdi3+0xe0>
80003fd8:	00d2d5b3          	srl	a1,t0,a3
80003fdc:	00a617b3          	sll	a5,a2,a0
80003fe0:	00a292b3          	sll	t0,t0,a0
80003fe4:	00d356b3          	srl	a3,t1,a3
80003fe8:	0056e633          	or	a2,a3,t0
80003fec:	0107d293          	srl	t0,a5,0x10
80003ff0:	0255d3b3          	divu	t2,a1,t0
80003ff4:	00a31733          	sll	a4,t1,a0
80003ff8:	01079513          	sll	a0,a5,0x10
80003ffc:	8141                	srl	a0,a0,0x10
80003ffe:	01065693          	srl	a3,a2,0x10
80004002:	0255f5b3          	remu	a1,a1,t0
80004006:	02750333          	mul	t1,a0,t2
8000400a:	05c2                	sll	a1,a1,0x10
8000400c:	8ecd                	or	a3,a3,a1
8000400e:	859e                	mv	a1,t2
80004010:	0066fc63          	bgeu	a3,t1,80004028 <__udivdi3+0x1ca>
80004014:	96be                	add	a3,a3,a5
80004016:	fff38593          	add	a1,t2,-1
8000401a:	00f6e763          	bltu	a3,a5,80004028 <__udivdi3+0x1ca>
8000401e:	0066f563          	bgeu	a3,t1,80004028 <__udivdi3+0x1ca>
80004022:	ffe38593          	add	a1,t2,-2
80004026:	96be                	add	a3,a3,a5
80004028:	406686b3          	sub	a3,a3,t1
8000402c:	0256d333          	divu	t1,a3,t0
80004030:	0642                	sll	a2,a2,0x10
80004032:	8241                	srl	a2,a2,0x10
80004034:	0256f6b3          	remu	a3,a3,t0
80004038:	02650533          	mul	a0,a0,t1
8000403c:	06c2                	sll	a3,a3,0x10
8000403e:	8e55                	or	a2,a2,a3
80004040:	869a                	mv	a3,t1
80004042:	00a67c63          	bgeu	a2,a0,8000405a <__udivdi3+0x1fc>
80004046:	963e                	add	a2,a2,a5
80004048:	fff30693          	add	a3,t1,-1
8000404c:	00f66763          	bltu	a2,a5,8000405a <__udivdi3+0x1fc>
80004050:	00a67563          	bgeu	a2,a0,8000405a <__udivdi3+0x1fc>
80004054:	ffe30693          	add	a3,t1,-2
80004058:	963e                	add	a2,a2,a5
8000405a:	05c2                	sll	a1,a1,0x10
8000405c:	8e09                	sub	a2,a2,a0
8000405e:	8dd5                	or	a1,a1,a3
80004060:	bdf5                	j	80003f5c <__udivdi3+0xfe>
80004062:	14d5e463          	bltu	a1,a3,800041aa <__udivdi3+0x34c>
80004066:	67c1                	lui	a5,0x10
80004068:	02f6fd63          	bgeu	a3,a5,800040a2 <__udivdi3+0x244>
8000406c:	1006b713          	sltiu	a4,a3,256
80004070:	00173713          	seqz	a4,a4
80004074:	070e                	sll	a4,a4,0x3
80004076:	00e6d5b3          	srl	a1,a3,a4
8000407a:	df418793          	add	a5,gp,-524 # 900007bc <__clz_tab>
8000407e:	97ae                	add	a5,a5,a1
80004080:	0007c783          	lbu	a5,0(a5) # 10000 <__HEAP_SIZE+0xf800>
80004084:	97ba                	add	a5,a5,a4
80004086:	02000713          	li	a4,32
8000408a:	40f705b3          	sub	a1,a4,a5
8000408e:	02f71163          	bne	a4,a5,800040b0 <__udivdi3+0x252>
80004092:	4505                	li	a0,1
80004094:	1056ee63          	bltu	a3,t0,800041b0 <__udivdi3+0x352>
80004098:	00c33533          	sltu	a0,t1,a2
8000409c:	00153513          	seqz	a0,a0
800040a0:	8082                	ret
800040a2:	010007b7          	lui	a5,0x1000
800040a6:	4761                	li	a4,24
800040a8:	fcf6f7e3          	bgeu	a3,a5,80004076 <__udivdi3+0x218>
800040ac:	4741                	li	a4,16
800040ae:	b7e1                	j	80004076 <__udivdi3+0x218>
800040b0:	00b69733          	sll	a4,a3,a1
800040b4:	00f656b3          	srl	a3,a2,a5
800040b8:	8ed9                	or	a3,a3,a4
800040ba:	1161                	add	sp,sp,-8
800040bc:	00f2d733          	srl	a4,t0,a5
800040c0:	c222                	sw	s0,4(sp)
800040c2:	0106d413          	srl	s0,a3,0x10
800040c6:	c026                	sw	s1,0(sp)
800040c8:	028754b3          	divu	s1,a4,s0
800040cc:	00b292b3          	sll	t0,t0,a1
800040d0:	00f357b3          	srl	a5,t1,a5
800040d4:	0057e7b3          	or	a5,a5,t0
800040d8:	01069293          	sll	t0,a3,0x10
800040dc:	0102d293          	srl	t0,t0,0x10
800040e0:	00b61633          	sll	a2,a2,a1
800040e4:	02877733          	remu	a4,a4,s0
800040e8:	029283b3          	mul	t2,t0,s1
800040ec:	01071513          	sll	a0,a4,0x10
800040f0:	0107d713          	srl	a4,a5,0x10
800040f4:	8f49                	or	a4,a4,a0
800040f6:	8526                	mv	a0,s1
800040f8:	00777c63          	bgeu	a4,t2,80004110 <__udivdi3+0x2b2>
800040fc:	9736                	add	a4,a4,a3
800040fe:	fff48513          	add	a0,s1,-1
80004102:	00d76763          	bltu	a4,a3,80004110 <__udivdi3+0x2b2>
80004106:	00777563          	bgeu	a4,t2,80004110 <__udivdi3+0x2b2>
8000410a:	ffe48513          	add	a0,s1,-2
8000410e:	9736                	add	a4,a4,a3
80004110:	40770733          	sub	a4,a4,t2
80004114:	028753b3          	divu	t2,a4,s0
80004118:	07c2                	sll	a5,a5,0x10
8000411a:	83c1                	srl	a5,a5,0x10
8000411c:	02877733          	remu	a4,a4,s0
80004120:	027282b3          	mul	t0,t0,t2
80004124:	0742                	sll	a4,a4,0x10
80004126:	8fd9                	or	a5,a5,a4
80004128:	871e                	mv	a4,t2
8000412a:	0057fc63          	bgeu	a5,t0,80004142 <__udivdi3+0x2e4>
8000412e:	97b6                	add	a5,a5,a3
80004130:	fff38713          	add	a4,t2,-1
80004134:	00d7e763          	bltu	a5,a3,80004142 <__udivdi3+0x2e4>
80004138:	0057f563          	bgeu	a5,t0,80004142 <__udivdi3+0x2e4>
8000413c:	ffe38713          	add	a4,t2,-2
80004140:	97b6                	add	a5,a5,a3
80004142:	0542                	sll	a0,a0,0x10
80004144:	8d59                	or	a0,a0,a4
80004146:	01071693          	sll	a3,a4,0x10
8000414a:	01061413          	sll	s0,a2,0x10
8000414e:	82c1                	srl	a3,a3,0x10
80004150:	01055393          	srl	t2,a0,0x10
80004154:	8041                	srl	s0,s0,0x10
80004156:	8241                	srl	a2,a2,0x10
80004158:	405787b3          	sub	a5,a5,t0
8000415c:	028682b3          	mul	t0,a3,s0
80004160:	02838433          	mul	s0,t2,s0
80004164:	0102d713          	srl	a4,t0,0x10
80004168:	02c686b3          	mul	a3,a3,a2
8000416c:	96a2                	add	a3,a3,s0
8000416e:	9736                	add	a4,a4,a3
80004170:	02c383b3          	mul	t2,t2,a2
80004174:	00877463          	bgeu	a4,s0,8000417c <__udivdi3+0x31e>
80004178:	66c1                	lui	a3,0x10
8000417a:	93b6                	add	t2,t2,a3
8000417c:	01075693          	srl	a3,a4,0x10
80004180:	969e                	add	a3,a3,t2
80004182:	00d7ee63          	bltu	a5,a3,8000419e <__udivdi3+0x340>
80004186:	00d79d63          	bne	a5,a3,800041a0 <__udivdi3+0x342>
8000418a:	02c2                	sll	t0,t0,0x10
8000418c:	0742                	sll	a4,a4,0x10
8000418e:	0102d293          	srl	t0,t0,0x10
80004192:	00b31333          	sll	t1,t1,a1
80004196:	9716                	add	a4,a4,t0
80004198:	4581                	li	a1,0
8000419a:	00e37463          	bgeu	t1,a4,800041a2 <__udivdi3+0x344>
8000419e:	157d                	add	a0,a0,-1
800041a0:	4581                	li	a1,0
800041a2:	4412                	lw	s0,4(sp)
800041a4:	4482                	lw	s1,0(sp)
800041a6:	0121                	add	sp,sp,8
800041a8:	8082                	ret
800041aa:	4581                	li	a1,0
800041ac:	4501                	li	a0,0
800041ae:	8082                	ret
800041b0:	8082                	ret

800041b2 <__adddf3>:
__adddf3():
800041b2:	00100337          	lui	t1,0x100
800041b6:	137d                	add	t1,t1,-1 # fffff <__HEAP_SIZE+0xff7ff>
800041b8:	00b372b3          	and	t0,t1,a1
800041bc:	1131                	add	sp,sp,-20
800041be:	0145d713          	srl	a4,a1,0x14
800041c2:	01d55793          	srl	a5,a0,0x1d
800041c6:	00d37333          	and	t1,t1,a3
800041ca:	c426                	sw	s1,8(sp)
800041cc:	7ff77493          	and	s1,a4,2047
800041d0:	00329713          	sll	a4,t0,0x3
800041d4:	0146d293          	srl	t0,a3,0x14
800041d8:	030e                	sll	t1,t1,0x3
800041da:	c622                	sw	s0,12(sp)
800041dc:	8fd9                	or	a5,a5,a4
800041de:	01f5d413          	srl	s0,a1,0x1f
800041e2:	01d65713          	srl	a4,a2,0x1d
800041e6:	7ff2f293          	and	t0,t0,2047
800041ea:	c806                	sw	ra,16(sp)
800041ec:	82fd                	srl	a3,a3,0x1f
800041ee:	00676733          	or	a4,a4,t1
800041f2:	050e                	sll	a0,a0,0x3
800041f4:	060e                	sll	a2,a2,0x3
800041f6:	40548333          	sub	t1,s1,t0
800041fa:	7ff00593          	li	a1,2047
800041fe:	20d41063          	bne	s0,a3,800043fe <__adddf3+0x24c>
80004202:	0c605a63          	blez	t1,800042d6 <__adddf3+0x124>
80004206:	02029663          	bnez	t0,80004232 <__adddf3+0x80>
8000420a:	00c766b3          	or	a3,a4,a2
8000420e:	c285                	beqz	a3,8000422e <__adddf3+0x7c>
80004210:	fff30293          	add	t0,t1,-1
80004214:	00029b63          	bnez	t0,8000422a <__adddf3+0x78>
80004218:	962a                	add	a2,a2,a0
8000421a:	00a636b3          	sltu	a3,a2,a0
8000421e:	973e                	add	a4,a4,a5
80004220:	8532                	mv	a0,a2
80004222:	00d707b3          	add	a5,a4,a3
80004226:	4485                	li	s1,1
80004228:	a889                	j	8000427a <__adddf3+0xc8>
8000422a:	00b31a63          	bne	t1,a1,8000423e <__adddf3+0x8c>
8000422e:	849a                	mv	s1,t1
80004230:	a249                	j	800043b2 <__adddf3+0x200>
80004232:	18b48063          	beq	s1,a1,800043b2 <__adddf3+0x200>
80004236:	008006b7          	lui	a3,0x800
8000423a:	8f55                	or	a4,a4,a3
8000423c:	829a                	mv	t0,t1
8000423e:	03800693          	li	a3,56
80004242:	0856c563          	blt	a3,t0,800042cc <__adddf3+0x11a>
80004246:	46fd                	li	a3,31
80004248:	02000313          	li	t1,32
8000424c:	0456cd63          	blt	a3,t0,800042a6 <__adddf3+0xf4>
80004250:	40530333          	sub	t1,t1,t0
80004254:	006716b3          	sll	a3,a4,t1
80004258:	005655b3          	srl	a1,a2,t0
8000425c:	00661333          	sll	t1,a2,t1
80004260:	8ecd                	or	a3,a3,a1
80004262:	00603333          	snez	t1,t1
80004266:	0066e6b3          	or	a3,a3,t1
8000426a:	00575733          	srl	a4,a4,t0
8000426e:	9536                	add	a0,a0,a3
80004270:	973e                	add	a4,a4,a5
80004272:	00d536b3          	sltu	a3,a0,a3
80004276:	00d707b3          	add	a5,a4,a3
8000427a:	00879713          	sll	a4,a5,0x8
8000427e:	12075a63          	bgez	a4,800043b2 <__adddf3+0x200>
80004282:	0485                	add	s1,s1,1
80004284:	7ff00713          	li	a4,2047
80004288:	46e48f63          	beq	s1,a4,80004706 <__adddf3+0x554>
8000428c:	ff800737          	lui	a4,0xff800
80004290:	177d                	add	a4,a4,-1 # ff7fffff <_sp+0x6f7effff>
80004292:	8ff9                	and	a5,a5,a4
80004294:	00155713          	srl	a4,a0,0x1
80004298:	8905                	and	a0,a0,1
8000429a:	8f49                	or	a4,a4,a0
8000429c:	01f79513          	sll	a0,a5,0x1f
800042a0:	8d59                	or	a0,a0,a4
800042a2:	8385                	srl	a5,a5,0x1
800042a4:	a239                	j	800043b2 <__adddf3+0x200>
800042a6:	fe028693          	add	a3,t0,-32
800042aa:	00d756b3          	srl	a3,a4,a3
800042ae:	4581                	li	a1,0
800042b0:	00628863          	beq	t0,t1,800042c0 <__adddf3+0x10e>
800042b4:	04000593          	li	a1,64
800042b8:	405585b3          	sub	a1,a1,t0
800042bc:	00b715b3          	sll	a1,a4,a1
800042c0:	8dd1                	or	a1,a1,a2
800042c2:	00b035b3          	snez	a1,a1
800042c6:	8ecd                	or	a3,a3,a1
800042c8:	4701                	li	a4,0
800042ca:	b755                	j	8000426e <__adddf3+0xbc>
800042cc:	00c766b3          	or	a3,a4,a2
800042d0:	00d036b3          	snez	a3,a3
800042d4:	bfd5                	j	800042c8 <__adddf3+0x116>
800042d6:	0a030063          	beqz	t1,80004376 <__adddf3+0x1c4>
800042da:	409286b3          	sub	a3,t0,s1
800042de:	ec91                	bnez	s1,800042fa <__adddf3+0x148>
800042e0:	00a7e333          	or	t1,a5,a0
800042e4:	00030863          	beqz	t1,800042f4 <__adddf3+0x142>
800042e8:	fff68313          	add	t1,a3,-1 # 7fffff <__HEAP_SIZE+0x7ff7ff>
800042ec:	f20306e3          	beqz	t1,80004218 <__adddf3+0x66>
800042f0:	00b69b63          	bne	a3,a1,80004306 <__adddf3+0x154>
800042f4:	87ba                	mv	a5,a4
800042f6:	8532                	mv	a0,a2
800042f8:	a209                	j	800043fa <__adddf3+0x248>
800042fa:	3eb28b63          	beq	t0,a1,800046f0 <__adddf3+0x53e>
800042fe:	008005b7          	lui	a1,0x800
80004302:	8fcd                	or	a5,a5,a1
80004304:	8336                	mv	t1,a3
80004306:	03800693          	li	a3,56
8000430a:	0666c163          	blt	a3,t1,8000436c <__adddf3+0x1ba>
8000430e:	46fd                	li	a3,31
80004310:	02000393          	li	t2,32
80004314:	0266c963          	blt	a3,t1,80004346 <__adddf3+0x194>
80004318:	406383b3          	sub	t2,t2,t1
8000431c:	007796b3          	sll	a3,a5,t2
80004320:	006555b3          	srl	a1,a0,t1
80004324:	007513b3          	sll	t2,a0,t2
80004328:	8ecd                	or	a3,a3,a1
8000432a:	007033b3          	snez	t2,t2
8000432e:	0076e6b3          	or	a3,a3,t2
80004332:	0067d7b3          	srl	a5,a5,t1
80004336:	9636                	add	a2,a2,a3
80004338:	97ba                	add	a5,a5,a4
8000433a:	00d636b3          	sltu	a3,a2,a3
8000433e:	8532                	mv	a0,a2
80004340:	97b6                	add	a5,a5,a3
80004342:	8496                	mv	s1,t0
80004344:	bf1d                	j	8000427a <__adddf3+0xc8>
80004346:	fe030693          	add	a3,t1,-32
8000434a:	00d7d6b3          	srl	a3,a5,a3
8000434e:	4581                	li	a1,0
80004350:	00730863          	beq	t1,t2,80004360 <__adddf3+0x1ae>
80004354:	04000593          	li	a1,64
80004358:	406585b3          	sub	a1,a1,t1
8000435c:	00b795b3          	sll	a1,a5,a1
80004360:	8dc9                	or	a1,a1,a0
80004362:	00b035b3          	snez	a1,a1
80004366:	8ecd                	or	a3,a3,a1
80004368:	4781                	li	a5,0
8000436a:	b7f1                	j	80004336 <__adddf3+0x184>
8000436c:	00a7e6b3          	or	a3,a5,a0
80004370:	00d036b3          	snez	a3,a3
80004374:	bfd5                	j	80004368 <__adddf3+0x1b6>
80004376:	00148693          	add	a3,s1,1
8000437a:	7fe6f313          	and	t1,a3,2046
8000437e:	06031163          	bnez	t1,800043e0 <__adddf3+0x22e>
80004382:	00a7e6b3          	or	a3,a5,a0
80004386:	e4b1                	bnez	s1,800043d2 <__adddf3+0x220>
80004388:	36068863          	beqz	a3,800046f8 <__adddf3+0x546>
8000438c:	00c766b3          	or	a3,a4,a2
80004390:	c28d                	beqz	a3,800043b2 <__adddf3+0x200>
80004392:	962a                	add	a2,a2,a0
80004394:	00a636b3          	sltu	a3,a2,a0
80004398:	973e                	add	a4,a4,a5
8000439a:	00d707b3          	add	a5,a4,a3
8000439e:	00879713          	sll	a4,a5,0x8
800043a2:	8532                	mv	a0,a2
800043a4:	00075763          	bgez	a4,800043b2 <__adddf3+0x200>
800043a8:	ff800737          	lui	a4,0xff800
800043ac:	177d                	add	a4,a4,-1 # ff7fffff <_sp+0x6f7effff>
800043ae:	8ff9                	and	a5,a5,a4
800043b0:	4485                	li	s1,1
800043b2:	00757713          	and	a4,a0,7
800043b6:	36070163          	beqz	a4,80004718 <__adddf3+0x566>
800043ba:	00f57713          	and	a4,a0,15
800043be:	4691                	li	a3,4
800043c0:	34d70c63          	beq	a4,a3,80004718 <__adddf3+0x566>
800043c4:	00d50733          	add	a4,a0,a3
800043c8:	00a736b3          	sltu	a3,a4,a0
800043cc:	97b6                	add	a5,a5,a3
800043ce:	853a                	mv	a0,a4
800043d0:	a6a1                	j	80004718 <__adddf3+0x566>
800043d2:	32068663          	beqz	a3,800046fe <__adddf3+0x54c>
800043d6:	8e59                	or	a2,a2,a4
800043d8:	22061163          	bnez	a2,800045fa <__adddf3+0x448>
800043dc:	84ae                	mv	s1,a1
800043de:	bfd1                	j	800043b2 <__adddf3+0x200>
800043e0:	32b68263          	beq	a3,a1,80004704 <__adddf3+0x552>
800043e4:	962a                	add	a2,a2,a0
800043e6:	00a63533          	sltu	a0,a2,a0
800043ea:	973e                	add	a4,a4,a5
800043ec:	972a                	add	a4,a4,a0
800043ee:	01f71513          	sll	a0,a4,0x1f
800043f2:	8205                	srl	a2,a2,0x1
800043f4:	8d51                	or	a0,a0,a2
800043f6:	00175793          	srl	a5,a4,0x1
800043fa:	84b6                	mv	s1,a3
800043fc:	bf5d                	j	800043b2 <__adddf3+0x200>
800043fe:	0c605463          	blez	t1,800044c6 <__adddf3+0x314>
80004402:	08029263          	bnez	t0,80004486 <__adddf3+0x2d4>
80004406:	00c766b3          	or	a3,a4,a2
8000440a:	e20682e3          	beqz	a3,8000422e <__adddf3+0x7c>
8000440e:	fff30693          	add	a3,t1,-1
80004412:	ee81                	bnez	a3,8000442a <__adddf3+0x278>
80004414:	40c50633          	sub	a2,a0,a2
80004418:	00c536b3          	sltu	a3,a0,a2
8000441c:	40e78733          	sub	a4,a5,a4
80004420:	8532                	mv	a0,a2
80004422:	40d707b3          	sub	a5,a4,a3
80004426:	4485                	li	s1,1
80004428:	a0a9                	j	80004472 <__adddf3+0x2c0>
8000442a:	e0b302e3          	beq	t1,a1,8000422e <__adddf3+0x7c>
8000442e:	03800593          	li	a1,56
80004432:	08d5c663          	blt	a1,a3,800044be <__adddf3+0x30c>
80004436:	45fd                	li	a1,31
80004438:	02000293          	li	t0,32
8000443c:	04d5cc63          	blt	a1,a3,80004494 <__adddf3+0x2e2>
80004440:	40d282b3          	sub	t0,t0,a3
80004444:	00d65333          	srl	t1,a2,a3
80004448:	005715b3          	sll	a1,a4,t0
8000444c:	005612b3          	sll	t0,a2,t0
80004450:	0065e5b3          	or	a1,a1,t1
80004454:	005032b3          	snez	t0,t0
80004458:	0055e633          	or	a2,a1,t0
8000445c:	00d756b3          	srl	a3,a4,a3
80004460:	40c50633          	sub	a2,a0,a2
80004464:	00c53733          	sltu	a4,a0,a2
80004468:	40d786b3          	sub	a3,a5,a3
8000446c:	8532                	mv	a0,a2
8000446e:	40e687b3          	sub	a5,a3,a4
80004472:	00879713          	sll	a4,a5,0x8
80004476:	f2075ee3          	bgez	a4,800043b2 <__adddf3+0x200>
8000447a:	008005b7          	lui	a1,0x800
8000447e:	15fd                	add	a1,a1,-1 # 7fffff <__HEAP_SIZE+0x7ff7ff>
80004480:	8dfd                	and	a1,a1,a5
80004482:	832a                	mv	t1,a0
80004484:	a27d                	j	80004632 <__adddf3+0x480>
80004486:	f2b486e3          	beq	s1,a1,800043b2 <__adddf3+0x200>
8000448a:	008006b7          	lui	a3,0x800
8000448e:	8f55                	or	a4,a4,a3
80004490:	869a                	mv	a3,t1
80004492:	bf71                	j	8000442e <__adddf3+0x27c>
80004494:	fe068593          	add	a1,a3,-32 # 7fffe0 <__HEAP_SIZE+0x7ff7e0>
80004498:	00b755b3          	srl	a1,a4,a1
8000449c:	4301                	li	t1,0
8000449e:	00568863          	beq	a3,t0,800044ae <__adddf3+0x2fc>
800044a2:	04000313          	li	t1,64
800044a6:	40d30333          	sub	t1,t1,a3
800044aa:	00671333          	sll	t1,a4,t1
800044ae:	00c36333          	or	t1,t1,a2
800044b2:	00603333          	snez	t1,t1
800044b6:	0065e633          	or	a2,a1,t1
800044ba:	4681                	li	a3,0
800044bc:	b755                	j	80004460 <__adddf3+0x2ae>
800044be:	8e59                	or	a2,a2,a4
800044c0:	00c03633          	snez	a2,a2
800044c4:	bfdd                	j	800044ba <__adddf3+0x308>
800044c6:	0c030063          	beqz	t1,80004586 <__adddf3+0x3d4>
800044ca:	409283b3          	sub	t2,t0,s1
800044ce:	e885                	bnez	s1,800044fe <__adddf3+0x34c>
800044d0:	00a7e333          	or	t1,a5,a0
800044d4:	02030163          	beqz	t1,800044f6 <__adddf3+0x344>
800044d8:	fff38313          	add	t1,t2,-1
800044dc:	00031b63          	bnez	t1,800044f2 <__adddf3+0x340>
800044e0:	40a60533          	sub	a0,a2,a0
800044e4:	8f1d                	sub	a4,a4,a5
800044e6:	00a63633          	sltu	a2,a2,a0
800044ea:	40c707b3          	sub	a5,a4,a2
800044ee:	8436                	mv	s0,a3
800044f0:	bf1d                	j	80004426 <__adddf3+0x274>
800044f2:	00b39c63          	bne	t2,a1,8000450a <__adddf3+0x358>
800044f6:	87ba                	mv	a5,a4
800044f8:	8532                	mv	a0,a2
800044fa:	849e                	mv	s1,t2
800044fc:	a075                	j	800045a8 <__adddf3+0x3f6>
800044fe:	20b28763          	beq	t0,a1,8000470c <__adddf3+0x55a>
80004502:	008005b7          	lui	a1,0x800
80004506:	8fcd                	or	a5,a5,a1
80004508:	831e                	mv	t1,t2
8000450a:	03800593          	li	a1,56
8000450e:	0665c763          	blt	a1,t1,8000457c <__adddf3+0x3ca>
80004512:	45fd                	li	a1,31
80004514:	02000413          	li	s0,32
80004518:	0265cd63          	blt	a1,t1,80004552 <__adddf3+0x3a0>
8000451c:	40640433          	sub	s0,s0,t1
80004520:	008795b3          	sll	a1,a5,s0
80004524:	006553b3          	srl	t2,a0,t1
80004528:	00851433          	sll	s0,a0,s0
8000452c:	0075e5b3          	or	a1,a1,t2
80004530:	00803433          	snez	s0,s0
80004534:	8dc1                	or	a1,a1,s0
80004536:	0067d333          	srl	t1,a5,t1
8000453a:	40b605b3          	sub	a1,a2,a1
8000453e:	40670333          	sub	t1,a4,t1
80004542:	00b63633          	sltu	a2,a2,a1
80004546:	852e                	mv	a0,a1
80004548:	40c307b3          	sub	a5,t1,a2
8000454c:	8496                	mv	s1,t0
8000454e:	8436                	mv	s0,a3
80004550:	b70d                	j	80004472 <__adddf3+0x2c0>
80004552:	fe030593          	add	a1,t1,-32
80004556:	00b7d5b3          	srl	a1,a5,a1
8000455a:	4381                	li	t2,0
8000455c:	00830863          	beq	t1,s0,8000456c <__adddf3+0x3ba>
80004560:	04000393          	li	t2,64
80004564:	406383b3          	sub	t2,t2,t1
80004568:	007793b3          	sll	t2,a5,t2
8000456c:	00a3e3b3          	or	t2,t2,a0
80004570:	007033b3          	snez	t2,t2
80004574:	0075e5b3          	or	a1,a1,t2
80004578:	4301                	li	t1,0
8000457a:	b7c1                	j	8000453a <__adddf3+0x388>
8000457c:	00a7e5b3          	or	a1,a5,a0
80004580:	00b035b3          	snez	a1,a1
80004584:	bfd5                	j	80004578 <__adddf3+0x3c6>
80004586:	00148313          	add	t1,s1,1
8000458a:	7fe37313          	and	t1,t1,2046
8000458e:	06031c63          	bnez	t1,80004606 <__adddf3+0x454>
80004592:	00a7e2b3          	or	t0,a5,a0
80004596:	00c76333          	or	t1,a4,a2
8000459a:	e4b1                	bnez	s1,800045e6 <__adddf3+0x434>
8000459c:	00029863          	bnez	t0,800045ac <__adddf3+0x3fa>
800045a0:	0e030c63          	beqz	t1,80004698 <__adddf3+0x4e6>
800045a4:	87ba                	mv	a5,a4
800045a6:	8532                	mv	a0,a2
800045a8:	8436                	mv	s0,a3
800045aa:	b521                	j	800043b2 <__adddf3+0x200>
800045ac:	e00303e3          	beqz	t1,800043b2 <__adddf3+0x200>
800045b0:	40c50333          	sub	t1,a0,a2
800045b4:	006532b3          	sltu	t0,a0,t1
800045b8:	40e785b3          	sub	a1,a5,a4
800045bc:	405585b3          	sub	a1,a1,t0
800045c0:	00859293          	sll	t0,a1,0x8
800045c4:	0002da63          	bgez	t0,800045d8 <__adddf3+0x426>
800045c8:	40a60533          	sub	a0,a2,a0
800045cc:	8f1d                	sub	a4,a4,a5
800045ce:	00a63633          	sltu	a2,a2,a0
800045d2:	40c707b3          	sub	a5,a4,a2
800045d6:	bfc9                	j	800045a8 <__adddf3+0x3f6>
800045d8:	00b36533          	or	a0,t1,a1
800045dc:	12050c63          	beqz	a0,80004714 <__adddf3+0x562>
800045e0:	87ae                	mv	a5,a1
800045e2:	851a                	mv	a0,t1
800045e4:	b3f9                	j	800043b2 <__adddf3+0x200>
800045e6:	00029863          	bnez	t0,800045f6 <__adddf3+0x444>
800045ea:	00030863          	beqz	t1,800045fa <__adddf3+0x448>
800045ee:	87ba                	mv	a5,a4
800045f0:	8532                	mv	a0,a2
800045f2:	8436                	mv	s0,a3
800045f4:	b3e5                	j	800043dc <__adddf3+0x22a>
800045f6:	de0303e3          	beqz	t1,800043dc <__adddf3+0x22a>
800045fa:	4401                	li	s0,0
800045fc:	004007b7          	lui	a5,0x400
80004600:	4501                	li	a0,0
80004602:	84ae                	mv	s1,a1
80004604:	aa11                	j	80004718 <__adddf3+0x566>
80004606:	40c502b3          	sub	t0,a0,a2
8000460a:	005533b3          	sltu	t2,a0,t0
8000460e:	40e785b3          	sub	a1,a5,a4
80004612:	407585b3          	sub	a1,a1,t2
80004616:	00859393          	sll	t2,a1,0x8
8000461a:	8316                	mv	t1,t0
8000461c:	0603d963          	bgez	t2,8000468e <__adddf3+0x4dc>
80004620:	40a60533          	sub	a0,a2,a0
80004624:	8f1d                	sub	a4,a4,a5
80004626:	00a63633          	sltu	a2,a2,a0
8000462a:	832a                	mv	t1,a0
8000462c:	40c705b3          	sub	a1,a4,a2
80004630:	8436                	mv	s0,a3
80004632:	c5ad                	beqz	a1,8000469c <__adddf3+0x4ea>
80004634:	852e                	mv	a0,a1
80004636:	c21a                	sw	t1,4(sp)
80004638:	c02e                	sw	a1,0(sp)
8000463a:	6a0010ef          	jal	80005cda <__clzsi2>
8000463e:	ff850693          	add	a3,a0,-8
80004642:	4582                	lw	a1,0(sp)
80004644:	4312                	lw	t1,4(sp)
80004646:	02000793          	li	a5,32
8000464a:	8f95                	sub	a5,a5,a3
8000464c:	00d595b3          	sll	a1,a1,a3
80004650:	00f357b3          	srl	a5,t1,a5
80004654:	8fcd                	or	a5,a5,a1
80004656:	00d315b3          	sll	a1,t1,a3
8000465a:	0896c463          	blt	a3,s1,800046e2 <__adddf3+0x530>
8000465e:	8e85                	sub	a3,a3,s1
80004660:	00168313          	add	t1,a3,1
80004664:	477d                	li	a4,31
80004666:	02000613          	li	a2,32
8000466a:	04674a63          	blt	a4,t1,800046be <__adddf3+0x50c>
8000466e:	40660633          	sub	a2,a2,t1
80004672:	00c79533          	sll	a0,a5,a2
80004676:	0065d733          	srl	a4,a1,t1
8000467a:	00c59633          	sll	a2,a1,a2
8000467e:	8d59                	or	a0,a0,a4
80004680:	00c03633          	snez	a2,a2
80004684:	8d51                	or	a0,a0,a2
80004686:	0067d7b3          	srl	a5,a5,t1
8000468a:	4481                	li	s1,0
8000468c:	b31d                	j	800043b2 <__adddf3+0x200>
8000468e:	00b2e2b3          	or	t0,t0,a1
80004692:	fa0290e3          	bnez	t0,80004632 <__adddf3+0x480>
80004696:	4481                	li	s1,0
80004698:	4401                	li	s0,0
8000469a:	a0b5                	j	80004706 <__adddf3+0x554>
8000469c:	851a                	mv	a0,t1
8000469e:	c22e                	sw	a1,4(sp)
800046a0:	c01a                	sw	t1,0(sp)
800046a2:	638010ef          	jal	80005cda <__clzsi2>
800046a6:	01850693          	add	a3,a0,24
800046aa:	47fd                	li	a5,31
800046ac:	4302                	lw	t1,0(sp)
800046ae:	4592                	lw	a1,4(sp)
800046b0:	f8d7dbe3          	bge	a5,a3,80004646 <__adddf3+0x494>
800046b4:	ff850793          	add	a5,a0,-8
800046b8:	00f317b3          	sll	a5,t1,a5
800046bc:	bf79                	j	8000465a <__adddf3+0x4a8>
800046be:	1685                	add	a3,a3,-31
800046c0:	00d7d533          	srl	a0,a5,a3
800046c4:	4701                	li	a4,0
800046c6:	00c30863          	beq	t1,a2,800046d6 <__adddf3+0x524>
800046ca:	04000713          	li	a4,64
800046ce:	40670733          	sub	a4,a4,t1
800046d2:	00e79733          	sll	a4,a5,a4
800046d6:	8f4d                	or	a4,a4,a1
800046d8:	00e03733          	snez	a4,a4
800046dc:	8d59                	or	a0,a0,a4
800046de:	4781                	li	a5,0
800046e0:	b76d                	j	8000468a <__adddf3+0x4d8>
800046e2:	ff800737          	lui	a4,0xff800
800046e6:	177d                	add	a4,a4,-1 # ff7fffff <_sp+0x6f7effff>
800046e8:	8c95                	sub	s1,s1,a3
800046ea:	8ff9                	and	a5,a5,a4
800046ec:	852e                	mv	a0,a1
800046ee:	b1d1                	j	800043b2 <__adddf3+0x200>
800046f0:	87ba                	mv	a5,a4
800046f2:	8532                	mv	a0,a2
800046f4:	8496                	mv	s1,t0
800046f6:	b975                	j	800043b2 <__adddf3+0x200>
800046f8:	87ba                	mv	a5,a4
800046fa:	8532                	mv	a0,a2
800046fc:	b95d                	j	800043b2 <__adddf3+0x200>
800046fe:	87ba                	mv	a5,a4
80004700:	8532                	mv	a0,a2
80004702:	b9e9                	j	800043dc <__adddf3+0x22a>
80004704:	84b6                	mv	s1,a3
80004706:	4781                	li	a5,0
80004708:	4501                	li	a0,0
8000470a:	a039                	j	80004718 <__adddf3+0x566>
8000470c:	87ba                	mv	a5,a4
8000470e:	8532                	mv	a0,a2
80004710:	8496                	mv	s1,t0
80004712:	bd59                	j	800045a8 <__adddf3+0x3f6>
80004714:	4781                	li	a5,0
80004716:	4401                	li	s0,0
80004718:	00879713          	sll	a4,a5,0x8
8000471c:	00075b63          	bgez	a4,80004732 <__adddf3+0x580>
80004720:	0485                	add	s1,s1,1
80004722:	7ff00713          	li	a4,2047
80004726:	04e48863          	beq	s1,a4,80004776 <__adddf3+0x5c4>
8000472a:	ff800737          	lui	a4,0xff800
8000472e:	177d                	add	a4,a4,-1 # ff7fffff <_sp+0x6f7effff>
80004730:	8ff9                	and	a5,a5,a4
80004732:	01d79693          	sll	a3,a5,0x1d
80004736:	810d                	srl	a0,a0,0x3
80004738:	7ff00713          	li	a4,2047
8000473c:	8ec9                	or	a3,a3,a0
8000473e:	838d                	srl	a5,a5,0x3
80004740:	00e49963          	bne	s1,a4,80004752 <__adddf3+0x5a0>
80004744:	8edd                	or	a3,a3,a5
80004746:	4781                	li	a5,0
80004748:	c689                	beqz	a3,80004752 <__adddf3+0x5a0>
8000474a:	000807b7          	lui	a5,0x80
8000474e:	4681                	li	a3,0
80004750:	4401                	li	s0,0
80004752:	01449713          	sll	a4,s1,0x14
80004756:	7ff00637          	lui	a2,0x7ff00
8000475a:	07b2                	sll	a5,a5,0xc
8000475c:	8f71                	and	a4,a4,a2
8000475e:	83b1                	srl	a5,a5,0xc
80004760:	047e                	sll	s0,s0,0x1f
80004762:	8fd9                	or	a5,a5,a4
80004764:	0087e733          	or	a4,a5,s0
80004768:	40c2                	lw	ra,16(sp)
8000476a:	4432                	lw	s0,12(sp)
8000476c:	44a2                	lw	s1,8(sp)
8000476e:	8536                	mv	a0,a3
80004770:	85ba                	mv	a1,a4
80004772:	0151                	add	sp,sp,20
80004774:	8082                	ret
80004776:	4781                	li	a5,0
80004778:	4501                	li	a0,0
8000477a:	bf65                	j	80004732 <__adddf3+0x580>

8000477c <__divdf3>:
__divdf3():
8000477c:	fdc10113          	add	sp,sp,-36
80004780:	cc26                	sw	s1,24(sp)
80004782:	84ae                	mv	s1,a1
80004784:	00c59713          	sll	a4,a1,0xc
80004788:	82b6                	mv	t0,a3
8000478a:	81d1                	srl	a1,a1,0x14
8000478c:	01f4d693          	srl	a3,s1,0x1f
80004790:	d006                	sw	ra,32(sp)
80004792:	ce22                	sw	s0,28(sp)
80004794:	7ff5f593          	and	a1,a1,2047
80004798:	c436                	sw	a3,8(sp)
8000479a:	8331                	srl	a4,a4,0xc
8000479c:	c5c1                	beqz	a1,80004824 <__divdf3+0xa8>
8000479e:	7ff00693          	li	a3,2047
800047a2:	0ed58863          	beq	a1,a3,80004892 <__divdf3+0x116>
800047a6:	01d55413          	srl	s0,a0,0x1d
800047aa:	070e                	sll	a4,a4,0x3
800047ac:	008007b7          	lui	a5,0x800
800047b0:	8c59                	or	s0,s0,a4
800047b2:	8c5d                	or	s0,s0,a5
800047b4:	c0158493          	add	s1,a1,-1023 # 7ffc01 <__HEAP_SIZE+0x7ff401>
800047b8:	00351793          	sll	a5,a0,0x3
800047bc:	4301                	li	t1,0
800047be:	00c29713          	sll	a4,t0,0xc
800047c2:	00c75393          	srl	t2,a4,0xc
800047c6:	0142d693          	srl	a3,t0,0x14
800047ca:	01f2d713          	srl	a4,t0,0x1f
800047ce:	7ff6f693          	and	a3,a3,2047
800047d2:	c63a                	sw	a4,12(sp)
800047d4:	cef9                	beqz	a3,800048b2 <__divdf3+0x136>
800047d6:	7ff00713          	li	a4,2047
800047da:	14e68963          	beq	a3,a4,8000492c <__divdf3+0x1b0>
800047de:	00339513          	sll	a0,t2,0x3
800047e2:	01d65713          	srl	a4,a2,0x1d
800047e6:	8f49                	or	a4,a4,a0
800047e8:	00800537          	lui	a0,0x800
800047ec:	00a763b3          	or	t2,a4,a0
800047f0:	c0168693          	add	a3,a3,-1023
800047f4:	00361513          	sll	a0,a2,0x3
800047f8:	4701                	li	a4,0
800047fa:	40d486b3          	sub	a3,s1,a3
800047fe:	4622                	lw	a2,8(sp)
80004800:	45b2                	lw	a1,12(sp)
80004802:	c036                	sw	a3,0(sp)
80004804:	00231693          	sll	a3,t1,0x2
80004808:	8e2d                	xor	a2,a2,a1
8000480a:	8ed9                	or	a3,a3,a4
8000480c:	c232                	sw	a2,4(sp)
8000480e:	16fd                	add	a3,a3,-1
80004810:	4639                	li	a2,14
80004812:	12d66a63          	bltu	a2,a3,80004946 <__divdf3+0x1ca>
80004816:	db818613          	add	a2,gp,-584 # 90000780 <_ctype_+0x104>
8000481a:	068a                	sll	a3,a3,0x2
8000481c:	96b2                	add	a3,a3,a2
8000481e:	4294                	lw	a3,0(a3)
80004820:	96b2                	add	a3,a3,a2
80004822:	8682                	jr	a3
80004824:	00a76433          	or	s0,a4,a0
80004828:	cc25                	beqz	s0,800048a0 <__divdf3+0x124>
8000482a:	c816                	sw	t0,16(sp)
8000482c:	c632                	sw	a2,12(sp)
8000482e:	cf15                	beqz	a4,8000486a <__divdf3+0xee>
80004830:	c22a                	sw	a0,4(sp)
80004832:	853a                	mv	a0,a4
80004834:	c03a                	sw	a4,0(sp)
80004836:	4a4010ef          	jal	80005cda <__clzsi2>
8000483a:	87aa                	mv	a5,a0
8000483c:	ff550593          	add	a1,a0,-11 # 7ffff5 <__HEAP_SIZE+0x7ff7f5>
80004840:	4702                	lw	a4,0(sp)
80004842:	4312                	lw	t1,4(sp)
80004844:	4632                	lw	a2,12(sp)
80004846:	42c2                	lw	t0,16(sp)
80004848:	4475                	li	s0,29
8000484a:	ff878693          	add	a3,a5,-8 # 7ffff8 <__HEAP_SIZE+0x7ff7f8>
8000484e:	8c0d                	sub	s0,s0,a1
80004850:	00d71733          	sll	a4,a4,a3
80004854:	00835433          	srl	s0,t1,s0
80004858:	8c59                	or	s0,s0,a4
8000485a:	00d31733          	sll	a4,t1,a3
8000485e:	c0d00593          	li	a1,-1011
80004862:	40f584b3          	sub	s1,a1,a5
80004866:	87ba                	mv	a5,a4
80004868:	bf91                	j	800047bc <__divdf3+0x40>
8000486a:	c23a                	sw	a4,4(sp)
8000486c:	c02a                	sw	a0,0(sp)
8000486e:	46c010ef          	jal	80005cda <__clzsi2>
80004872:	01550593          	add	a1,a0,21
80004876:	46f1                	li	a3,28
80004878:	02050793          	add	a5,a0,32
8000487c:	4302                	lw	t1,0(sp)
8000487e:	4712                	lw	a4,4(sp)
80004880:	4632                	lw	a2,12(sp)
80004882:	42c2                	lw	t0,16(sp)
80004884:	fcb6d2e3          	bge	a3,a1,80004848 <__divdf3+0xcc>
80004888:	ff850413          	add	s0,a0,-8
8000488c:	00831433          	sll	s0,t1,s0
80004890:	b7f9                	j	8000485e <__divdf3+0xe2>
80004892:	00a76433          	or	s0,a4,a0
80004896:	e809                	bnez	s0,800048a8 <__divdf3+0x12c>
80004898:	4781                	li	a5,0
8000489a:	84ae                	mv	s1,a1
8000489c:	4309                	li	t1,2
8000489e:	b705                	j	800047be <__divdf3+0x42>
800048a0:	4781                	li	a5,0
800048a2:	4481                	li	s1,0
800048a4:	4305                	li	t1,1
800048a6:	bf21                	j	800047be <__divdf3+0x42>
800048a8:	87aa                	mv	a5,a0
800048aa:	843a                	mv	s0,a4
800048ac:	84ae                	mv	s1,a1
800048ae:	430d                	li	t1,3
800048b0:	b739                	j	800047be <__divdf3+0x42>
800048b2:	00c3e533          	or	a0,t2,a2
800048b6:	c149                	beqz	a0,80004938 <__divdf3+0x1bc>
800048b8:	04038463          	beqz	t2,80004900 <__divdf3+0x184>
800048bc:	851e                	mv	a0,t2
800048be:	ca32                	sw	a2,20(sp)
800048c0:	c81a                	sw	t1,16(sp)
800048c2:	c23e                	sw	a5,4(sp)
800048c4:	c01e                	sw	t2,0(sp)
800048c6:	414010ef          	jal	80005cda <__clzsi2>
800048ca:	86aa                	mv	a3,a0
800048cc:	ff550293          	add	t0,a0,-11
800048d0:	4382                	lw	t2,0(sp)
800048d2:	4792                	lw	a5,4(sp)
800048d4:	4342                	lw	t1,16(sp)
800048d6:	4652                	lw	a2,20(sp)
800048d8:	4775                	li	a4,29
800048da:	ff868513          	add	a0,a3,-8
800048de:	40570733          	sub	a4,a4,t0
800048e2:	00a393b3          	sll	t2,t2,a0
800048e6:	00e65733          	srl	a4,a2,a4
800048ea:	00776733          	or	a4,a4,t2
800048ee:	00a613b3          	sll	t2,a2,a0
800048f2:	c0d00613          	li	a2,-1011
800048f6:	851e                	mv	a0,t2
800048f8:	40d606b3          	sub	a3,a2,a3
800048fc:	83ba                	mv	t2,a4
800048fe:	bded                	j	800047f8 <__divdf3+0x7c>
80004900:	8532                	mv	a0,a2
80004902:	ca1e                	sw	t2,20(sp)
80004904:	c81a                	sw	t1,16(sp)
80004906:	c23e                	sw	a5,4(sp)
80004908:	c032                	sw	a2,0(sp)
8000490a:	3d0010ef          	jal	80005cda <__clzsi2>
8000490e:	01550293          	add	t0,a0,21
80004912:	4771                	li	a4,28
80004914:	02050693          	add	a3,a0,32
80004918:	4602                	lw	a2,0(sp)
8000491a:	4792                	lw	a5,4(sp)
8000491c:	4342                	lw	t1,16(sp)
8000491e:	43d2                	lw	t2,20(sp)
80004920:	fa575ce3          	bge	a4,t0,800048d8 <__divdf3+0x15c>
80004924:	1561                	add	a0,a0,-8
80004926:	00a61733          	sll	a4,a2,a0
8000492a:	b7e1                	j	800048f2 <__divdf3+0x176>
8000492c:	00c3e533          	or	a0,t2,a2
80004930:	e901                	bnez	a0,80004940 <__divdf3+0x1c4>
80004932:	4381                	li	t2,0
80004934:	4709                	li	a4,2
80004936:	b5d1                	j	800047fa <__divdf3+0x7e>
80004938:	4381                	li	t2,0
8000493a:	4681                	li	a3,0
8000493c:	4705                	li	a4,1
8000493e:	bd75                	j	800047fa <__divdf3+0x7e>
80004940:	8532                	mv	a0,a2
80004942:	470d                	li	a4,3
80004944:	bd5d                	j	800047fa <__divdf3+0x7e>
80004946:	0083e663          	bltu	t2,s0,80004952 <__divdf3+0x1d6>
8000494a:	2a741c63          	bne	s0,t2,80004c02 <__divdf3+0x486>
8000494e:	2aa7ea63          	bltu	a5,a0,80004c02 <__divdf3+0x486>
80004952:	01f41693          	sll	a3,s0,0x1f
80004956:	0017d713          	srl	a4,a5,0x1
8000495a:	01f79313          	sll	t1,a5,0x1f
8000495e:	8005                	srl	s0,s0,0x1
80004960:	00e6e7b3          	or	a5,a3,a4
80004964:	00839713          	sll	a4,t2,0x8
80004968:	01075493          	srl	s1,a4,0x10
8000496c:	029456b3          	divu	a3,s0,s1
80004970:	01855613          	srl	a2,a0,0x18
80004974:	8e59                	or	a2,a2,a4
80004976:	01061713          	sll	a4,a2,0x10
8000497a:	8341                	srl	a4,a4,0x10
8000497c:	c43a                	sw	a4,8(sp)
8000497e:	0107d593          	srl	a1,a5,0x10
80004982:	00851293          	sll	t0,a0,0x8
80004986:	02947433          	remu	s0,s0,s1
8000498a:	02d70733          	mul	a4,a4,a3
8000498e:	0442                	sll	s0,s0,0x10
80004990:	8c4d                	or	s0,s0,a1
80004992:	85b6                	mv	a1,a3
80004994:	00e47c63          	bgeu	s0,a4,800049ac <__divdf3+0x230>
80004998:	9432                	add	s0,s0,a2
8000499a:	fff68593          	add	a1,a3,-1
8000499e:	00c46763          	bltu	s0,a2,800049ac <__divdf3+0x230>
800049a2:	00e47563          	bgeu	s0,a4,800049ac <__divdf3+0x230>
800049a6:	ffe68593          	add	a1,a3,-2
800049aa:	9432                	add	s0,s0,a2
800049ac:	8c19                	sub	s0,s0,a4
800049ae:	029456b3          	divu	a3,s0,s1
800049b2:	01061713          	sll	a4,a2,0x10
800049b6:	8341                	srl	a4,a4,0x10
800049b8:	07c2                	sll	a5,a5,0x10
800049ba:	83c1                	srl	a5,a5,0x10
800049bc:	02947433          	remu	s0,s0,s1
800049c0:	8536                	mv	a0,a3
800049c2:	02d70733          	mul	a4,a4,a3
800049c6:	0442                	sll	s0,s0,0x10
800049c8:	8fc1                	or	a5,a5,s0
800049ca:	00e7fc63          	bgeu	a5,a4,800049e2 <__divdf3+0x266>
800049ce:	97b2                	add	a5,a5,a2
800049d0:	fff68513          	add	a0,a3,-1
800049d4:	00c7e763          	bltu	a5,a2,800049e2 <__divdf3+0x266>
800049d8:	00e7f563          	bgeu	a5,a4,800049e2 <__divdf3+0x266>
800049dc:	ffe68513          	add	a0,a3,-2
800049e0:	97b2                	add	a5,a5,a2
800049e2:	05c2                	sll	a1,a1,0x10
800049e4:	8dc9                	or	a1,a1,a0
800049e6:	8f99                	sub	a5,a5,a4
800049e8:	01029693          	sll	a3,t0,0x10
800049ec:	01059713          	sll	a4,a1,0x10
800049f0:	82c1                	srl	a3,a3,0x10
800049f2:	0102d413          	srl	s0,t0,0x10
800049f6:	0105d513          	srl	a0,a1,0x10
800049fa:	8341                	srl	a4,a4,0x10
800049fc:	02e683b3          	mul	t2,a3,a4
80004a00:	c436                	sw	a3,8(sp)
80004a02:	02e40733          	mul	a4,s0,a4
80004a06:	02d506b3          	mul	a3,a0,a3
80004a0a:	02850533          	mul	a0,a0,s0
80004a0e:	9736                	add	a4,a4,a3
80004a10:	0103d413          	srl	s0,t2,0x10
80004a14:	9722                	add	a4,a4,s0
80004a16:	00d77463          	bgeu	a4,a3,80004a1e <__divdf3+0x2a2>
80004a1a:	66c1                	lui	a3,0x10
80004a1c:	9536                	add	a0,a0,a3
80004a1e:	03c2                	sll	t2,t2,0x10
80004a20:	01075693          	srl	a3,a4,0x10
80004a24:	0103d393          	srl	t2,t2,0x10
80004a28:	0742                	sll	a4,a4,0x10
80004a2a:	971e                	add	a4,a4,t2
80004a2c:	96aa                	add	a3,a3,a0
80004a2e:	c43a                	sw	a4,8(sp)
80004a30:	00d7e763          	bltu	a5,a3,80004a3e <__divdf3+0x2c2>
80004a34:	83ae                	mv	t2,a1
80004a36:	04d79263          	bne	a5,a3,80004a7a <__divdf3+0x2fe>
80004a3a:	04e37063          	bgeu	t1,a4,80004a7a <__divdf3+0x2fe>
80004a3e:	00530533          	add	a0,t1,t0
80004a42:	00653433          	sltu	s0,a0,t1
80004a46:	00c40733          	add	a4,s0,a2
80004a4a:	97ba                	add	a5,a5,a4
80004a4c:	fff58393          	add	t2,a1,-1
80004a50:	832a                	mv	t1,a0
80004a52:	00f66563          	bltu	a2,a5,80004a5c <__divdf3+0x2e0>
80004a56:	02f61263          	bne	a2,a5,80004a7a <__divdf3+0x2fe>
80004a5a:	e005                	bnez	s0,80004a7a <__divdf3+0x2fe>
80004a5c:	00d7e763          	bltu	a5,a3,80004a6a <__divdf3+0x2ee>
80004a60:	00f69d63          	bne	a3,a5,80004a7a <__divdf3+0x2fe>
80004a64:	4722                	lw	a4,8(sp)
80004a66:	00e57a63          	bgeu	a0,a4,80004a7a <__divdf3+0x2fe>
80004a6a:	9516                	add	a0,a0,t0
80004a6c:	ffe58393          	add	t2,a1,-2
80004a70:	005535b3          	sltu	a1,a0,t0
80004a74:	95b2                	add	a1,a1,a2
80004a76:	832a                	mv	t1,a0
80004a78:	97ae                	add	a5,a5,a1
80004a7a:	4722                	lw	a4,8(sp)
80004a7c:	40e30733          	sub	a4,t1,a4
80004a80:	40d786b3          	sub	a3,a5,a3
80004a84:	00e33333          	sltu	t1,t1,a4
80004a88:	406686b3          	sub	a3,a3,t1
80004a8c:	557d                	li	a0,-1
80004a8e:	10d60063          	beq	a2,a3,80004b8e <__divdf3+0x412>
80004a92:	0296d533          	divu	a0,a3,s1
80004a96:	01061793          	sll	a5,a2,0x10
80004a9a:	83c1                	srl	a5,a5,0x10
80004a9c:	02a785b3          	mul	a1,a5,a0
80004aa0:	0296f7b3          	remu	a5,a3,s1
80004aa4:	01075693          	srl	a3,a4,0x10
80004aa8:	07c2                	sll	a5,a5,0x10
80004aaa:	8fd5                	or	a5,a5,a3
80004aac:	86aa                	mv	a3,a0
80004aae:	00b7fc63          	bgeu	a5,a1,80004ac6 <__divdf3+0x34a>
80004ab2:	97b2                	add	a5,a5,a2
80004ab4:	fff50693          	add	a3,a0,-1
80004ab8:	00c7e763          	bltu	a5,a2,80004ac6 <__divdf3+0x34a>
80004abc:	00b7f563          	bgeu	a5,a1,80004ac6 <__divdf3+0x34a>
80004ac0:	ffe50693          	add	a3,a0,-2
80004ac4:	97b2                	add	a5,a5,a2
80004ac6:	8f8d                	sub	a5,a5,a1
80004ac8:	0297d533          	divu	a0,a5,s1
80004acc:	01061593          	sll	a1,a2,0x10
80004ad0:	81c1                	srl	a1,a1,0x10
80004ad2:	0742                	sll	a4,a4,0x10
80004ad4:	8341                	srl	a4,a4,0x10
80004ad6:	0297f7b3          	remu	a5,a5,s1
80004ada:	832a                	mv	t1,a0
80004adc:	02a585b3          	mul	a1,a1,a0
80004ae0:	07c2                	sll	a5,a5,0x10
80004ae2:	8f5d                	or	a4,a4,a5
80004ae4:	00b77c63          	bgeu	a4,a1,80004afc <__divdf3+0x380>
80004ae8:	9732                	add	a4,a4,a2
80004aea:	fff50313          	add	t1,a0,-1
80004aee:	00c76763          	bltu	a4,a2,80004afc <__divdf3+0x380>
80004af2:	00b77563          	bgeu	a4,a1,80004afc <__divdf3+0x380>
80004af6:	ffe50313          	add	t1,a0,-2
80004afa:	9732                	add	a4,a4,a2
80004afc:	06c2                	sll	a3,a3,0x10
80004afe:	0066e6b3          	or	a3,a3,t1
80004b02:	01029413          	sll	s0,t0,0x10
80004b06:	0106d793          	srl	a5,a3,0x10
80004b0a:	8041                	srl	s0,s0,0x10
80004b0c:	8f0d                	sub	a4,a4,a1
80004b0e:	01069513          	sll	a0,a3,0x10
80004b12:	01029593          	sll	a1,t0,0x10
80004b16:	02878333          	mul	t1,a5,s0
80004b1a:	8141                	srl	a0,a0,0x10
80004b1c:	0102d413          	srl	s0,t0,0x10
80004b20:	81c1                	srl	a1,a1,0x10
80004b22:	02b505b3          	mul	a1,a0,a1
80004b26:	02a40533          	mul	a0,s0,a0
80004b2a:	02f407b3          	mul	a5,s0,a5
80004b2e:	951a                	add	a0,a0,t1
80004b30:	0105d413          	srl	s0,a1,0x10
80004b34:	9522                	add	a0,a0,s0
80004b36:	00657463          	bgeu	a0,t1,80004b3e <__divdf3+0x3c2>
80004b3a:	6341                	lui	t1,0x10
80004b3c:	979a                	add	a5,a5,t1
80004b3e:	01055313          	srl	t1,a0,0x10
80004b42:	05c2                	sll	a1,a1,0x10
80004b44:	0542                	sll	a0,a0,0x10
80004b46:	81c1                	srl	a1,a1,0x10
80004b48:	979a                	add	a5,a5,t1
80004b4a:	95aa                	add	a1,a1,a0
80004b4c:	00f76663          	bltu	a4,a5,80004b58 <__divdf3+0x3dc>
80004b50:	18f71e63          	bne	a4,a5,80004cec <__divdf3+0x570>
80004b54:	8536                	mv	a0,a3
80004b56:	cd85                	beqz	a1,80004b8e <__divdf3+0x412>
80004b58:	9732                	add	a4,a4,a2
80004b5a:	fff68513          	add	a0,a3,-1 # ffff <__HEAP_SIZE+0xf7ff>
80004b5e:	833a                	mv	t1,a4
80004b60:	02c76163          	bltu	a4,a2,80004b82 <__divdf3+0x406>
80004b64:	00f76663          	bltu	a4,a5,80004b70 <__divdf3+0x3f4>
80004b68:	18f71163          	bne	a4,a5,80004cea <__divdf3+0x56e>
80004b6c:	00b2fd63          	bgeu	t0,a1,80004b86 <__divdf3+0x40a>
80004b70:	ffe68513          	add	a0,a3,-2
80004b74:	00129693          	sll	a3,t0,0x1
80004b78:	0056b333          	sltu	t1,a3,t0
80004b7c:	9332                	add	t1,t1,a2
80004b7e:	933a                	add	t1,t1,a4
80004b80:	82b6                	mv	t0,a3
80004b82:	00f31463          	bne	t1,a5,80004b8a <__divdf3+0x40e>
80004b86:	00558463          	beq	a1,t0,80004b8e <__divdf3+0x412>
80004b8a:	00156513          	or	a0,a0,1
80004b8e:	4782                	lw	a5,0(sp)
80004b90:	3ff78693          	add	a3,a5,1023
80004b94:	0ad05863          	blez	a3,80004c44 <__divdf3+0x4c8>
80004b98:	00757793          	and	a5,a0,7
80004b9c:	cf81                	beqz	a5,80004bb4 <__divdf3+0x438>
80004b9e:	00f57793          	and	a5,a0,15
80004ba2:	4711                	li	a4,4
80004ba4:	00e78863          	beq	a5,a4,80004bb4 <__divdf3+0x438>
80004ba8:	00e507b3          	add	a5,a0,a4
80004bac:	00a7b733          	sltu	a4,a5,a0
80004bb0:	93ba                	add	t2,t2,a4
80004bb2:	853e                	mv	a0,a5
80004bb4:	00739793          	sll	a5,t2,0x7
80004bb8:	0007da63          	bgez	a5,80004bcc <__divdf3+0x450>
80004bbc:	ff0007b7          	lui	a5,0xff000
80004bc0:	17fd                	add	a5,a5,-1 # feffffff <_sp+0x6efeffff>
80004bc2:	00f3f3b3          	and	t2,t2,a5
80004bc6:	4782                	lw	a5,0(sp)
80004bc8:	40078693          	add	a3,a5,1024
80004bcc:	7fe00793          	li	a5,2046
80004bd0:	04d7cc63          	blt	a5,a3,80004c28 <__divdf3+0x4ac>
80004bd4:	00355793          	srl	a5,a0,0x3
80004bd8:	01d39513          	sll	a0,t2,0x1d
80004bdc:	8d5d                	or	a0,a0,a5
80004bde:	0033d793          	srl	a5,t2,0x3
80004be2:	07b2                	sll	a5,a5,0xc
80004be4:	4712                	lw	a4,4(sp)
80004be6:	06d2                	sll	a3,a3,0x14
80004be8:	83b1                	srl	a5,a5,0xc
80004bea:	8fd5                	or	a5,a5,a3
80004bec:	01f71613          	sll	a2,a4,0x1f
80004bf0:	5082                	lw	ra,32(sp)
80004bf2:	4472                	lw	s0,28(sp)
80004bf4:	00c7e733          	or	a4,a5,a2
80004bf8:	44e2                	lw	s1,24(sp)
80004bfa:	85ba                	mv	a1,a4
80004bfc:	02410113          	add	sp,sp,36
80004c00:	8082                	ret
80004c02:	4702                	lw	a4,0(sp)
80004c04:	177d                	add	a4,a4,-1
80004c06:	c03a                	sw	a4,0(sp)
80004c08:	4301                	li	t1,0
80004c0a:	bba9                	j	80004964 <__divdf3+0x1e8>
80004c0c:	4722                	lw	a4,8(sp)
80004c0e:	c23a                	sw	a4,4(sp)
80004c10:	83a2                	mv	t2,s0
80004c12:	853e                	mv	a0,a5
80004c14:	871a                	mv	a4,t1
80004c16:	478d                	li	a5,3
80004c18:	0af70b63          	beq	a4,a5,80004cce <__divdf3+0x552>
80004c1c:	4785                	li	a5,1
80004c1e:	0af70f63          	beq	a4,a5,80004cdc <__divdf3+0x560>
80004c22:	4789                	li	a5,2
80004c24:	f6f715e3          	bne	a4,a5,80004b8e <__divdf3+0x412>
80004c28:	4781                	li	a5,0
80004c2a:	4501                	li	a0,0
80004c2c:	7ff00693          	li	a3,2047
80004c30:	bf4d                	j	80004be2 <__divdf3+0x466>
80004c32:	47b2                	lw	a5,12(sp)
80004c34:	c23e                	sw	a5,4(sp)
80004c36:	b7c5                	j	80004c16 <__divdf3+0x49a>
80004c38:	000803b7          	lui	t2,0x80
80004c3c:	4501                	li	a0,0
80004c3e:	c202                	sw	zero,4(sp)
80004c40:	470d                	li	a4,3
80004c42:	bfd1                	j	80004c16 <__divdf3+0x49a>
80004c44:	4785                	li	a5,1
80004c46:	8f95                	sub	a5,a5,a3
80004c48:	03800713          	li	a4,56
80004c4c:	08f74863          	blt	a4,a5,80004cdc <__divdf3+0x560>
80004c50:	477d                	li	a4,31
80004c52:	04f74a63          	blt	a4,a5,80004ca6 <__divdf3+0x52a>
80004c56:	4702                	lw	a4,0(sp)
80004c58:	41e70693          	add	a3,a4,1054
80004c5c:	00d39733          	sll	a4,t2,a3
80004c60:	00f55633          	srl	a2,a0,a5
80004c64:	00d516b3          	sll	a3,a0,a3
80004c68:	8f51                	or	a4,a4,a2
80004c6a:	00d036b3          	snez	a3,a3
80004c6e:	8f55                	or	a4,a4,a3
80004c70:	00f3d7b3          	srl	a5,t2,a5
80004c74:	00777693          	and	a3,a4,7
80004c78:	ce81                	beqz	a3,80004c90 <__divdf3+0x514>
80004c7a:	00f77693          	and	a3,a4,15
80004c7e:	4611                	li	a2,4
80004c80:	00c68863          	beq	a3,a2,80004c90 <__divdf3+0x514>
80004c84:	00c706b3          	add	a3,a4,a2
80004c88:	00e6b633          	sltu	a2,a3,a4
80004c8c:	97b2                	add	a5,a5,a2
80004c8e:	8736                	mv	a4,a3
80004c90:	00879693          	sll	a3,a5,0x8
80004c94:	0406c763          	bltz	a3,80004ce2 <__divdf3+0x566>
80004c98:	01d79513          	sll	a0,a5,0x1d
80004c9c:	830d                	srl	a4,a4,0x3
80004c9e:	8d59                	or	a0,a0,a4
80004ca0:	838d                	srl	a5,a5,0x3
80004ca2:	4681                	li	a3,0
80004ca4:	bf3d                	j	80004be2 <__divdf3+0x466>
80004ca6:	5705                	li	a4,-31
80004ca8:	8f15                	sub	a4,a4,a3
80004caa:	02000613          	li	a2,32
80004cae:	00e3d733          	srl	a4,t2,a4
80004cb2:	4681                	li	a3,0
80004cb4:	00c78763          	beq	a5,a2,80004cc2 <__divdf3+0x546>
80004cb8:	4782                	lw	a5,0(sp)
80004cba:	43e78693          	add	a3,a5,1086
80004cbe:	00d396b3          	sll	a3,t2,a3
80004cc2:	8ec9                	or	a3,a3,a0
80004cc4:	00d036b3          	snez	a3,a3
80004cc8:	8f55                	or	a4,a4,a3
80004cca:	4781                	li	a5,0
80004ccc:	b765                	j	80004c74 <__divdf3+0x4f8>
80004cce:	000807b7          	lui	a5,0x80
80004cd2:	4501                	li	a0,0
80004cd4:	7ff00693          	li	a3,2047
80004cd8:	c202                	sw	zero,4(sp)
80004cda:	b721                	j	80004be2 <__divdf3+0x466>
80004cdc:	4781                	li	a5,0
80004cde:	4501                	li	a0,0
80004ce0:	b7c9                	j	80004ca2 <__divdf3+0x526>
80004ce2:	4781                	li	a5,0
80004ce4:	4501                	li	a0,0
80004ce6:	4685                	li	a3,1
80004ce8:	bded                	j	80004be2 <__divdf3+0x466>
80004cea:	86aa                	mv	a3,a0
80004cec:	8536                	mv	a0,a3
80004cee:	bd71                	j	80004b8a <__divdf3+0x40e>

80004cf0 <__eqdf2>:
__eqdf2():
80004cf0:	001007b7          	lui	a5,0x100
80004cf4:	17fd                	add	a5,a5,-1 # fffff <__HEAP_SIZE+0xff7ff>
80004cf6:	1151                	add	sp,sp,-12
80004cf8:	00b7f2b3          	and	t0,a5,a1
80004cfc:	0145d713          	srl	a4,a1,0x14
80004d00:	81fd                	srl	a1,a1,0x1f
80004d02:	c422                	sw	s0,8(sp)
80004d04:	c226                	sw	s1,4(sp)
80004d06:	832a                	mv	t1,a0
80004d08:	842a                	mv	s0,a0
80004d0a:	c02e                	sw	a1,0(sp)
80004d0c:	7ff77713          	and	a4,a4,2047
80004d10:	0146d593          	srl	a1,a3,0x14
80004d14:	7ff00513          	li	a0,2047
80004d18:	8ff5                	and	a5,a5,a3
80004d1a:	84b2                	mv	s1,a2
80004d1c:	7ff5f593          	and	a1,a1,2047
80004d20:	82fd                	srl	a3,a3,0x1f
80004d22:	00a71a63          	bne	a4,a0,80004d36 <__eqdf2+0x46>
80004d26:	0062e3b3          	or	t2,t0,t1
80004d2a:	4505                	li	a0,1
80004d2c:	02039963          	bnez	t2,80004d5e <__eqdf2+0x6e>
80004d30:	02e59763          	bne	a1,a4,80004d5e <__eqdf2+0x6e>
80004d34:	a019                	j	80004d3a <__eqdf2+0x4a>
80004d36:	00a59563          	bne	a1,a0,80004d40 <__eqdf2+0x50>
80004d3a:	8e5d                	or	a2,a2,a5
80004d3c:	4505                	li	a0,1
80004d3e:	e205                	bnez	a2,80004d5e <__eqdf2+0x6e>
80004d40:	4505                	li	a0,1
80004d42:	00b71e63          	bne	a4,a1,80004d5e <__eqdf2+0x6e>
80004d46:	00f29c63          	bne	t0,a5,80004d5e <__eqdf2+0x6e>
80004d4a:	00941a63          	bne	s0,s1,80004d5e <__eqdf2+0x6e>
80004d4e:	4782                	lw	a5,0(sp)
80004d50:	00d78b63          	beq	a5,a3,80004d66 <__eqdf2+0x76>
80004d54:	e709                	bnez	a4,80004d5e <__eqdf2+0x6e>
80004d56:	0062e533          	or	a0,t0,t1
80004d5a:	00a03533          	snez	a0,a0
80004d5e:	4422                	lw	s0,8(sp)
80004d60:	4492                	lw	s1,4(sp)
80004d62:	0131                	add	sp,sp,12
80004d64:	8082                	ret
80004d66:	4501                	li	a0,0
80004d68:	bfdd                	j	80004d5e <__eqdf2+0x6e>

80004d6a <__gedf2>:
__gtdf2():
80004d6a:	1161                	add	sp,sp,-8
80004d6c:	0145d313          	srl	t1,a1,0x14
80004d70:	001007b7          	lui	a5,0x100
80004d74:	17fd                	add	a5,a5,-1 # fffff <__HEAP_SIZE+0xff7ff>
80004d76:	c222                	sw	s0,4(sp)
80004d78:	c026                	sw	s1,0(sp)
80004d7a:	872a                	mv	a4,a0
80004d7c:	84aa                	mv	s1,a0
80004d7e:	7ff37313          	and	t1,t1,2047
80004d82:	0146d513          	srl	a0,a3,0x14
80004d86:	7ff00413          	li	s0,2047
80004d8a:	00b7f2b3          	and	t0,a5,a1
80004d8e:	83b2                	mv	t2,a2
80004d90:	8ff5                	and	a5,a5,a3
80004d92:	81fd                	srl	a1,a1,0x1f
80004d94:	7ff57513          	and	a0,a0,2047
80004d98:	82fd                	srl	a3,a3,0x1f
80004d9a:	00831563          	bne	t1,s0,80004da4 <__gedf2+0x3a>
80004d9e:	00e2e433          	or	s0,t0,a4
80004da2:	e829                	bnez	s0,80004df4 <__gedf2+0x8a>
80004da4:	7ff00413          	li	s0,2047
80004da8:	00851563          	bne	a0,s0,80004db2 <__gedf2+0x48>
80004dac:	00c7e433          	or	s0,a5,a2
80004db0:	e031                	bnez	s0,80004df4 <__gedf2+0x8a>
80004db2:	4401                	li	s0,0
80004db4:	00031663          	bnez	t1,80004dc0 <__gedf2+0x56>
80004db8:	00e2e733          	or	a4,t0,a4
80004dbc:	00173413          	seqz	s0,a4
80004dc0:	ed05                	bnez	a0,80004df8 <__gedf2+0x8e>
80004dc2:	8e5d                	or	a2,a2,a5
80004dc4:	c411                	beqz	s0,80004dd0 <__gedf2+0x66>
80004dc6:	c231                	beqz	a2,80004e0a <__gedf2+0xa0>
80004dc8:	00169513          	sll	a0,a3,0x1
80004dcc:	157d                	add	a0,a0,-1
80004dce:	a835                	j	80004e0a <__gedf2+0xa0>
80004dd0:	e60d                	bnez	a2,80004dfa <__gedf2+0x90>
80004dd2:	40b00533          	neg	a0,a1
80004dd6:	a805                	j	80004e06 <__gedf2+0x9c>
80004dd8:	fea348e3          	blt	t1,a0,80004dc8 <__gedf2+0x5e>
80004ddc:	fe57ebe3          	bltu	a5,t0,80004dd2 <__gedf2+0x68>
80004de0:	00f29763          	bne	t0,a5,80004dee <__gedf2+0x84>
80004de4:	fe93e7e3          	bltu	t2,s1,80004dd2 <__gedf2+0x68>
80004de8:	4501                	li	a0,0
80004dea:	0274f063          	bgeu	s1,t2,80004e0a <__gedf2+0xa0>
80004dee:	00159513          	sll	a0,a1,0x1
80004df2:	bfe9                	j	80004dcc <__gedf2+0x62>
80004df4:	5579                	li	a0,-2
80004df6:	a811                	j	80004e0a <__gedf2+0xa0>
80004df8:	f861                	bnez	s0,80004dc8 <__gedf2+0x5e>
80004dfa:	fcb69ce3          	bne	a3,a1,80004dd2 <__gedf2+0x68>
80004dfe:	fc655de3          	bge	a0,t1,80004dd8 <__gedf2+0x6e>
80004e02:	40d00533          	neg	a0,a3
80004e06:	00156513          	or	a0,a0,1
80004e0a:	4412                	lw	s0,4(sp)
80004e0c:	4482                	lw	s1,0(sp)
80004e0e:	0121                	add	sp,sp,8
80004e10:	8082                	ret

80004e12 <__ledf2>:
__ltdf2():
80004e12:	1161                	add	sp,sp,-8
80004e14:	0145d313          	srl	t1,a1,0x14
80004e18:	001007b7          	lui	a5,0x100
80004e1c:	17fd                	add	a5,a5,-1 # fffff <__HEAP_SIZE+0xff7ff>
80004e1e:	c222                	sw	s0,4(sp)
80004e20:	c026                	sw	s1,0(sp)
80004e22:	872a                	mv	a4,a0
80004e24:	84aa                	mv	s1,a0
80004e26:	7ff37313          	and	t1,t1,2047
80004e2a:	0146d513          	srl	a0,a3,0x14
80004e2e:	7ff00413          	li	s0,2047
80004e32:	00b7f2b3          	and	t0,a5,a1
80004e36:	83b2                	mv	t2,a2
80004e38:	8ff5                	and	a5,a5,a3
80004e3a:	81fd                	srl	a1,a1,0x1f
80004e3c:	7ff57513          	and	a0,a0,2047
80004e40:	82fd                	srl	a3,a3,0x1f
80004e42:	00831563          	bne	t1,s0,80004e4c <__ledf2+0x3a>
80004e46:	00e2e433          	or	s0,t0,a4
80004e4a:	e829                	bnez	s0,80004e9c <__ledf2+0x8a>
80004e4c:	7ff00413          	li	s0,2047
80004e50:	00851563          	bne	a0,s0,80004e5a <__ledf2+0x48>
80004e54:	00c7e433          	or	s0,a5,a2
80004e58:	e031                	bnez	s0,80004e9c <__ledf2+0x8a>
80004e5a:	4401                	li	s0,0
80004e5c:	00031663          	bnez	t1,80004e68 <__ledf2+0x56>
80004e60:	00e2e733          	or	a4,t0,a4
80004e64:	00173413          	seqz	s0,a4
80004e68:	ed05                	bnez	a0,80004ea0 <__ledf2+0x8e>
80004e6a:	8e5d                	or	a2,a2,a5
80004e6c:	c411                	beqz	s0,80004e78 <__ledf2+0x66>
80004e6e:	c231                	beqz	a2,80004eb2 <__ledf2+0xa0>
80004e70:	00169513          	sll	a0,a3,0x1
80004e74:	157d                	add	a0,a0,-1
80004e76:	a835                	j	80004eb2 <__ledf2+0xa0>
80004e78:	e60d                	bnez	a2,80004ea2 <__ledf2+0x90>
80004e7a:	40b00533          	neg	a0,a1
80004e7e:	a805                	j	80004eae <__ledf2+0x9c>
80004e80:	fea348e3          	blt	t1,a0,80004e70 <__ledf2+0x5e>
80004e84:	fe57ebe3          	bltu	a5,t0,80004e7a <__ledf2+0x68>
80004e88:	00f29763          	bne	t0,a5,80004e96 <__ledf2+0x84>
80004e8c:	fe93e7e3          	bltu	t2,s1,80004e7a <__ledf2+0x68>
80004e90:	4501                	li	a0,0
80004e92:	0274f063          	bgeu	s1,t2,80004eb2 <__ledf2+0xa0>
80004e96:	00159513          	sll	a0,a1,0x1
80004e9a:	bfe9                	j	80004e74 <__ledf2+0x62>
80004e9c:	4509                	li	a0,2
80004e9e:	a811                	j	80004eb2 <__ledf2+0xa0>
80004ea0:	f861                	bnez	s0,80004e70 <__ledf2+0x5e>
80004ea2:	fcb69ce3          	bne	a3,a1,80004e7a <__ledf2+0x68>
80004ea6:	fc655de3          	bge	a0,t1,80004e80 <__ledf2+0x6e>
80004eaa:	40d00533          	neg	a0,a3
80004eae:	00156513          	or	a0,a0,1
80004eb2:	4412                	lw	s0,4(sp)
80004eb4:	4482                	lw	s1,0(sp)
80004eb6:	0121                	add	sp,sp,8
80004eb8:	8082                	ret

80004eba <__muldf3>:
__muldf3():
80004eba:	fdc10113          	add	sp,sp,-36
80004ebe:	00c59793          	sll	a5,a1,0xc
80004ec2:	cc26                	sw	s1,24(sp)
80004ec4:	84ae                	mv	s1,a1
80004ec6:	81d1                	srl	a1,a1,0x14
80004ec8:	ce22                	sw	s0,28(sp)
80004eca:	d006                	sw	ra,32(sp)
80004ecc:	7ff5f593          	and	a1,a1,2047
80004ed0:	842a                	mv	s0,a0
80004ed2:	83b1                	srl	a5,a5,0xc
80004ed4:	80fd                	srl	s1,s1,0x1f
80004ed6:	1e058563          	beqz	a1,800050c0 <__muldf3+0x206>
80004eda:	7ff00713          	li	a4,2047
80004ede:	24e58563          	beq	a1,a4,80005128 <__muldf3+0x26e>
80004ee2:	078e                	sll	a5,a5,0x3
80004ee4:	01d55713          	srl	a4,a0,0x1d
80004ee8:	8f5d                	or	a4,a4,a5
80004eea:	008007b7          	lui	a5,0x800
80004eee:	8fd9                	or	a5,a5,a4
80004ef0:	c0158593          	add	a1,a1,-1023
80004ef4:	00351713          	sll	a4,a0,0x3
80004ef8:	4301                	li	t1,0
80004efa:	00c69413          	sll	s0,a3,0xc
80004efe:	0146d293          	srl	t0,a3,0x14
80004f02:	82fd                	srl	a3,a3,0x1f
80004f04:	7ff2f293          	and	t0,t0,2047
80004f08:	c436                	sw	a3,8(sp)
80004f0a:	8031                	srl	s0,s0,0xc
80004f0c:	22028b63          	beqz	t0,80005142 <__muldf3+0x288>
80004f10:	7ff00693          	li	a3,2047
80004f14:	2ad28563          	beq	t0,a3,800051be <__muldf3+0x304>
80004f18:	01d65693          	srl	a3,a2,0x1d
80004f1c:	040e                	sll	s0,s0,0x3
80004f1e:	8ec1                	or	a3,a3,s0
80004f20:	00800437          	lui	s0,0x800
80004f24:	00361513          	sll	a0,a2,0x3
80004f28:	8c55                	or	s0,s0,a3
80004f2a:	c0128613          	add	a2,t0,-1023
80004f2e:	4681                	li	a3,0
80004f30:	962e                	add	a2,a2,a1
80004f32:	c232                	sw	a2,4(sp)
80004f34:	0605                	add	a2,a2,1 # 7ff00001 <__HEAP_SIZE+0x7feff801>
80004f36:	c032                	sw	a2,0(sp)
80004f38:	00231613          	sll	a2,t1,0x2
80004f3c:	8e55                	or	a2,a2,a3
80004f3e:	45a9                	li	a1,10
80004f40:	32c5cd63          	blt	a1,a2,8000527a <__muldf3+0x3c0>
80004f44:	45a2                	lw	a1,8(sp)
80004f46:	4289                	li	t0,2
80004f48:	8cad                	xor	s1,s1,a1
80004f4a:	4585                	li	a1,1
80004f4c:	28c2c863          	blt	t0,a2,800051dc <__muldf3+0x322>
80004f50:	167d                	add	a2,a2,-1
80004f52:	2ac5f363          	bgeu	a1,a2,800051f8 <__muldf3+0x33e>
80004f56:	01075593          	srl	a1,a4,0x10
80004f5a:	01055693          	srl	a3,a0,0x10
80004f5e:	0742                	sll	a4,a4,0x10
80004f60:	0542                	sll	a0,a0,0x10
80004f62:	8341                	srl	a4,a4,0x10
80004f64:	8141                	srl	a0,a0,0x10
80004f66:	02d58633          	mul	a2,a1,a3
80004f6a:	02a70333          	mul	t1,a4,a0
80004f6e:	c432                	sw	a2,8(sp)
80004f70:	02a583b3          	mul	t2,a1,a0
80004f74:	01035613          	srl	a2,t1,0x10
80004f78:	02e682b3          	mul	t0,a3,a4
80004f7c:	929e                	add	t0,t0,t2
80004f7e:	9616                	add	a2,a2,t0
80004f80:	00767763          	bgeu	a2,t2,80004f8e <__muldf3+0xd4>
80004f84:	02d583b3          	mul	t2,a1,a3
80004f88:	62c1                	lui	t0,0x10
80004f8a:	929e                	add	t0,t0,t2
80004f8c:	c416                	sw	t0,8(sp)
80004f8e:	0342                	sll	t1,t1,0x10
80004f90:	01065293          	srl	t0,a2,0x10
80004f94:	01035313          	srl	t1,t1,0x10
80004f98:	0642                	sll	a2,a2,0x10
80004f9a:	961a                	add	a2,a2,t1
80004f9c:	c832                	sw	a2,16(sp)
80004f9e:	01045613          	srl	a2,s0,0x10
80004fa2:	0442                	sll	s0,s0,0x10
80004fa4:	8041                	srl	s0,s0,0x10
80004fa6:	02870333          	mul	t1,a4,s0
80004faa:	c616                	sw	t0,12(sp)
80004fac:	02e60733          	mul	a4,a2,a4
80004fb0:	01035393          	srl	t2,t1,0x10
80004fb4:	028582b3          	mul	t0,a1,s0
80004fb8:	9716                	add	a4,a4,t0
80004fba:	971e                	add	a4,a4,t2
80004fbc:	02c585b3          	mul	a1,a1,a2
80004fc0:	00577463          	bgeu	a4,t0,80004fc8 <__muldf3+0x10e>
80004fc4:	62c1                	lui	t0,0x10
80004fc6:	9596                	add	a1,a1,t0
80004fc8:	0342                	sll	t1,t1,0x10
80004fca:	01075293          	srl	t0,a4,0x10
80004fce:	01035313          	srl	t1,t1,0x10
80004fd2:	0742                	sll	a4,a4,0x10
80004fd4:	006703b3          	add	t2,a4,t1
80004fd8:	4732                	lw	a4,12(sp)
80004fda:	971e                	add	a4,a4,t2
80004fdc:	c63a                	sw	a4,12(sp)
80004fde:	0107d713          	srl	a4,a5,0x10
80004fe2:	07c2                	sll	a5,a5,0x10
80004fe4:	9596                	add	a1,a1,t0
80004fe6:	83c1                	srl	a5,a5,0x10
80004fe8:	02e68333          	mul	t1,a3,a4
80004fec:	ca2e                	sw	a1,20(sp)
80004fee:	02f686b3          	mul	a3,a3,a5
80004ff2:	02f505b3          	mul	a1,a0,a5
80004ff6:	02a70533          	mul	a0,a4,a0
80004ffa:	96aa                	add	a3,a3,a0
80004ffc:	82b6                	mv	t0,a3
80004ffe:	0105d693          	srl	a3,a1,0x10
80005002:	9696                	add	a3,a3,t0
80005004:	00a6f463          	bgeu	a3,a0,8000500c <__muldf3+0x152>
80005008:	6541                	lui	a0,0x10
8000500a:	932a                	add	t1,t1,a0
8000500c:	05c2                	sll	a1,a1,0x10
8000500e:	0106d513          	srl	a0,a3,0x10
80005012:	81c1                	srl	a1,a1,0x10
80005014:	06c2                	sll	a3,a3,0x10
80005016:	96ae                	add	a3,a3,a1
80005018:	02f405b3          	mul	a1,s0,a5
8000501c:	951a                	add	a0,a0,t1
8000501e:	02870433          	mul	s0,a4,s0
80005022:	02e60733          	mul	a4,a2,a4
80005026:	02f60633          	mul	a2,a2,a5
8000502a:	0105d793          	srl	a5,a1,0x10
8000502e:	9622                	add	a2,a2,s0
80005030:	963e                	add	a2,a2,a5
80005032:	00867463          	bgeu	a2,s0,8000503a <__muldf3+0x180>
80005036:	67c1                	lui	a5,0x10
80005038:	973e                	add	a4,a4,a5
8000503a:	05c2                	sll	a1,a1,0x10
8000503c:	01061313          	sll	t1,a2,0x10
80005040:	4432                	lw	s0,12(sp)
80005042:	47a2                	lw	a5,8(sp)
80005044:	81c1                	srl	a1,a1,0x10
80005046:	97a2                	add	a5,a5,s0
80005048:	959a                	add	a1,a1,t1
8000504a:	4452                	lw	s0,20(sp)
8000504c:	00858333          	add	t1,a1,s0
80005050:	0077b3b3          	sltu	t2,a5,t2
80005054:	939a                	add	t2,t2,t1
80005056:	96be                	add	a3,a3,a5
80005058:	951e                	add	a0,a0,t2
8000505a:	00f6b7b3          	sltu	a5,a3,a5
8000505e:	97aa                	add	a5,a5,a0
80005060:	00b335b3          	sltu	a1,t1,a1
80005064:	0063b333          	sltu	t1,t2,t1
80005068:	0065e333          	or	t1,a1,t1
8000506c:	007533b3          	sltu	t2,a0,t2
80005070:	8241                	srl	a2,a2,0x10
80005072:	00a7b533          	sltu	a0,a5,a0
80005076:	00a3e3b3          	or	t2,t2,a0
8000507a:	9332                	add	t1,t1,a2
8000507c:	939a                	add	t2,t2,t1
8000507e:	93ba                	add	t2,t2,a4
80005080:	00969513          	sll	a0,a3,0x9
80005084:	4742                	lw	a4,16(sp)
80005086:	8d59                	or	a0,a0,a4
80005088:	00a03533          	snez	a0,a0
8000508c:	82dd                	srl	a3,a3,0x17
8000508e:	03a6                	sll	t2,t2,0x9
80005090:	0177d413          	srl	s0,a5,0x17
80005094:	8d55                	or	a0,a0,a3
80005096:	07a6                	sll	a5,a5,0x9
80005098:	8d5d                	or	a0,a0,a5
8000509a:	00739793          	sll	a5,t2,0x7
8000509e:	0083e433          	or	s0,t2,s0
800050a2:	0007dc63          	bgez	a5,800050ba <__muldf3+0x200>
800050a6:	00155793          	srl	a5,a0,0x1
800050aa:	8905                	and	a0,a0,1
800050ac:	8fc9                	or	a5,a5,a0
800050ae:	01f41513          	sll	a0,s0,0x1f
800050b2:	8d5d                	or	a0,a0,a5
800050b4:	4782                	lw	a5,0(sp)
800050b6:	8005                	srl	s0,s0,0x1
800050b8:	c23e                	sw	a5,4(sp)
800050ba:	4792                	lw	a5,4(sp)
800050bc:	c03e                	sw	a5,0(sp)
800050be:	a2b1                	j	8000520a <__muldf3+0x350>
800050c0:	00a7e733          	or	a4,a5,a0
800050c4:	cb25                	beqz	a4,80005134 <__muldf3+0x27a>
800050c6:	c436                	sw	a3,8(sp)
800050c8:	c232                	sw	a2,4(sp)
800050ca:	cf8d                	beqz	a5,80005104 <__muldf3+0x24a>
800050cc:	853e                	mv	a0,a5
800050ce:	c03e                	sw	a5,0(sp)
800050d0:	40b000ef          	jal	80005cda <__clzsi2>
800050d4:	ff550593          	add	a1,a0,-11 # fff5 <__HEAP_SIZE+0xf7f5>
800050d8:	4782                	lw	a5,0(sp)
800050da:	4612                	lw	a2,4(sp)
800050dc:	46a2                	lw	a3,8(sp)
800050de:	4375                	li	t1,29
800050e0:	ff850713          	add	a4,a0,-8
800050e4:	40b30333          	sub	t1,t1,a1
800050e8:	00e797b3          	sll	a5,a5,a4
800050ec:	00645333          	srl	t1,s0,t1
800050f0:	00f36333          	or	t1,t1,a5
800050f4:	00e417b3          	sll	a5,s0,a4
800050f8:	c0d00593          	li	a1,-1011
800050fc:	873e                	mv	a4,a5
800050fe:	8d89                	sub	a1,a1,a0
80005100:	879a                	mv	a5,t1
80005102:	bbdd                	j	80004ef8 <__muldf3+0x3e>
80005104:	c03e                	sw	a5,0(sp)
80005106:	3d5000ef          	jal	80005cda <__clzsi2>
8000510a:	872a                	mv	a4,a0
8000510c:	01570593          	add	a1,a4,21
80005110:	4371                	li	t1,28
80005112:	02050513          	add	a0,a0,32
80005116:	4782                	lw	a5,0(sp)
80005118:	4612                	lw	a2,4(sp)
8000511a:	46a2                	lw	a3,8(sp)
8000511c:	fcb351e3          	bge	t1,a1,800050de <__muldf3+0x224>
80005120:	1761                	add	a4,a4,-8
80005122:	00e41333          	sll	t1,s0,a4
80005126:	bfc9                	j	800050f8 <__muldf3+0x23e>
80005128:	00a7e733          	or	a4,a5,a0
8000512c:	eb01                	bnez	a4,8000513c <__muldf3+0x282>
8000512e:	4781                	li	a5,0
80005130:	4309                	li	t1,2
80005132:	b3e1                	j	80004efa <__muldf3+0x40>
80005134:	4781                	li	a5,0
80005136:	4581                	li	a1,0
80005138:	4305                	li	t1,1
8000513a:	b3c1                	j	80004efa <__muldf3+0x40>
8000513c:	872a                	mv	a4,a0
8000513e:	430d                	li	t1,3
80005140:	bb6d                	j	80004efa <__muldf3+0x40>
80005142:	00c46533          	or	a0,s0,a2
80005146:	c159                	beqz	a0,800051cc <__muldf3+0x312>
80005148:	c031                	beqz	s0,8000518c <__muldf3+0x2d2>
8000514a:	8522                	mv	a0,s0
8000514c:	ca32                	sw	a2,20(sp)
8000514e:	c83e                	sw	a5,16(sp)
80005150:	c63a                	sw	a4,12(sp)
80005152:	c22e                	sw	a1,4(sp)
80005154:	c01a                	sw	t1,0(sp)
80005156:	385000ef          	jal	80005cda <__clzsi2>
8000515a:	ff550293          	add	t0,a0,-11
8000515e:	4302                	lw	t1,0(sp)
80005160:	4592                	lw	a1,4(sp)
80005162:	4732                	lw	a4,12(sp)
80005164:	47c2                	lw	a5,16(sp)
80005166:	4652                	lw	a2,20(sp)
80005168:	46f5                	li	a3,29
8000516a:	ff850393          	add	t2,a0,-8
8000516e:	405686b3          	sub	a3,a3,t0
80005172:	00741433          	sll	s0,s0,t2
80005176:	00d656b3          	srl	a3,a2,a3
8000517a:	8ec1                	or	a3,a3,s0
8000517c:	00761433          	sll	s0,a2,t2
80005180:	c0d00613          	li	a2,-1011
80005184:	8e09                	sub	a2,a2,a0
80005186:	8522                	mv	a0,s0
80005188:	8436                	mv	s0,a3
8000518a:	b355                	j	80004f2e <__muldf3+0x74>
8000518c:	8532                	mv	a0,a2
8000518e:	ca3e                	sw	a5,20(sp)
80005190:	c83a                	sw	a4,16(sp)
80005192:	c62e                	sw	a1,12(sp)
80005194:	c21a                	sw	t1,4(sp)
80005196:	c032                	sw	a2,0(sp)
80005198:	343000ef          	jal	80005cda <__clzsi2>
8000519c:	86aa                	mv	a3,a0
8000519e:	01568293          	add	t0,a3,21
800051a2:	43f1                	li	t2,28
800051a4:	02050513          	add	a0,a0,32
800051a8:	4602                	lw	a2,0(sp)
800051aa:	4312                	lw	t1,4(sp)
800051ac:	45b2                	lw	a1,12(sp)
800051ae:	4742                	lw	a4,16(sp)
800051b0:	47d2                	lw	a5,20(sp)
800051b2:	fa53dbe3          	bge	t2,t0,80005168 <__muldf3+0x2ae>
800051b6:	16e1                	add	a3,a3,-8
800051b8:	00d616b3          	sll	a3,a2,a3
800051bc:	b7d1                	j	80005180 <__muldf3+0x2c6>
800051be:	00c46533          	or	a0,s0,a2
800051c2:	e909                	bnez	a0,800051d4 <__muldf3+0x31a>
800051c4:	4401                	li	s0,0
800051c6:	8616                	mv	a2,t0
800051c8:	4689                	li	a3,2
800051ca:	b39d                	j	80004f30 <__muldf3+0x76>
800051cc:	4401                	li	s0,0
800051ce:	4601                	li	a2,0
800051d0:	4685                	li	a3,1
800051d2:	bbb9                	j	80004f30 <__muldf3+0x76>
800051d4:	8532                	mv	a0,a2
800051d6:	468d                	li	a3,3
800051d8:	8616                	mv	a2,t0
800051da:	bb99                	j	80004f30 <__muldf3+0x76>
800051dc:	00c595b3          	sll	a1,a1,a2
800051e0:	5305f613          	and	a2,a1,1328
800051e4:	e24d                	bnez	a2,80005286 <__muldf3+0x3cc>
800051e6:	2405f313          	and	t1,a1,576
800051ea:	12031c63          	bnez	t1,80005322 <__muldf3+0x468>
800051ee:	0885f593          	and	a1,a1,136
800051f2:	d60582e3          	beqz	a1,80004f56 <__muldf3+0x9c>
800051f6:	44a2                	lw	s1,8(sp)
800051f8:	4789                	li	a5,2
800051fa:	10f68f63          	beq	a3,a5,80005318 <__muldf3+0x45e>
800051fe:	478d                	li	a5,3
80005200:	12f68763          	beq	a3,a5,8000532e <__muldf3+0x474>
80005204:	4785                	li	a5,1
80005206:	12f68863          	beq	a3,a5,80005336 <__muldf3+0x47c>
8000520a:	4782                	lw	a5,0(sp)
8000520c:	3ff78693          	add	a3,a5,1023 # 103ff <__HEAP_SIZE+0xfbff>
80005210:	06d05f63          	blez	a3,8000528e <__muldf3+0x3d4>
80005214:	00757793          	and	a5,a0,7
80005218:	cf81                	beqz	a5,80005230 <__muldf3+0x376>
8000521a:	00f57793          	and	a5,a0,15
8000521e:	4711                	li	a4,4
80005220:	00e78863          	beq	a5,a4,80005230 <__muldf3+0x376>
80005224:	00e507b3          	add	a5,a0,a4
80005228:	00a7b733          	sltu	a4,a5,a0
8000522c:	943a                	add	s0,s0,a4
8000522e:	853e                	mv	a0,a5
80005230:	00741793          	sll	a5,s0,0x7
80005234:	0007d963          	bgez	a5,80005246 <__muldf3+0x38c>
80005238:	ff0007b7          	lui	a5,0xff000
8000523c:	17fd                	add	a5,a5,-1 # feffffff <_sp+0x6efeffff>
8000523e:	8c7d                	and	s0,s0,a5
80005240:	4782                	lw	a5,0(sp)
80005242:	40078693          	add	a3,a5,1024
80005246:	7fe00793          	li	a5,2046
8000524a:	0cd7c763          	blt	a5,a3,80005318 <__muldf3+0x45e>
8000524e:	810d                	srl	a0,a0,0x3
80005250:	01d41613          	sll	a2,s0,0x1d
80005254:	8e49                	or	a2,a2,a0
80005256:	00345793          	srl	a5,s0,0x3
8000525a:	07b2                	sll	a5,a5,0xc
8000525c:	01469713          	sll	a4,a3,0x14
80005260:	83b1                	srl	a5,a5,0xc
80005262:	04fe                	sll	s1,s1,0x1f
80005264:	8fd9                	or	a5,a5,a4
80005266:	0097e733          	or	a4,a5,s1
8000526a:	5082                	lw	ra,32(sp)
8000526c:	4472                	lw	s0,28(sp)
8000526e:	44e2                	lw	s1,24(sp)
80005270:	8532                	mv	a0,a2
80005272:	85ba                	mv	a1,a4
80005274:	02410113          	add	sp,sp,36
80005278:	8082                	ret
8000527a:	45bd                	li	a1,15
8000527c:	0ab60963          	beq	a2,a1,8000532e <__muldf3+0x474>
80005280:	45ad                	li	a1,11
80005282:	f6b60ae3          	beq	a2,a1,800051f6 <__muldf3+0x33c>
80005286:	843e                	mv	s0,a5
80005288:	853a                	mv	a0,a4
8000528a:	869a                	mv	a3,t1
8000528c:	b7b5                	j	800051f8 <__muldf3+0x33e>
8000528e:	4785                	li	a5,1
80005290:	8f95                	sub	a5,a5,a3
80005292:	03800713          	li	a4,56
80005296:	0af74063          	blt	a4,a5,80005336 <__muldf3+0x47c>
8000529a:	477d                	li	a4,31
8000529c:	04f74a63          	blt	a4,a5,800052f0 <__muldf3+0x436>
800052a0:	4702                	lw	a4,0(sp)
800052a2:	41e70693          	add	a3,a4,1054
800052a6:	00d41733          	sll	a4,s0,a3
800052aa:	00f55633          	srl	a2,a0,a5
800052ae:	00d516b3          	sll	a3,a0,a3
800052b2:	8f51                	or	a4,a4,a2
800052b4:	00d036b3          	snez	a3,a3
800052b8:	8f55                	or	a4,a4,a3
800052ba:	00f457b3          	srl	a5,s0,a5
800052be:	00777693          	and	a3,a4,7
800052c2:	ce81                	beqz	a3,800052da <__muldf3+0x420>
800052c4:	00f77693          	and	a3,a4,15
800052c8:	4611                	li	a2,4
800052ca:	00c68863          	beq	a3,a2,800052da <__muldf3+0x420>
800052ce:	00c706b3          	add	a3,a4,a2
800052d2:	00e6b633          	sltu	a2,a3,a4
800052d6:	97b2                	add	a5,a5,a2
800052d8:	8736                	mv	a4,a3
800052da:	00879693          	sll	a3,a5,0x8
800052de:	0406cf63          	bltz	a3,8000533c <__muldf3+0x482>
800052e2:	01d79613          	sll	a2,a5,0x1d
800052e6:	830d                	srl	a4,a4,0x3
800052e8:	8e59                	or	a2,a2,a4
800052ea:	838d                	srl	a5,a5,0x3
800052ec:	4681                	li	a3,0
800052ee:	b7b5                	j	8000525a <__muldf3+0x3a0>
800052f0:	5705                	li	a4,-31
800052f2:	8f15                	sub	a4,a4,a3
800052f4:	02000613          	li	a2,32
800052f8:	00e45733          	srl	a4,s0,a4
800052fc:	4681                	li	a3,0
800052fe:	00c78763          	beq	a5,a2,8000530c <__muldf3+0x452>
80005302:	4782                	lw	a5,0(sp)
80005304:	43e78693          	add	a3,a5,1086
80005308:	00d416b3          	sll	a3,s0,a3
8000530c:	8ec9                	or	a3,a3,a0
8000530e:	00d036b3          	snez	a3,a3
80005312:	8f55                	or	a4,a4,a3
80005314:	4781                	li	a5,0
80005316:	b765                	j	800052be <__muldf3+0x404>
80005318:	4781                	li	a5,0
8000531a:	4601                	li	a2,0
8000531c:	7ff00693          	li	a3,2047
80005320:	bf2d                	j	8000525a <__muldf3+0x3a0>
80005322:	000807b7          	lui	a5,0x80
80005326:	7ff00693          	li	a3,2047
8000532a:	4481                	li	s1,0
8000532c:	b73d                	j	8000525a <__muldf3+0x3a0>
8000532e:	000807b7          	lui	a5,0x80
80005332:	4601                	li	a2,0
80005334:	bfcd                	j	80005326 <__muldf3+0x46c>
80005336:	4781                	li	a5,0
80005338:	4601                	li	a2,0
8000533a:	bf4d                	j	800052ec <__muldf3+0x432>
8000533c:	4781                	li	a5,0
8000533e:	4601                	li	a2,0
80005340:	4685                	li	a3,1
80005342:	bf21                	j	8000525a <__muldf3+0x3a0>

80005344 <__subdf3>:
__subdf3():
80005344:	00100337          	lui	t1,0x100
80005348:	137d                	add	t1,t1,-1 # fffff <__HEAP_SIZE+0xff7ff>
8000534a:	00b372b3          	and	t0,t1,a1
8000534e:	1131                	add	sp,sp,-20
80005350:	0145d713          	srl	a4,a1,0x14
80005354:	01d55793          	srl	a5,a0,0x1d
80005358:	00d37333          	and	t1,t1,a3
8000535c:	c426                	sw	s1,8(sp)
8000535e:	7ff77493          	and	s1,a4,2047
80005362:	00329713          	sll	a4,t0,0x3
80005366:	0146d293          	srl	t0,a3,0x14
8000536a:	c622                	sw	s0,12(sp)
8000536c:	8fd9                	or	a5,a5,a4
8000536e:	01f5d413          	srl	s0,a1,0x1f
80005372:	01d65713          	srl	a4,a2,0x1d
80005376:	030e                	sll	t1,t1,0x3
80005378:	c806                	sw	ra,16(sp)
8000537a:	7ff2f293          	and	t0,t0,2047
8000537e:	7ff00593          	li	a1,2047
80005382:	050e                	sll	a0,a0,0x3
80005384:	82fd                	srl	a3,a3,0x1f
80005386:	00676733          	or	a4,a4,t1
8000538a:	060e                	sll	a2,a2,0x3
8000538c:	00b29563          	bne	t0,a1,80005396 <__subdf3+0x52>
80005390:	00c765b3          	or	a1,a4,a2
80005394:	e199                	bnez	a1,8000539a <__subdf3+0x56>
80005396:	0016c693          	xor	a3,a3,1
8000539a:	40548333          	sub	t1,s1,t0
8000539e:	7ff00593          	li	a1,2047
800053a2:	20869063          	bne	a3,s0,800055a2 <__subdf3+0x25e>
800053a6:	0c605a63          	blez	t1,8000547a <__subdf3+0x136>
800053aa:	02029663          	bnez	t0,800053d6 <__subdf3+0x92>
800053ae:	00c766b3          	or	a3,a4,a2
800053b2:	c285                	beqz	a3,800053d2 <__subdf3+0x8e>
800053b4:	fff30293          	add	t0,t1,-1
800053b8:	00029b63          	bnez	t0,800053ce <__subdf3+0x8a>
800053bc:	962a                	add	a2,a2,a0
800053be:	00a636b3          	sltu	a3,a2,a0
800053c2:	973e                	add	a4,a4,a5
800053c4:	8532                	mv	a0,a2
800053c6:	00d707b3          	add	a5,a4,a3
800053ca:	4485                	li	s1,1
800053cc:	a889                	j	8000541e <__subdf3+0xda>
800053ce:	00b31a63          	bne	t1,a1,800053e2 <__subdf3+0x9e>
800053d2:	849a                	mv	s1,t1
800053d4:	a249                	j	80005556 <__subdf3+0x212>
800053d6:	18b48063          	beq	s1,a1,80005556 <__subdf3+0x212>
800053da:	008006b7          	lui	a3,0x800
800053de:	8f55                	or	a4,a4,a3
800053e0:	829a                	mv	t0,t1
800053e2:	03800693          	li	a3,56
800053e6:	0856c563          	blt	a3,t0,80005470 <__subdf3+0x12c>
800053ea:	46fd                	li	a3,31
800053ec:	02000313          	li	t1,32
800053f0:	0456cd63          	blt	a3,t0,8000544a <__subdf3+0x106>
800053f4:	40530333          	sub	t1,t1,t0
800053f8:	006716b3          	sll	a3,a4,t1
800053fc:	005655b3          	srl	a1,a2,t0
80005400:	00661333          	sll	t1,a2,t1
80005404:	8ecd                	or	a3,a3,a1
80005406:	00603333          	snez	t1,t1
8000540a:	0066e6b3          	or	a3,a3,t1
8000540e:	00575733          	srl	a4,a4,t0
80005412:	9536                	add	a0,a0,a3
80005414:	973e                	add	a4,a4,a5
80005416:	00d536b3          	sltu	a3,a0,a3
8000541a:	00d707b3          	add	a5,a4,a3
8000541e:	00879713          	sll	a4,a5,0x8
80005422:	12075a63          	bgez	a4,80005556 <__subdf3+0x212>
80005426:	0485                	add	s1,s1,1
80005428:	7ff00713          	li	a4,2047
8000542c:	46e48d63          	beq	s1,a4,800058a6 <__subdf3+0x562>
80005430:	ff800737          	lui	a4,0xff800
80005434:	177d                	add	a4,a4,-1 # ff7fffff <_sp+0x6f7effff>
80005436:	8ff9                	and	a5,a5,a4
80005438:	00155713          	srl	a4,a0,0x1
8000543c:	8905                	and	a0,a0,1
8000543e:	8f49                	or	a4,a4,a0
80005440:	01f79513          	sll	a0,a5,0x1f
80005444:	8d59                	or	a0,a0,a4
80005446:	8385                	srl	a5,a5,0x1
80005448:	a239                	j	80005556 <__subdf3+0x212>
8000544a:	fe028693          	add	a3,t0,-32 # ffe0 <__HEAP_SIZE+0xf7e0>
8000544e:	00d756b3          	srl	a3,a4,a3
80005452:	4581                	li	a1,0
80005454:	00628863          	beq	t0,t1,80005464 <__subdf3+0x120>
80005458:	04000593          	li	a1,64
8000545c:	405585b3          	sub	a1,a1,t0
80005460:	00b715b3          	sll	a1,a4,a1
80005464:	8dd1                	or	a1,a1,a2
80005466:	00b035b3          	snez	a1,a1
8000546a:	8ecd                	or	a3,a3,a1
8000546c:	4701                	li	a4,0
8000546e:	b755                	j	80005412 <__subdf3+0xce>
80005470:	00c766b3          	or	a3,a4,a2
80005474:	00d036b3          	snez	a3,a3
80005478:	bfd5                	j	8000546c <__subdf3+0x128>
8000547a:	0a030063          	beqz	t1,8000551a <__subdf3+0x1d6>
8000547e:	409286b3          	sub	a3,t0,s1
80005482:	ec91                	bnez	s1,8000549e <__subdf3+0x15a>
80005484:	00a7e333          	or	t1,a5,a0
80005488:	00030863          	beqz	t1,80005498 <__subdf3+0x154>
8000548c:	fff68313          	add	t1,a3,-1 # 7fffff <__HEAP_SIZE+0x7ff7ff>
80005490:	f20306e3          	beqz	t1,800053bc <__subdf3+0x78>
80005494:	00b69b63          	bne	a3,a1,800054aa <__subdf3+0x166>
80005498:	87ba                	mv	a5,a4
8000549a:	8532                	mv	a0,a2
8000549c:	a209                	j	8000559e <__subdf3+0x25a>
8000549e:	3eb28963          	beq	t0,a1,80005890 <__subdf3+0x54c>
800054a2:	008005b7          	lui	a1,0x800
800054a6:	8fcd                	or	a5,a5,a1
800054a8:	8336                	mv	t1,a3
800054aa:	03800693          	li	a3,56
800054ae:	0666c163          	blt	a3,t1,80005510 <__subdf3+0x1cc>
800054b2:	46fd                	li	a3,31
800054b4:	02000393          	li	t2,32
800054b8:	0266c963          	blt	a3,t1,800054ea <__subdf3+0x1a6>
800054bc:	406383b3          	sub	t2,t2,t1
800054c0:	007796b3          	sll	a3,a5,t2
800054c4:	006555b3          	srl	a1,a0,t1
800054c8:	007513b3          	sll	t2,a0,t2
800054cc:	8ecd                	or	a3,a3,a1
800054ce:	007033b3          	snez	t2,t2
800054d2:	0076e6b3          	or	a3,a3,t2
800054d6:	0067d7b3          	srl	a5,a5,t1
800054da:	9636                	add	a2,a2,a3
800054dc:	97ba                	add	a5,a5,a4
800054de:	00d636b3          	sltu	a3,a2,a3
800054e2:	8532                	mv	a0,a2
800054e4:	97b6                	add	a5,a5,a3
800054e6:	8496                	mv	s1,t0
800054e8:	bf1d                	j	8000541e <__subdf3+0xda>
800054ea:	fe030693          	add	a3,t1,-32
800054ee:	00d7d6b3          	srl	a3,a5,a3
800054f2:	4581                	li	a1,0
800054f4:	00730863          	beq	t1,t2,80005504 <__subdf3+0x1c0>
800054f8:	04000593          	li	a1,64
800054fc:	406585b3          	sub	a1,a1,t1
80005500:	00b795b3          	sll	a1,a5,a1
80005504:	8dc9                	or	a1,a1,a0
80005506:	00b035b3          	snez	a1,a1
8000550a:	8ecd                	or	a3,a3,a1
8000550c:	4781                	li	a5,0
8000550e:	b7f1                	j	800054da <__subdf3+0x196>
80005510:	00a7e6b3          	or	a3,a5,a0
80005514:	00d036b3          	snez	a3,a3
80005518:	bfd5                	j	8000550c <__subdf3+0x1c8>
8000551a:	00148693          	add	a3,s1,1
8000551e:	7fe6f313          	and	t1,a3,2046
80005522:	06031163          	bnez	t1,80005584 <__subdf3+0x240>
80005526:	00a7e6b3          	or	a3,a5,a0
8000552a:	e4b1                	bnez	s1,80005576 <__subdf3+0x232>
8000552c:	36068663          	beqz	a3,80005898 <__subdf3+0x554>
80005530:	00c766b3          	or	a3,a4,a2
80005534:	c28d                	beqz	a3,80005556 <__subdf3+0x212>
80005536:	962a                	add	a2,a2,a0
80005538:	00a636b3          	sltu	a3,a2,a0
8000553c:	973e                	add	a4,a4,a5
8000553e:	00d707b3          	add	a5,a4,a3
80005542:	00879713          	sll	a4,a5,0x8
80005546:	8532                	mv	a0,a2
80005548:	00075763          	bgez	a4,80005556 <__subdf3+0x212>
8000554c:	ff800737          	lui	a4,0xff800
80005550:	177d                	add	a4,a4,-1 # ff7fffff <_sp+0x6f7effff>
80005552:	8ff9                	and	a5,a5,a4
80005554:	4485                	li	s1,1
80005556:	00757713          	and	a4,a0,7
8000555a:	34070f63          	beqz	a4,800058b8 <__subdf3+0x574>
8000555e:	00f57713          	and	a4,a0,15
80005562:	4691                	li	a3,4
80005564:	34d70a63          	beq	a4,a3,800058b8 <__subdf3+0x574>
80005568:	00d50733          	add	a4,a0,a3
8000556c:	00a736b3          	sltu	a3,a4,a0
80005570:	97b6                	add	a5,a5,a3
80005572:	853a                	mv	a0,a4
80005574:	a691                	j	800058b8 <__subdf3+0x574>
80005576:	32068463          	beqz	a3,8000589e <__subdf3+0x55a>
8000557a:	8e59                	or	a2,a2,a4
8000557c:	22061163          	bnez	a2,8000579e <__subdf3+0x45a>
80005580:	84ae                	mv	s1,a1
80005582:	bfd1                	j	80005556 <__subdf3+0x212>
80005584:	32b68063          	beq	a3,a1,800058a4 <__subdf3+0x560>
80005588:	962a                	add	a2,a2,a0
8000558a:	00a63533          	sltu	a0,a2,a0
8000558e:	973e                	add	a4,a4,a5
80005590:	972a                	add	a4,a4,a0
80005592:	01f71513          	sll	a0,a4,0x1f
80005596:	8205                	srl	a2,a2,0x1
80005598:	8d51                	or	a0,a0,a2
8000559a:	00175793          	srl	a5,a4,0x1
8000559e:	84b6                	mv	s1,a3
800055a0:	bf5d                	j	80005556 <__subdf3+0x212>
800055a2:	0c605463          	blez	t1,8000566a <__subdf3+0x326>
800055a6:	08029263          	bnez	t0,8000562a <__subdf3+0x2e6>
800055aa:	00c766b3          	or	a3,a4,a2
800055ae:	e20682e3          	beqz	a3,800053d2 <__subdf3+0x8e>
800055b2:	fff30693          	add	a3,t1,-1
800055b6:	ee81                	bnez	a3,800055ce <__subdf3+0x28a>
800055b8:	40c50633          	sub	a2,a0,a2
800055bc:	00c536b3          	sltu	a3,a0,a2
800055c0:	40e78733          	sub	a4,a5,a4
800055c4:	8532                	mv	a0,a2
800055c6:	40d707b3          	sub	a5,a4,a3
800055ca:	4485                	li	s1,1
800055cc:	a0a9                	j	80005616 <__subdf3+0x2d2>
800055ce:	e0b302e3          	beq	t1,a1,800053d2 <__subdf3+0x8e>
800055d2:	03800593          	li	a1,56
800055d6:	08d5c663          	blt	a1,a3,80005662 <__subdf3+0x31e>
800055da:	45fd                	li	a1,31
800055dc:	02000293          	li	t0,32
800055e0:	04d5cc63          	blt	a1,a3,80005638 <__subdf3+0x2f4>
800055e4:	40d282b3          	sub	t0,t0,a3
800055e8:	00d65333          	srl	t1,a2,a3
800055ec:	005715b3          	sll	a1,a4,t0
800055f0:	005612b3          	sll	t0,a2,t0
800055f4:	0065e5b3          	or	a1,a1,t1
800055f8:	005032b3          	snez	t0,t0
800055fc:	0055e633          	or	a2,a1,t0
80005600:	00d756b3          	srl	a3,a4,a3
80005604:	40c50633          	sub	a2,a0,a2
80005608:	00c53733          	sltu	a4,a0,a2
8000560c:	40d786b3          	sub	a3,a5,a3
80005610:	8532                	mv	a0,a2
80005612:	40e687b3          	sub	a5,a3,a4
80005616:	00879713          	sll	a4,a5,0x8
8000561a:	f2075ee3          	bgez	a4,80005556 <__subdf3+0x212>
8000561e:	008005b7          	lui	a1,0x800
80005622:	15fd                	add	a1,a1,-1 # 7fffff <__HEAP_SIZE+0x7ff7ff>
80005624:	8dfd                	and	a1,a1,a5
80005626:	832a                	mv	t1,a0
80005628:	a27d                	j	800057d6 <__subdf3+0x492>
8000562a:	f2b486e3          	beq	s1,a1,80005556 <__subdf3+0x212>
8000562e:	008006b7          	lui	a3,0x800
80005632:	8f55                	or	a4,a4,a3
80005634:	869a                	mv	a3,t1
80005636:	bf71                	j	800055d2 <__subdf3+0x28e>
80005638:	fe068593          	add	a1,a3,-32 # 7fffe0 <__HEAP_SIZE+0x7ff7e0>
8000563c:	00b755b3          	srl	a1,a4,a1
80005640:	4301                	li	t1,0
80005642:	00568863          	beq	a3,t0,80005652 <__subdf3+0x30e>
80005646:	04000313          	li	t1,64
8000564a:	40d30333          	sub	t1,t1,a3
8000564e:	00671333          	sll	t1,a4,t1
80005652:	00c36333          	or	t1,t1,a2
80005656:	00603333          	snez	t1,t1
8000565a:	0065e633          	or	a2,a1,t1
8000565e:	4681                	li	a3,0
80005660:	b755                	j	80005604 <__subdf3+0x2c0>
80005662:	8e59                	or	a2,a2,a4
80005664:	00c03633          	snez	a2,a2
80005668:	bfdd                	j	8000565e <__subdf3+0x31a>
8000566a:	0c030063          	beqz	t1,8000572a <__subdf3+0x3e6>
8000566e:	409283b3          	sub	t2,t0,s1
80005672:	e885                	bnez	s1,800056a2 <__subdf3+0x35e>
80005674:	00a7e333          	or	t1,a5,a0
80005678:	02030163          	beqz	t1,8000569a <__subdf3+0x356>
8000567c:	fff38313          	add	t1,t2,-1 # 7ffff <__HEAP_SIZE+0x7f7ff>
80005680:	00031b63          	bnez	t1,80005696 <__subdf3+0x352>
80005684:	40a60533          	sub	a0,a2,a0
80005688:	8f1d                	sub	a4,a4,a5
8000568a:	00a63633          	sltu	a2,a2,a0
8000568e:	40c707b3          	sub	a5,a4,a2
80005692:	8436                	mv	s0,a3
80005694:	bf1d                	j	800055ca <__subdf3+0x286>
80005696:	00b39c63          	bne	t2,a1,800056ae <__subdf3+0x36a>
8000569a:	87ba                	mv	a5,a4
8000569c:	8532                	mv	a0,a2
8000569e:	849e                	mv	s1,t2
800056a0:	a075                	j	8000574c <__subdf3+0x408>
800056a2:	20b28563          	beq	t0,a1,800058ac <__subdf3+0x568>
800056a6:	008005b7          	lui	a1,0x800
800056aa:	8fcd                	or	a5,a5,a1
800056ac:	831e                	mv	t1,t2
800056ae:	03800593          	li	a1,56
800056b2:	0665c763          	blt	a1,t1,80005720 <__subdf3+0x3dc>
800056b6:	45fd                	li	a1,31
800056b8:	02000413          	li	s0,32
800056bc:	0265cd63          	blt	a1,t1,800056f6 <__subdf3+0x3b2>
800056c0:	40640433          	sub	s0,s0,t1
800056c4:	008795b3          	sll	a1,a5,s0
800056c8:	006553b3          	srl	t2,a0,t1
800056cc:	00851433          	sll	s0,a0,s0
800056d0:	0075e5b3          	or	a1,a1,t2
800056d4:	00803433          	snez	s0,s0
800056d8:	8dc1                	or	a1,a1,s0
800056da:	0067d333          	srl	t1,a5,t1
800056de:	40b605b3          	sub	a1,a2,a1
800056e2:	40670333          	sub	t1,a4,t1
800056e6:	00b63633          	sltu	a2,a2,a1
800056ea:	852e                	mv	a0,a1
800056ec:	40c307b3          	sub	a5,t1,a2
800056f0:	8496                	mv	s1,t0
800056f2:	8436                	mv	s0,a3
800056f4:	b70d                	j	80005616 <__subdf3+0x2d2>
800056f6:	fe030593          	add	a1,t1,-32
800056fa:	00b7d5b3          	srl	a1,a5,a1
800056fe:	4381                	li	t2,0
80005700:	00830863          	beq	t1,s0,80005710 <__subdf3+0x3cc>
80005704:	04000393          	li	t2,64
80005708:	406383b3          	sub	t2,t2,t1
8000570c:	007793b3          	sll	t2,a5,t2
80005710:	00a3e3b3          	or	t2,t2,a0
80005714:	007033b3          	snez	t2,t2
80005718:	0075e5b3          	or	a1,a1,t2
8000571c:	4301                	li	t1,0
8000571e:	b7c1                	j	800056de <__subdf3+0x39a>
80005720:	00a7e5b3          	or	a1,a5,a0
80005724:	00b035b3          	snez	a1,a1
80005728:	bfd5                	j	8000571c <__subdf3+0x3d8>
8000572a:	00148313          	add	t1,s1,1
8000572e:	7fe37313          	and	t1,t1,2046
80005732:	06031c63          	bnez	t1,800057aa <__subdf3+0x466>
80005736:	00c76333          	or	t1,a4,a2
8000573a:	00a7e2b3          	or	t0,a5,a0
8000573e:	e4b1                	bnez	s1,8000578a <__subdf3+0x446>
80005740:	00029863          	bnez	t0,80005750 <__subdf3+0x40c>
80005744:	0e030b63          	beqz	t1,8000583a <__subdf3+0x4f6>
80005748:	87ba                	mv	a5,a4
8000574a:	8532                	mv	a0,a2
8000574c:	8436                	mv	s0,a3
8000574e:	b521                	j	80005556 <__subdf3+0x212>
80005750:	e00303e3          	beqz	t1,80005556 <__subdf3+0x212>
80005754:	40c50333          	sub	t1,a0,a2
80005758:	006532b3          	sltu	t0,a0,t1
8000575c:	40e785b3          	sub	a1,a5,a4
80005760:	405585b3          	sub	a1,a1,t0
80005764:	00859293          	sll	t0,a1,0x8
80005768:	0002da63          	bgez	t0,8000577c <__subdf3+0x438>
8000576c:	40a60533          	sub	a0,a2,a0
80005770:	8f1d                	sub	a4,a4,a5
80005772:	00a63633          	sltu	a2,a2,a0
80005776:	40c707b3          	sub	a5,a4,a2
8000577a:	bfc9                	j	8000574c <__subdf3+0x408>
8000577c:	00b36533          	or	a0,t1,a1
80005780:	12050a63          	beqz	a0,800058b4 <__subdf3+0x570>
80005784:	87ae                	mv	a5,a1
80005786:	851a                	mv	a0,t1
80005788:	b3f9                	j	80005556 <__subdf3+0x212>
8000578a:	00029863          	bnez	t0,8000579a <__subdf3+0x456>
8000578e:	00030863          	beqz	t1,8000579e <__subdf3+0x45a>
80005792:	87ba                	mv	a5,a4
80005794:	8532                	mv	a0,a2
80005796:	8436                	mv	s0,a3
80005798:	b3e5                	j	80005580 <__subdf3+0x23c>
8000579a:	de0303e3          	beqz	t1,80005580 <__subdf3+0x23c>
8000579e:	4401                	li	s0,0
800057a0:	004007b7          	lui	a5,0x400
800057a4:	4501                	li	a0,0
800057a6:	84ae                	mv	s1,a1
800057a8:	aa01                	j	800058b8 <__subdf3+0x574>
800057aa:	40c502b3          	sub	t0,a0,a2
800057ae:	005533b3          	sltu	t2,a0,t0
800057b2:	40e785b3          	sub	a1,a5,a4
800057b6:	407585b3          	sub	a1,a1,t2
800057ba:	00859393          	sll	t2,a1,0x8
800057be:	8316                	mv	t1,t0
800057c0:	0603d863          	bgez	t2,80005830 <__subdf3+0x4ec>
800057c4:	40a60533          	sub	a0,a2,a0
800057c8:	8f1d                	sub	a4,a4,a5
800057ca:	00a63633          	sltu	a2,a2,a0
800057ce:	832a                	mv	t1,a0
800057d0:	40c705b3          	sub	a1,a4,a2
800057d4:	8436                	mv	s0,a3
800057d6:	c5a5                	beqz	a1,8000583e <__subdf3+0x4fa>
800057d8:	852e                	mv	a0,a1
800057da:	c21a                	sw	t1,4(sp)
800057dc:	c02e                	sw	a1,0(sp)
800057de:	29f5                	jal	80005cda <__clzsi2>
800057e0:	ff850713          	add	a4,a0,-8
800057e4:	4582                	lw	a1,0(sp)
800057e6:	4312                	lw	t1,4(sp)
800057e8:	02000793          	li	a5,32
800057ec:	8f99                	sub	a5,a5,a4
800057ee:	00e595b3          	sll	a1,a1,a4
800057f2:	00f357b3          	srl	a5,t1,a5
800057f6:	8fcd                	or	a5,a5,a1
800057f8:	00e315b3          	sll	a1,t1,a4
800057fc:	08974363          	blt	a4,s1,80005882 <__subdf3+0x53e>
80005800:	8f05                	sub	a4,a4,s1
80005802:	00170313          	add	t1,a4,1
80005806:	46fd                	li	a3,31
80005808:	02000613          	li	a2,32
8000580c:	0466c963          	blt	a3,t1,8000585e <__subdf3+0x51a>
80005810:	40660633          	sub	a2,a2,t1
80005814:	00c79533          	sll	a0,a5,a2
80005818:	0065d733          	srl	a4,a1,t1
8000581c:	00c59633          	sll	a2,a1,a2
80005820:	8d59                	or	a0,a0,a4
80005822:	00c03633          	snez	a2,a2
80005826:	8d51                	or	a0,a0,a2
80005828:	0067d7b3          	srl	a5,a5,t1
8000582c:	4481                	li	s1,0
8000582e:	b325                	j	80005556 <__subdf3+0x212>
80005830:	00b2e2b3          	or	t0,t0,a1
80005834:	fa0291e3          	bnez	t0,800057d6 <__subdf3+0x492>
80005838:	4481                	li	s1,0
8000583a:	4401                	li	s0,0
8000583c:	a0ad                	j	800058a6 <__subdf3+0x562>
8000583e:	851a                	mv	a0,t1
80005840:	c22e                	sw	a1,4(sp)
80005842:	c01a                	sw	t1,0(sp)
80005844:	2959                	jal	80005cda <__clzsi2>
80005846:	01850713          	add	a4,a0,24
8000584a:	47fd                	li	a5,31
8000584c:	4302                	lw	t1,0(sp)
8000584e:	4592                	lw	a1,4(sp)
80005850:	f8e7dce3          	bge	a5,a4,800057e8 <__subdf3+0x4a4>
80005854:	ff850793          	add	a5,a0,-8
80005858:	00f317b3          	sll	a5,t1,a5
8000585c:	b745                	j	800057fc <__subdf3+0x4b8>
8000585e:	1705                	add	a4,a4,-31
80005860:	00e7d533          	srl	a0,a5,a4
80005864:	4681                	li	a3,0
80005866:	00c30863          	beq	t1,a2,80005876 <__subdf3+0x532>
8000586a:	04000693          	li	a3,64
8000586e:	406686b3          	sub	a3,a3,t1
80005872:	00d796b3          	sll	a3,a5,a3
80005876:	8ecd                	or	a3,a3,a1
80005878:	00d036b3          	snez	a3,a3
8000587c:	8d55                	or	a0,a0,a3
8000587e:	4781                	li	a5,0
80005880:	b775                	j	8000582c <__subdf3+0x4e8>
80005882:	8c99                	sub	s1,s1,a4
80005884:	ff800737          	lui	a4,0xff800
80005888:	177d                	add	a4,a4,-1 # ff7fffff <_sp+0x6f7effff>
8000588a:	8ff9                	and	a5,a5,a4
8000588c:	852e                	mv	a0,a1
8000588e:	b1e1                	j	80005556 <__subdf3+0x212>
80005890:	87ba                	mv	a5,a4
80005892:	8532                	mv	a0,a2
80005894:	8496                	mv	s1,t0
80005896:	b1c1                	j	80005556 <__subdf3+0x212>
80005898:	87ba                	mv	a5,a4
8000589a:	8532                	mv	a0,a2
8000589c:	b96d                	j	80005556 <__subdf3+0x212>
8000589e:	87ba                	mv	a5,a4
800058a0:	8532                	mv	a0,a2
800058a2:	b9f9                	j	80005580 <__subdf3+0x23c>
800058a4:	84b6                	mv	s1,a3
800058a6:	4781                	li	a5,0
800058a8:	4501                	li	a0,0
800058aa:	a039                	j	800058b8 <__subdf3+0x574>
800058ac:	87ba                	mv	a5,a4
800058ae:	8532                	mv	a0,a2
800058b0:	8496                	mv	s1,t0
800058b2:	bd69                	j	8000574c <__subdf3+0x408>
800058b4:	4781                	li	a5,0
800058b6:	4401                	li	s0,0
800058b8:	00879713          	sll	a4,a5,0x8
800058bc:	00075b63          	bgez	a4,800058d2 <__subdf3+0x58e>
800058c0:	0485                	add	s1,s1,1
800058c2:	7ff00713          	li	a4,2047
800058c6:	04e48863          	beq	s1,a4,80005916 <__subdf3+0x5d2>
800058ca:	ff800737          	lui	a4,0xff800
800058ce:	177d                	add	a4,a4,-1 # ff7fffff <_sp+0x6f7effff>
800058d0:	8ff9                	and	a5,a5,a4
800058d2:	01d79693          	sll	a3,a5,0x1d
800058d6:	810d                	srl	a0,a0,0x3
800058d8:	7ff00713          	li	a4,2047
800058dc:	8ec9                	or	a3,a3,a0
800058de:	838d                	srl	a5,a5,0x3
800058e0:	00e49963          	bne	s1,a4,800058f2 <__subdf3+0x5ae>
800058e4:	8edd                	or	a3,a3,a5
800058e6:	4781                	li	a5,0
800058e8:	c689                	beqz	a3,800058f2 <__subdf3+0x5ae>
800058ea:	000807b7          	lui	a5,0x80
800058ee:	4681                	li	a3,0
800058f0:	4401                	li	s0,0
800058f2:	01449713          	sll	a4,s1,0x14
800058f6:	7ff00637          	lui	a2,0x7ff00
800058fa:	07b2                	sll	a5,a5,0xc
800058fc:	8f71                	and	a4,a4,a2
800058fe:	83b1                	srl	a5,a5,0xc
80005900:	047e                	sll	s0,s0,0x1f
80005902:	8fd9                	or	a5,a5,a4
80005904:	0087e733          	or	a4,a5,s0
80005908:	40c2                	lw	ra,16(sp)
8000590a:	4432                	lw	s0,12(sp)
8000590c:	44a2                	lw	s1,8(sp)
8000590e:	8536                	mv	a0,a3
80005910:	85ba                	mv	a1,a4
80005912:	0151                	add	sp,sp,20
80005914:	8082                	ret
80005916:	4781                	li	a5,0
80005918:	4501                	li	a0,0
8000591a:	bf65                	j	800058d2 <__subdf3+0x58e>

8000591c <__unorddf2>:
__unorddf2():
8000591c:	001007b7          	lui	a5,0x100
80005920:	17fd                	add	a5,a5,-1 # fffff <__HEAP_SIZE+0xff7ff>
80005922:	00b7f733          	and	a4,a5,a1
80005926:	81d1                	srl	a1,a1,0x14
80005928:	8ff5                	and	a5,a5,a3
8000592a:	7ff5f593          	and	a1,a1,2047
8000592e:	82d1                	srl	a3,a3,0x14
80005930:	7ff00313          	li	t1,2047
80005934:	7ff6f693          	and	a3,a3,2047
80005938:	00659563          	bne	a1,t1,80005942 <__unorddf2+0x26>
8000593c:	8f49                	or	a4,a4,a0
8000593e:	4505                	li	a0,1
80005940:	e719                	bnez	a4,8000594e <__unorddf2+0x32>
80005942:	4501                	li	a0,0
80005944:	00669563          	bne	a3,t1,8000594e <__unorddf2+0x32>
80005948:	8fd1                	or	a5,a5,a2
8000594a:	00f03533          	snez	a0,a5
8000594e:	8082                	ret

80005950 <__fixdfsi>:
__fixdfsi():
80005950:	0145d713          	srl	a4,a1,0x14
80005954:	00100637          	lui	a2,0x100
80005958:	86aa                	mv	a3,a0
8000595a:	fff60793          	add	a5,a2,-1 # fffff <__HEAP_SIZE+0xff7ff>
8000595e:	7ff77713          	and	a4,a4,2047
80005962:	3fe00513          	li	a0,1022
80005966:	8fed                	and	a5,a5,a1
80005968:	81fd                	srl	a1,a1,0x1f
8000596a:	04e55463          	bge	a0,a4,800059b2 <__fixdfsi+0x62>
8000596e:	41d00513          	li	a0,1053
80005972:	00e55763          	bge	a0,a4,80005980 <__fixdfsi+0x30>
80005976:	80000537          	lui	a0,0x80000
8000597a:	157d                	add	a0,a0,-1 # 7fffffff <__HEAP_SIZE+0x7ffff7ff>
8000597c:	952e                	add	a0,a0,a1
8000597e:	8082                	ret
80005980:	8fd1                	or	a5,a5,a2
80005982:	43300613          	li	a2,1075
80005986:	8e19                	sub	a2,a2,a4
80005988:	457d                	li	a0,31
8000598a:	00c54d63          	blt	a0,a2,800059a4 <__fixdfsi+0x54>
8000598e:	bed70713          	add	a4,a4,-1043
80005992:	00e79533          	sll	a0,a5,a4
80005996:	00c6d6b3          	srl	a3,a3,a2
8000599a:	8d55                	or	a0,a0,a3
8000599c:	cd81                	beqz	a1,800059b4 <__fixdfsi+0x64>
8000599e:	40a00533          	neg	a0,a0
800059a2:	8082                	ret
800059a4:	41300693          	li	a3,1043
800059a8:	40e68733          	sub	a4,a3,a4
800059ac:	00e7d533          	srl	a0,a5,a4
800059b0:	b7f5                	j	8000599c <__fixdfsi+0x4c>
800059b2:	4501                	li	a0,0
800059b4:	8082                	ret

800059b6 <__floatsidf>:
__floatsidf():
800059b6:	1151                	add	sp,sp,-12
800059b8:	c406                	sw	ra,8(sp)
800059ba:	c222                	sw	s0,4(sp)
800059bc:	c026                	sw	s1,0(sp)
800059be:	cd21                	beqz	a0,80005a16 <__floatsidf+0x60>
800059c0:	41f55793          	sra	a5,a0,0x1f
800059c4:	00a7c433          	xor	s0,a5,a0
800059c8:	8c1d                	sub	s0,s0,a5
800059ca:	01f55493          	srl	s1,a0,0x1f
800059ce:	8522                	mv	a0,s0
800059d0:	2629                	jal	80005cda <__clzsi2>
800059d2:	41e00693          	li	a3,1054
800059d6:	47a9                	li	a5,10
800059d8:	8e89                	sub	a3,a3,a0
800059da:	02a7c863          	blt	a5,a0,80005a0a <__floatsidf+0x54>
800059de:	47ad                	li	a5,11
800059e0:	8f89                	sub	a5,a5,a0
800059e2:	0555                	add	a0,a0,21
800059e4:	00a41733          	sll	a4,s0,a0
800059e8:	00f457b3          	srl	a5,s0,a5
800059ec:	8526                	mv	a0,s1
800059ee:	07b2                	sll	a5,a5,0xc
800059f0:	83b1                	srl	a5,a5,0xc
800059f2:	06d2                	sll	a3,a3,0x14
800059f4:	057e                	sll	a0,a0,0x1f
800059f6:	8edd                	or	a3,a3,a5
800059f8:	00a6e7b3          	or	a5,a3,a0
800059fc:	40a2                	lw	ra,8(sp)
800059fe:	4412                	lw	s0,4(sp)
80005a00:	4482                	lw	s1,0(sp)
80005a02:	853a                	mv	a0,a4
80005a04:	85be                	mv	a1,a5
80005a06:	0131                	add	sp,sp,12
80005a08:	8082                	ret
80005a0a:	1555                	add	a0,a0,-11
80005a0c:	00a417b3          	sll	a5,s0,a0
80005a10:	8526                	mv	a0,s1
80005a12:	4701                	li	a4,0
80005a14:	bfe9                	j	800059ee <__floatsidf+0x38>
80005a16:	4681                	li	a3,0
80005a18:	4781                	li	a5,0
80005a1a:	bfe5                	j	80005a12 <__floatsidf+0x5c>

80005a1c <__floatunsidf>:
__floatunsidf():
80005a1c:	1161                	add	sp,sp,-8
80005a1e:	c022                	sw	s0,0(sp)
80005a20:	c206                	sw	ra,4(sp)
80005a22:	842a                	mv	s0,a0
80005a24:	cd1d                	beqz	a0,80005a62 <__floatunsidf+0x46>
80005a26:	2c55                	jal	80005cda <__clzsi2>
80005a28:	41e00713          	li	a4,1054
80005a2c:	47a9                	li	a5,10
80005a2e:	8f09                	sub	a4,a4,a0
80005a30:	02a7c463          	blt	a5,a0,80005a58 <__floatunsidf+0x3c>
80005a34:	47ad                	li	a5,11
80005a36:	8f89                	sub	a5,a5,a0
80005a38:	0555                	add	a0,a0,21
80005a3a:	00f457b3          	srl	a5,s0,a5
80005a3e:	00a41433          	sll	s0,s0,a0
80005a42:	07b2                	sll	a5,a5,0xc
80005a44:	0752                	sll	a4,a4,0x14
80005a46:	83b1                	srl	a5,a5,0xc
80005a48:	8522                	mv	a0,s0
80005a4a:	4092                	lw	ra,4(sp)
80005a4c:	4402                	lw	s0,0(sp)
80005a4e:	00f766b3          	or	a3,a4,a5
80005a52:	85b6                	mv	a1,a3
80005a54:	0121                	add	sp,sp,8
80005a56:	8082                	ret
80005a58:	1555                	add	a0,a0,-11
80005a5a:	00a417b3          	sll	a5,s0,a0
80005a5e:	4401                	li	s0,0
80005a60:	b7cd                	j	80005a42 <__floatunsidf+0x26>
80005a62:	4781                	li	a5,0
80005a64:	4701                	li	a4,0
80005a66:	bff1                	j	80005a42 <__floatunsidf+0x26>

80005a68 <__trunctfdf2>:
__trunctfdf2():
80005a68:	fc410113          	add	sp,sp,-60
80005a6c:	02710793          	add	a5,sp,39
80005a70:	9bc1                	and	a5,a5,-16
80005a72:	dc22                	sw	s0,56(sp)
80005a74:	da26                	sw	s1,52(sp)
80005a76:	4550                	lw	a2,12(a0)
80005a78:	4518                	lw	a4,8(a0)
80005a7a:	c798                	sw	a4,8(a5)
80005a7c:	c83a                	sw	a4,16(sp)
80005a7e:	01061713          	sll	a4,a2,0x10
80005a82:	4154                	lw	a3,4(a0)
80005a84:	8341                	srl	a4,a4,0x10
80005a86:	00052303          	lw	t1,0(a0)
80005a8a:	c3d4                	sw	a3,4(a5)
80005a8c:	c636                	sw	a3,12(sp)
80005a8e:	ca3a                	sw	a4,20(sp)
80005a90:	00161693          	sll	a3,a2,0x1
80005a94:	0038                	add	a4,sp,8
80005a96:	c7d0                	sw	a2,12(a5)
80005a98:	0067a023          	sw	t1,0(a5)
80005a9c:	c41a                	sw	t1,8(sp)
80005a9e:	82c5                	srl	a3,a3,0x11
80005aa0:	827d                	srl	a2,a2,0x1f
80005aa2:	ffc10293          	add	t0,sp,-4
80005aa6:	87ba                	mv	a5,a4
80005aa8:	47cc                	lw	a1,12(a5)
80005aaa:	4788                	lw	a0,8(a5)
80005aac:	058e                	sll	a1,a1,0x3
80005aae:	8175                	srl	a0,a0,0x1d
80005ab0:	8dc9                	or	a1,a1,a0
80005ab2:	c7cc                	sw	a1,12(a5)
80005ab4:	17f1                	add	a5,a5,-4
80005ab6:	fe5799e3          	bne	a5,t0,80005aa8 <__trunctfdf2+0x40>
80005aba:	00168793          	add	a5,a3,1
80005abe:	00331513          	sll	a0,t1,0x3
80005ac2:	01179593          	sll	a1,a5,0x11
80005ac6:	c42a                	sw	a0,8(sp)
80005ac8:	81c9                	srl	a1,a1,0x12
80005aca:	14058863          	beqz	a1,80005c1a <__trunctfdf2+0x1b2>
80005ace:	77f1                	lui	a5,0xffffc
80005ad0:	40078793          	add	a5,a5,1024 # ffffc400 <_sp+0x6ffec400>
80005ad4:	96be                	add	a3,a3,a5
80005ad6:	7fe00793          	li	a5,2046
80005ada:	16d7cf63          	blt	a5,a3,80005c58 <__trunctfdf2+0x1f0>
80005ade:	04d05563          	blez	a3,80005b28 <__trunctfdf2+0xc0>
80005ae2:	45c2                	lw	a1,16(sp)
80005ae4:	47d2                	lw	a5,20(sp)
80005ae6:	01c5d293          	srl	t0,a1,0x1c
80005aea:	0792                	sll	a5,a5,0x4
80005aec:	4732                	lw	a4,12(sp)
80005aee:	0057e7b3          	or	a5,a5,t0
80005af2:	c63e                	sw	a5,12(sp)
80005af4:	00471793          	sll	a5,a4,0x4
80005af8:	8fc9                	or	a5,a5,a0
80005afa:	8371                	srl	a4,a4,0x1c
80005afc:	0592                	sll	a1,a1,0x4
80005afe:	00f037b3          	snez	a5,a5
80005b02:	8f4d                	or	a4,a4,a1
80005b04:	8fd9                	or	a5,a5,a4
80005b06:	4732                	lw	a4,12(sp)
80005b08:	0077f593          	and	a1,a5,7
80005b0c:	14058a63          	beqz	a1,80005c60 <__trunctfdf2+0x1f8>
80005b10:	00f7f593          	and	a1,a5,15
80005b14:	4511                	li	a0,4
80005b16:	14a58563          	beq	a1,a0,80005c60 <__trunctfdf2+0x1f8>
80005b1a:	00a785b3          	add	a1,a5,a0
80005b1e:	00f5b533          	sltu	a0,a1,a5
80005b22:	972a                	add	a4,a4,a0
80005b24:	87ae                	mv	a5,a1
80005b26:	aa2d                	j	80005c60 <__trunctfdf2+0x1f8>
80005b28:	fcc00793          	li	a5,-52
80005b2c:	00f6d663          	bge	a3,a5,80005b38 <__trunctfdf2+0xd0>
80005b30:	c602                	sw	zero,12(sp)
80005b32:	4785                	li	a5,1
80005b34:	4681                	li	a3,0
80005b36:	bfc1                	j	80005b06 <__trunctfdf2+0x9e>
80005b38:	4552                	lw	a0,20(sp)
80005b3a:	000807b7          	lui	a5,0x80
80005b3e:	8d5d                	or	a0,a0,a5
80005b40:	03d00793          	li	a5,61
80005b44:	40d786b3          	sub	a3,a5,a3
80005b48:	4056d313          	sra	t1,a3,0x5
80005b4c:	ca2a                	sw	a0,20(sp)
80005b4e:	8afd                	and	a3,a3,31
80005b50:	82ba                	mv	t0,a4
80005b52:	4581                	li	a1,0
80005b54:	4781                	li	a5,0
80005b56:	0002a383          	lw	t2,0(t0)
80005b5a:	0585                	add	a1,a1,1 # 800001 <__HEAP_SIZE+0x7ff801>
80005b5c:	0077e7b3          	or	a5,a5,t2
80005b60:	0291                	add	t0,t0,4
80005b62:	feb31ae3          	bne	t1,a1,80005b56 <__trunctfdf2+0xee>
80005b66:	458d                	li	a1,3
80005b68:	406585b3          	sub	a1,a1,t1
80005b6c:	00231293          	sll	t0,t1,0x2
80005b70:	ee89                	bnez	a3,80005b8a <__trunctfdf2+0x122>
80005b72:	00570533          	add	a0,a4,t0
80005b76:	4108                	lw	a0,0(a0)
80005b78:	c308                	sw	a0,0(a4)
80005b7a:	0685                	add	a3,a3,1
80005b7c:	0711                	add	a4,a4,4
80005b7e:	fed5dae3          	bge	a1,a3,80005b72 <__trunctfdf2+0x10a>
80005b82:	4691                	li	a3,4
80005b84:	40668333          	sub	t1,a3,t1
80005b88:	a825                	j	80005bc0 <__trunctfdf2+0x158>
80005b8a:	02000393          	li	t2,32
80005b8e:	9716                	add	a4,a4,t0
80005b90:	40d383b3          	sub	t2,t2,a3
80005b94:	4300                	lw	s0,0(a4)
80005b96:	00741433          	sll	s0,s0,t2
80005b9a:	8fc1                	or	a5,a5,s0
80005b9c:	40500433          	neg	s0,t0
80005ba0:	c022                	sw	s0,0(sp)
80005ba2:	4401                	li	s0,0
80005ba4:	04b44963          	blt	s0,a1,80005bf6 <__trunctfdf2+0x18e>
80005ba8:	4711                	li	a4,4
80005baa:	058a                	sll	a1,a1,0x2
80005bac:	40670333          	sub	t1,a4,t1
80005bb0:	02c58713          	add	a4,a1,44
80005bb4:	002c                	add	a1,sp,8
80005bb6:	95ba                	add	a1,a1,a4
80005bb8:	00d55533          	srl	a0,a0,a3
80005bbc:	fca5aa23          	sw	a0,-44(a1)
80005bc0:	4711                	li	a4,4
80005bc2:	40670733          	sub	a4,a4,t1
80005bc6:	00231693          	sll	a3,t1,0x2
80005bca:	06a1                	add	a3,a3,8
80005bcc:	070a                	sll	a4,a4,0x2
80005bce:	45a1                	li	a1,8
80005bd0:	968a                	add	a3,a3,sp
80005bd2:	00b76863          	bltu	a4,a1,80005be2 <__trunctfdf2+0x17a>
80005bd6:	0006a023          	sw	zero,0(a3)
80005bda:	0006a223          	sw	zero,4(a3)
80005bde:	1761                	add	a4,a4,-8
80005be0:	96ae                	add	a3,a3,a1
80005be2:	4591                	li	a1,4
80005be4:	00b76463          	bltu	a4,a1,80005bec <__trunctfdf2+0x184>
80005be8:	0006a023          	sw	zero,0(a3)
80005bec:	00f037b3          	snez	a5,a5
80005bf0:	4722                	lw	a4,8(sp)
80005bf2:	8fd9                	or	a5,a5,a4
80005bf4:	b781                	j	80005b34 <__trunctfdf2+0xcc>
80005bf6:	4482                	lw	s1,0(sp)
80005bf8:	94ba                	add	s1,s1,a4
80005bfa:	00072283          	lw	t0,0(a4)
80005bfe:	c226                	sw	s1,4(sp)
80005c00:	4344                	lw	s1,4(a4)
80005c02:	007494b3          	sll	s1,s1,t2
80005c06:	00d2d2b3          	srl	t0,t0,a3
80005c0a:	0092e2b3          	or	t0,t0,s1
80005c0e:	4492                	lw	s1,4(sp)
80005c10:	0054a023          	sw	t0,0(s1)
80005c14:	0405                	add	s0,s0,1 # 800001 <__HEAP_SIZE+0x7ff801>
80005c16:	0711                	add	a4,a4,4
80005c18:	b771                	j	80005ba4 <__trunctfdf2+0x13c>
80005c1a:	4732                	lw	a4,12(sp)
80005c1c:	45c2                	lw	a1,16(sp)
80005c1e:	4352                	lw	t1,20(sp)
80005c20:	00e5e7b3          	or	a5,a1,a4
80005c24:	0067e7b3          	or	a5,a5,t1
80005c28:	8fc9                	or	a5,a5,a0
80005c2a:	e689                	bnez	a3,80005c34 <__trunctfdf2+0x1cc>
80005c2c:	00f037b3          	snez	a5,a5
80005c30:	4701                	li	a4,0
80005c32:	bdd9                	j	80005b08 <__trunctfdf2+0xa0>
80005c34:	c7c1                	beqz	a5,80005cbc <__trunctfdf2+0x254>
80005c36:	00459793          	sll	a5,a1,0x4
80005c3a:	8371                	srl	a4,a4,0x1c
80005c3c:	8f5d                	or	a4,a4,a5
80005c3e:	ff877793          	and	a5,a4,-8
80005c42:	0312                	sll	t1,t1,0x4
80005c44:	01c5d713          	srl	a4,a1,0x1c
80005c48:	004006b7          	lui	a3,0x400
80005c4c:	00676733          	or	a4,a4,t1
80005c50:	8f55                	or	a4,a4,a3
80005c52:	7ff00693          	li	a3,2047
80005c56:	bd4d                	j	80005b08 <__trunctfdf2+0xa0>
80005c58:	4701                	li	a4,0
80005c5a:	4781                	li	a5,0
80005c5c:	7ff00693          	li	a3,2047
80005c60:	00871593          	sll	a1,a4,0x8
80005c64:	0005db63          	bgez	a1,80005c7a <__trunctfdf2+0x212>
80005c68:	0685                	add	a3,a3,1 # 400001 <__HEAP_SIZE+0x3ff801>
80005c6a:	7ff00593          	li	a1,2047
80005c6e:	04b68963          	beq	a3,a1,80005cc0 <__trunctfdf2+0x258>
80005c72:	ff8005b7          	lui	a1,0xff800
80005c76:	15fd                	add	a1,a1,-1 # ff7fffff <_sp+0x6f7effff>
80005c78:	8f6d                	and	a4,a4,a1
80005c7a:	01d71593          	sll	a1,a4,0x1d
80005c7e:	838d                	srl	a5,a5,0x3
80005c80:	8fcd                	or	a5,a5,a1
80005c82:	7ff00593          	li	a1,2047
80005c86:	830d                	srl	a4,a4,0x3
80005c88:	00b69963          	bne	a3,a1,80005c9a <__trunctfdf2+0x232>
80005c8c:	8fd9                	or	a5,a5,a4
80005c8e:	4701                	li	a4,0
80005c90:	c789                	beqz	a5,80005c9a <__trunctfdf2+0x232>
80005c92:	00080737          	lui	a4,0x80
80005c96:	4781                	li	a5,0
80005c98:	4601                	li	a2,0
80005c9a:	7ff005b7          	lui	a1,0x7ff00
80005c9e:	06d2                	sll	a3,a3,0x14
80005ca0:	0732                	sll	a4,a4,0xc
80005ca2:	8eed                	and	a3,a3,a1
80005ca4:	8331                	srl	a4,a4,0xc
80005ca6:	8f55                	or	a4,a4,a3
80005ca8:	067e                	sll	a2,a2,0x1f
80005caa:	5462                	lw	s0,56(sp)
80005cac:	00c766b3          	or	a3,a4,a2
80005cb0:	54d2                	lw	s1,52(sp)
80005cb2:	853e                	mv	a0,a5
80005cb4:	85b6                	mv	a1,a3
80005cb6:	03c10113          	add	sp,sp,60
80005cba:	8082                	ret
80005cbc:	4701                	li	a4,0
80005cbe:	bf79                	j	80005c5c <__trunctfdf2+0x1f4>
80005cc0:	4701                	li	a4,0
80005cc2:	4781                	li	a5,0
80005cc4:	bf5d                	j	80005c7a <__trunctfdf2+0x212>

80005cc6 <__riscv_save_0>:
__riscv_save_1():
80005cc6:	1151                	add	sp,sp,-12
80005cc8:	c026                	sw	s1,0(sp)
80005cca:	c222                	sw	s0,4(sp)
80005ccc:	c406                	sw	ra,8(sp)
80005cce:	8282                	jr	t0

80005cd0 <__riscv_restore_0>:
__riscv_restore_2():
80005cd0:	4482                	lw	s1,0(sp)
80005cd2:	4412                	lw	s0,4(sp)
80005cd4:	40a2                	lw	ra,8(sp)
80005cd6:	0131                	add	sp,sp,12
80005cd8:	8082                	ret

80005cda <__clzsi2>:
__clzsi2():
80005cda:	67c1                	lui	a5,0x10
80005cdc:	02f57463          	bgeu	a0,a5,80005d04 <__clzsi2+0x2a>
80005ce0:	10053793          	sltiu	a5,a0,256
80005ce4:	0017b793          	seqz	a5,a5
80005ce8:	078e                	sll	a5,a5,0x3
80005cea:	02000713          	li	a4,32
80005cee:	8f1d                	sub	a4,a4,a5
80005cf0:	00f55533          	srl	a0,a0,a5
80005cf4:	df418793          	add	a5,gp,-524 # 900007bc <__clz_tab>
80005cf8:	97aa                	add	a5,a5,a0
80005cfa:	0007c503          	lbu	a0,0(a5) # 10000 <__HEAP_SIZE+0xf800>
80005cfe:	40a70533          	sub	a0,a4,a0
80005d02:	8082                	ret
80005d04:	01000737          	lui	a4,0x1000
80005d08:	47e1                	li	a5,24
80005d0a:	fee570e3          	bgeu	a0,a4,80005cea <__clzsi2+0x10>
80005d0e:	47c1                	li	a5,16
80005d10:	bfe9                	j	80005cea <__clzsi2+0x10>
80005d12:	0000                	unimp
80005d14:	0000                	unimp
	...
